[[0;33m*[0m] Binary protection state of [0;33mbash.bash[0m

  RELRO           STACK CANARY      NX            PIE             RPATH      RUNPATH      Symbols         
  [32mFull RELRO   [m   [32mCanary found   [m   [32mNX enabled [m   [32mPIE enabled  [m   [32mNo RPATH [m  [32mNo RUNPATH [m  [32mNo Symbols


[[0;33m*[0m] Function [0;33mstrcpy[0m tear down of [0;33mbash.bash[0m

   2fa98:	540000c1 	b.ne	2fab0 <main@@Base+0x3a0>  // b.any
   2fa9c:	39400821 	ldrb	w1, [x1, #2]
   2faa0:	35000081 	cbnz	w1, 2fab0 <main@@Base+0x3a0>
   2faa4:	b9407401 	ldr	w1, [x0, #116]
   2faa8:	11000421 	add	w1, w1, #0x1
   2faac:	b9007401 	str	w1, [x0, #116]
   2fab0:	d00007e0 	adrp	x0, 12d000 <o_options@@Base+0x2220>
   2fab4:	f0000821 	adrp	x1, 136000 <_rl_color_indicator@@Base+0x150>
   2fab8:	f9456000 	ldr	x0, [x0, #2752]
   2fabc:	f9002c33 	str	x19, [x1, #88]
   2fac0:	f9400000 	ldr	x0, [x0]
   2fac4:	b4000040 	cbz	x0, 2facc <main@@Base+0x3bc>
   2fac8:	97fffdca 	bl	2f1f0 <free@plt>
   2facc:	f0000833 	adrp	x19, 136000 <_rl_color_indicator@@Base+0x150>
   2fad0:	91010273 	add	x19, x19, #0x40
   2fad4:	f9400e60 	ldr	x0, [x19, #24]
   2fad8:	97fffbba 	bl	2e9c0 <strlen@plt>
   2fadc:	91000400 	add	x0, x0, #0x1
   2fae0:	94018618 	bl	91340 <xmalloc@@Base>
   2fae4:	f9400e61 	ldr	x1, [x19, #24]
[31m   2fae8:	97fffe1e 	bl	2f360 <strcpy@plt>[0m
   2faec:	d00007e1 	adrp	x1, 12d000 <o_options@@Base+0x2220>
   2faf0:	f9400e62 	ldr	x2, [x19, #24]
--
   30654:	35fff180 	cbnz	w0, 30484 <main@@Base+0xd74>
   30658:	d0000820 	adrp	x0, 136000 <_rl_color_indicator@@Base+0x150>
   3065c:	91010000 	add	x0, x0, #0x40
   30660:	17ffff85 	b	30474 <main@@Base+0xd64>
   30664:	b9406000 	ldr	w0, [x0, #96]
   30668:	35fff0e0 	cbnz	w0, 30484 <main@@Base+0xd74>
   3066c:	d00007e0 	adrp	x0, 12e000 <__data_start@@Base>
   30670:	52800021 	mov	w1, #0x1                   	// #1
   30674:	f9402400 	ldr	x0, [x0, #72]
   30678:	94019cb6 	bl	97950 <maybe_execute_file@@Base>
   3067c:	17ffff82 	b	30484 <main@@Base+0xd74>
   30680:	b00007e0 	adrp	x0, 12d000 <o_options@@Base+0x2220>
   30684:	f945a800 	ldr	x0, [x0, #2896]
   30688:	f9400016 	ldr	x22, [x0]
   3068c:	b40016d6 	cbz	x22, 30964 <main@@Base+0x1254>
   30690:	aa1603e0 	mov	x0, x22
   30694:	97fff8cb 	bl	2e9c0 <strlen@plt>
   30698:	91000400 	add	x0, x0, #0x1
   3069c:	94018329 	bl	91340 <xmalloc@@Base>
   306a0:	aa1603e1 	mov	x1, x22
[31m   306a4:	97fffb2f 	bl	2f360 <strcpy@plt>[0m
   306a8:	52800001 	mov	w1, #0x0                   	// #0
   306ac:	aa0003f4 	mov	x20, x0
   306b0:	97fff9bc 	bl	2eda0 <open@plt>
   306b4:	2a0003f5 	mov	w21, w0
   306b8:	37f824e0 	tbnz	w0, #31, 30b54 <main@@Base+0x1444>
   306bc:	b00007e0 	adrp	x0, 12d000 <o_options@@Base+0x2220>
   306c0:	b00007f7 	adrp	x23, 12d000 <o_options@@Base+0x2220>
   306c4:	f9456000 	ldr	x0, [x0, #2752]
   306c8:	f9400000 	ldr	x0, [x0]
   306cc:	97fffac9 	bl	2f1f0 <free@plt>
   306d0:	f942eef7 	ldr	x23, [x23, #1496]
   306d4:	f94002e0 	ldr	x0, [x23]
   306d8:	b4002c00 	cbz	x0, 30c58 <main@@Base+0x1548>
   306dc:	97fff8b9 	bl	2e9c0 <strlen@plt>
   306e0:	91000400 	add	x0, x0, #0x1
   306e4:	94018317 	bl	91340 <xmalloc@@Base>
   306e8:	f94002e1 	ldr	x1, [x23]
[31m   306ec:	97fffb1d 	bl	2f360 <strcpy@plt>[0m
   306f0:	aa0003e1 	mov	x1, x0
   306f4:	b00007f6 	adrp	x22, 12d000 <o_options@@Base+0x2220>
--
   30c1c:	94000101 	bl	31020 <_start@@Base+0x120>
   30c20:	b00007e4 	adrp	x4, 12d000 <o_options@@Base+0x2220>
   30c24:	b00007e3 	adrp	x3, 12d000 <o_options@@Base+0x2220>
   30c28:	b00007e2 	adrp	x2, 12d000 <o_options@@Base+0x2220>
   30c2c:	d0000821 	adrp	x1, 136000 <_rl_color_indicator@@Base+0x150>
   30c30:	91010021 	add	x1, x1, #0x40
   30c34:	52800020 	mov	w0, #0x1                   	// #1
   30c38:	f947e484 	ldr	x4, [x4, #4040]
   30c3c:	f9446c63 	ldr	x3, [x3, #2264]
   30c40:	29008020 	stp	w0, w0, [x1, #4]
   30c44:	f944d442 	ldr	x2, [x2, #2472]
   30c48:	b9000080 	str	w0, [x4]
   30c4c:	b9000060 	str	w0, [x3]
   30c50:	b9000040 	str	w0, [x2]
   30c54:	17ffff0d 	b	30888 <main@@Base+0x1178>
   30c58:	aa1603e0 	mov	x0, x22
   30c5c:	97fff759 	bl	2e9c0 <strlen@plt>
   30c60:	91000400 	add	x0, x0, #0x1
   30c64:	940181b7 	bl	91340 <xmalloc@@Base>
   30c68:	aa1603e1 	mov	x1, x22
[31m   30c6c:	97fff9bd 	bl	2f360 <strcpy@plt>[0m
   30c70:	aa0003e1 	mov	x1, x0
   30c74:	17fffea0 	b	306f4 <main@@Base+0xfe4>
--
   3118c:	d2800013 	mov	x19, #0x0                   	// #0
   31190:	14000004 	b	311a0 <_start@@Base+0x2a0>
   31194:	9100c273 	add	x19, x19, #0x30
   31198:	f8736a80 	ldr	x0, [x20, x19]
   3119c:	b4000560 	cbz	x0, 31248 <_start@@Base+0x348>
   311a0:	39400002 	ldrb	w2, [x0]
   311a4:	8b130298 	add	x24, x20, x19
   311a8:	7101cc5f 	cmp	w2, #0x73
   311ac:	54ffff41 	b.ne	31194 <_start@@Base+0x294>  // b.any
   311b0:	aa1a03e1 	mov	x1, x26
   311b4:	97fff7eb 	bl	2f160 <strcmp@plt>
   311b8:	35fffee0 	cbnz	w0, 31194 <_start@@Base+0x294>
   311bc:	f9401300 	ldr	x0, [x24, #32]
   311c0:	97fff600 	bl	2e9c0 <strlen@plt>
   311c4:	91000400 	add	x0, x0, #0x1
   311c8:	9401805e 	bl	91340 <xmalloc@@Base>
   311cc:	f947df39 	ldr	x25, [x25, #4024]
   311d0:	f9400321 	ldr	x1, [x25]
   311d4:	8b130033 	add	x19, x1, x19
   311d8:	f9401261 	ldr	x1, [x19, #32]
[31m   311dc:	97fff861 	bl	2f360 <strcpy@plt>[0m
   311e0:	aa0003f4 	mov	x20, x0
   311e4:	52800b61 	mov	w1, #0x5b                  	// #91
--
   31430:	94018ab4 	bl	93f00 <remember_args@@Base>
   31434:	b9402260 	ldr	w0, [x19, #32]
   31438:	35000660 	cbnz	w0, 31504 <_start@@Base+0x604>
   3143c:	aa1403e0 	mov	x0, x20
   31440:	94004c40 	bl	44540 <dispose_words@@Base>
   31444:	2a1803e0 	mov	w0, w24
   31448:	a94153f3 	ldp	x19, x20, [sp, #16]
   3144c:	a9425bf5 	ldp	x21, x22, [sp, #32]
   31450:	a94363f7 	ldp	x23, x24, [sp, #48]
   31454:	f94023f9 	ldr	x25, [sp, #64]
   31458:	a8c57bfd 	ldp	x29, x30, [sp], #80
   3145c:	d65f03c0 	ret
   31460:	f9400680 	ldr	x0, [x20, #8]
   31464:	900007f5 	adrp	x21, 12d000 <o_options@@Base+0x2220>
   31468:	f9400000 	ldr	x0, [x0]
   3146c:	97fff555 	bl	2e9c0 <strlen@plt>
   31470:	91000400 	add	x0, x0, #0x1
   31474:	94017fb3 	bl	91340 <xmalloc@@Base>
   31478:	f9400681 	ldr	x1, [x20, #8]
   3147c:	f9400021 	ldr	x1, [x1]
[31m   31480:	97fff7b8 	bl	2f360 <strcpy@plt>[0m
   31484:	f94562a1 	ldr	x1, [x21, #2752]
   31488:	b0000833 	adrp	x19, 136000 <_rl_color_indicator@@Base+0x150>
   3148c:	91010262 	add	x2, x19, #0x40
   31490:	f9400021 	ldr	x1, [x1]
   31494:	f9000c40 	str	x0, [x2, #24]
   31498:	b4000061 	cbz	x1, 314a4 <_start@@Base+0x5a4>
   3149c:	aa0103e0 	mov	x0, x1
   314a0:	97fff754 	bl	2f1f0 <free@plt>
   314a4:	f9400680 	ldr	x0, [x20, #8]
   314a8:	91010273 	add	x19, x19, #0x40
   314ac:	f9400000 	ldr	x0, [x0]
   314b0:	97fff544 	bl	2e9c0 <strlen@plt>
   314b4:	91000400 	add	x0, x0, #0x1
   314b8:	94017fa2 	bl	91340 <xmalloc@@Base>
   314bc:	f9400681 	ldr	x1, [x20, #8]
   314c0:	f9400021 	ldr	x1, [x1]
[31m   314c4:	97fff7a7 	bl	2f360 <strcpy@plt>[0m
   314c8:	aa0003e2 	mov	x2, x0
   314cc:	f94562b5 	ldr	x21, [x21, #2752]
--
   31558:	540000e1 	b.ne	31574 <_start@@Base+0x674>  // b.any
   3155c:	900007e1 	adrp	x1, 12d000 <o_options@@Base+0x2220>
   31560:	52800fe2 	mov	w2, #0x7f                  	// #127
   31564:	2a0203e0 	mov	w0, w2
   31568:	f9475821 	ldr	x1, [x1, #3760]
   3156c:	b9000022 	str	w2, [x1]
   31570:	14000014 	b	315c0 <_start@@Base+0x6c0>
   31574:	f0000560 	adrp	x0, e0000 <rl_insert_close@@Base+0x290>
   31578:	2a1303e2 	mov	w2, w19
   3157c:	9112e000 	add	x0, x0, #0x4b8
   31580:	52800003 	mov	w3, #0x0                   	// #0
   31584:	52800061 	mov	w1, #0x3                   	// #3
   31588:	940094a6 	bl	56820 <command_error@@Base>
   3158c:	f94017f3 	ldr	x19, [sp, #40]
   31590:	aa1303e0 	mov	x0, x19
   31594:	97fff50b 	bl	2e9c0 <strlen@plt>
   31598:	91000400 	add	x0, x0, #0x1
   3159c:	94017f69 	bl	91340 <xmalloc@@Base>
   315a0:	aa1303e1 	mov	x1, x19
   315a4:	aa0003f3 	mov	x19, x0
[31m   315a8:	97fff76e 	bl	2f360 <strcpy@plt>[0m
   315ac:	f0000561 	adrp	x1, e0000 <rl_insert_close@@Base+0x290>
   315b0:	aa1303e0 	mov	x0, x19
--
   3173c:	97fff689 	bl	2f160 <strcmp@plt>
   31740:	7100001f 	cmp	w0, #0x0
   31744:	1a9f17e0 	cset	w0, eq  // eq = none
   31748:	a8c17bfd 	ldp	x29, x30, [sp], #16
   3174c:	d65f03c0 	ret
   31750:	a9bd7bfd 	stp	x29, x30, [sp, #-48]!
   31754:	910003fd 	mov	x29, sp
   31758:	a90153f3 	stp	x19, x20, [sp, #16]
   3175c:	f90013f5 	str	x21, [sp, #32]
   31760:	b00007f4 	adrp	x20, 12e000 <__data_start@@Base>
   31764:	91004295 	add	x21, x20, #0x10
   31768:	b9401280 	ldr	w0, [x20, #16]
   3176c:	97fff681 	bl	2f170 <getpwuid@plt>
   31770:	b4000440 	cbz	x0, 317f8 <_start@@Base+0x8f8>
   31774:	aa0003f3 	mov	x19, x0
   31778:	f9400000 	ldr	x0, [x0]
   3177c:	97fff491 	bl	2e9c0 <strlen@plt>
   31780:	91000400 	add	x0, x0, #0x1
   31784:	94017eef 	bl	91340 <xmalloc@@Base>
   31788:	f9400261 	ldr	x1, [x19]
[31m   3178c:	97fff6f5 	bl	2f360 <strcpy@plt>[0m
   31790:	f9000aa0 	str	x0, [x21, #16]
   31794:	f9401661 	ldr	x1, [x19, #40]
   31798:	b4000061 	cbz	x1, 317a4 <_start@@Base+0x8a4>
   3179c:	39400020 	ldrb	w0, [x1]
   317a0:	35000680 	cbnz	w0, 31870 <_start@@Base+0x970>
   317a4:	d2800100 	mov	x0, #0x8                   	// #8
   317a8:	94017ee6 	bl	91340 <xmalloc@@Base>
   317ac:	d28c45e2 	mov	x2, #0x622f                	// #25135
   317b0:	f2adcd22 	movk	x2, #0x6e69, lsl #16
   317b4:	aa0003e1 	mov	x1, x0
   317b8:	f2ce65e2 	movk	x2, #0x732f, lsl #32
   317bc:	f2e00d02 	movk	x2, #0x68, lsl #48
   317c0:	f9000002 	str	x2, [x0]
   317c4:	f9401260 	ldr	x0, [x19, #32]
   317c8:	91004294 	add	x20, x20, #0x10
   317cc:	f9000e81 	str	x1, [x20, #24]
   317d0:	97fff47c 	bl	2e9c0 <strlen@plt>
   317d4:	91000400 	add	x0, x0, #0x1
   317d8:	94017eda 	bl	91340 <xmalloc@@Base>
   317dc:	f9401261 	ldr	x1, [x19, #32]
[31m   317e0:	97fff6e0 	bl	2f360 <strcpy@plt>[0m
   317e4:	f9001280 	str	x0, [x20, #32]
   317e8:	a94153f3 	ldp	x19, x20, [sp, #16]
   317ec:	f94013f5 	ldr	x21, [sp, #32]
   317f0:	a8c37bfd 	ldp	x29, x30, [sp], #48
   317f4:	17fff6e7 	b	2f390 <endpwent@plt>
   317f8:	f0000561 	adrp	x1, e0000 <rl_insert_close@@Base+0x290>
   317fc:	9114c021 	add	x1, x1, #0x530
   31800:	528000a2 	mov	w2, #0x5                   	// #5
   31804:	97fff73b 	bl	2f4f0 <dcgettext@plt>
   31808:	f9000aa0 	str	x0, [x21, #16]
   3180c:	97fff46d 	bl	2e9c0 <strlen@plt>
   31810:	91000400 	add	x0, x0, #0x1
   31814:	94017ecb 	bl	91340 <xmalloc@@Base>
   31818:	f9400aa1 	ldr	x1, [x21, #16]
[31m   3181c:	97fff6d1 	bl	2f360 <strcpy@plt>[0m
   31820:	aa0003e1 	mov	x1, x0
   31824:	d2800100 	mov	x0, #0x8                   	// #8
--
   31834:	d28c45e2 	mov	x2, #0x622f                	// #25135
   31838:	f2adcd22 	movk	x2, #0x6e69, lsl #16
   3183c:	f2ce65e2 	movk	x2, #0x732f, lsl #32
   31840:	f2e00d02 	movk	x2, #0x68, lsl #48
   31844:	f9000022 	str	x2, [x1]
   31848:	d2800040 	mov	x0, #0x2                   	// #2
   3184c:	f9000ea1 	str	x1, [x21, #24]
   31850:	94017ebc 	bl	91340 <xmalloc@@Base>
   31854:	528005e1 	mov	w1, #0x2f                  	// #47
   31858:	79000001 	strh	w1, [x0]
   3185c:	f90012a0 	str	x0, [x21, #32]
   31860:	a94153f3 	ldp	x19, x20, [sp, #16]
   31864:	f94013f5 	ldr	x21, [sp, #32]
   31868:	a8c37bfd 	ldp	x29, x30, [sp], #48
   3186c:	17fff6c9 	b	2f390 <endpwent@plt>
   31870:	aa0103e0 	mov	x0, x1
   31874:	97fff453 	bl	2e9c0 <strlen@plt>
   31878:	91000400 	add	x0, x0, #0x1
   3187c:	94017eb1 	bl	91340 <xmalloc@@Base>
   31880:	f9401661 	ldr	x1, [x19, #40]
[31m   31884:	97fff6b7 	bl	2f360 <strcpy@plt>[0m
   31888:	aa0003e1 	mov	x1, x0
   3188c:	17ffffce 	b	317c4 <_start@@Base+0x8c4>
--
   31a24:	f941b800 	ldr	x0, [x0, #880]
   31a28:	f9400000 	ldr	x0, [x0]
   31a2c:	9401fbe1 	bl	b09b0 <sh_setlinebuf@@Base>
   31a30:	17ffffa6 	b	318c8 <_start@@Base+0x9c8>
   31a34:	97ffff47 	bl	31750 <_start@@Base+0x850>
   31a38:	17ffffb1 	b	318fc <_start@@Base+0x9fc>
   31a3c:	910163f6 	add	x22, sp, #0x58
   31a40:	d2801fe1 	mov	x1, #0xff                  	// #255
   31a44:	aa1603e0 	mov	x0, x22
   31a48:	97fff686 	bl	2f460 <gethostname@plt>
   31a4c:	36f800a0 	tbz	w0, #31, 31a60 <_start@@Base+0xb60>
   31a50:	f0000560 	adrp	x0, e0000 <rl_insert_close@@Base+0x290>
   31a54:	91150000 	add	x0, x0, #0x540
   31a58:	f9001aa0 	str	x0, [x21, #48]
   31a5c:	17ffffa2 	b	318e4 <_start@@Base+0x9e4>
   31a60:	aa1603e0 	mov	x0, x22
   31a64:	97fff3d7 	bl	2e9c0 <strlen@plt>
   31a68:	91000400 	add	x0, x0, #0x1
   31a6c:	94017e35 	bl	91340 <xmalloc@@Base>
   31a70:	aa1603e1 	mov	x1, x22
[31m   31a74:	97fff63b 	bl	2f360 <strcpy@plt>[0m
   31a78:	f9001aa0 	str	x0, [x21, #48]
   31a7c:	17ffff9a 	b	318e4 <_start@@Base+0x9e4>
--
   32738:	39004022 	strb	w2, [x1, #16]
   3273c:	97fff2ad 	bl	2f1f0 <free@plt>
   32740:	b5fffe93 	cbnz	x19, 32710 <pretty_print_loop@@Base+0x2a0>
   32744:	9103e2b5 	add	x21, x21, #0xf8
   32748:	a94153f3 	ldp	x19, x20, [sp, #16]
   3274c:	f9001abf 	str	xzr, [x21, #48]
   32750:	f94013f5 	ldr	x21, [sp, #32]
   32754:	a8c37bfd 	ldp	x29, x30, [sp], #48
   32758:	d65f03c0 	ret
   3275c:	d503201f 	nop
   32760:	a9be7bfd 	stp	x29, x30, [sp, #-32]!
   32764:	910003fd 	mov	x29, sp
   32768:	a90153f3 	stp	x19, x20, [sp, #16]
   3276c:	90000834 	adrp	x20, 136000 <_rl_color_indicator@@Base+0x150>
   32770:	9103e293 	add	x19, x20, #0xf8
   32774:	f9401260 	ldr	x0, [x19, #32]
   32778:	97fff092 	bl	2e9c0 <strlen@plt>
   3277c:	91000400 	add	x0, x0, #0x1
   32780:	94017af0 	bl	91340 <xmalloc@@Base>
   32784:	f9401261 	ldr	x1, [x19, #32]
[31m   32788:	97fff2f6 	bl	2f360 <strcpy@plt>[0m
   3278c:	aa0003f3 	mov	x19, x0
   32790:	97fff08c 	bl	2e9c0 <strlen@plt>
--
   332d4:	910003fd 	mov	x29, sp
   332d8:	a90153f3 	stp	x19, x20, [sp, #16]
   332dc:	d00007d3 	adrp	x19, 12d000 <o_options@@Base+0x2220>
   332e0:	aa0303f4 	mov	x20, x3
   332e4:	f945ea65 	ldr	x5, [x19, #3024]
   332e8:	a9025bf5 	stp	x21, x22, [sp, #32]
   332ec:	aa0003f6 	mov	x22, x0
   332f0:	aa0103f5 	mov	x21, x1
   332f4:	f94004a0 	ldr	x0, [x5, #8]
   332f8:	f9001bf7 	str	x23, [sp, #48]
   332fc:	b90000a2 	str	w2, [x5]
   33300:	aa0403f7 	mov	x23, x4
   33304:	b4000040 	cbz	x0, 3330c <init_yy_io@@Base+0x3c>
   33308:	97ffefba 	bl	2f1f0 <free@plt>
   3330c:	b4000114 	cbz	x20, 3332c <init_yy_io@@Base+0x5c>
   33310:	aa1403e0 	mov	x0, x20
   33314:	97ffedab 	bl	2e9c0 <strlen@plt>
   33318:	91000400 	add	x0, x0, #0x1
   3331c:	94017809 	bl	91340 <xmalloc@@Base>
   33320:	aa1403e1 	mov	x1, x20
[31m   33324:	97fff00f 	bl	2f360 <strcpy@plt>[0m
   33328:	aa0003f4 	mov	x20, x0
   3332c:	f945ea62 	ldr	x2, [x19, #3024]
--
   34174:	aa0003e3 	mov	x3, x0
   34178:	54003600 	b.eq	34838 <decode_prompt_string@@Base+0xa18>  // b.none
   3417c:	7101d33f 	cmp	w25, #0x74
   34180:	54003720 	b.eq	34864 <decode_prompt_string@@Base+0xa44>  // b.none
   34184:	7101533f 	cmp	w25, #0x54
   34188:	540037e0 	b.eq	34884 <decode_prompt_string@@Base+0xa64>  // b.none
   3418c:	7101033f 	cmp	w25, #0x40
   34190:	540038a0 	b.eq	348a4 <decode_prompt_string@@Base+0xa84>  // b.none
   34194:	7101073f 	cmp	w25, #0x41
   34198:	9102a3f9 	add	x25, sp, #0xa8
   3419c:	54002920 	b.eq	346c0 <decode_prompt_string@@Base+0x8a0>  // b.none
   341a0:	b94077e0 	ldr	w0, [sp, #116]
   341a4:	350026c0 	cbnz	w0, 3467c <decode_prompt_string@@Base+0x85c>
   341a8:	3902a3ff 	strb	wzr, [sp, #168]
   341ac:	aa1903e0 	mov	x0, x25
   341b0:	97ffea04 	bl	2e9c0 <strlen@plt>
   341b4:	91000400 	add	x0, x0, #0x1
   341b8:	94017462 	bl	91340 <xmalloc@@Base>
   341bc:	aa1903e1 	mov	x1, x25
   341c0:	aa1c03fb 	mov	x27, x28
[31m   341c4:	97ffec67 	bl	2f360 <strcpy@plt>[0m
   341c8:	aa0003e8 	mov	x8, x0
   341cc:	17ffff66 	b	33f64 <decode_prompt_string@@Base+0x144>
--
   341d4:	9401745b 	bl	91340 <xmalloc@@Base>
   341d8:	7101873f 	cmp	w25, #0x61
   341dc:	aa0003e8 	mov	x8, x0
   341e0:	540028a0 	b.eq	346f4 <decode_prompt_string@@Base+0x8d4>  // b.none
   341e4:	7101973f 	cmp	w25, #0x65
   341e8:	54002d40 	b.eq	34790 <decode_prompt_string@@Base+0x970>  // b.none
   341ec:	7101cb3f 	cmp	w25, #0x72
   341f0:	528001a0 	mov	w0, #0xd                   	// #13
   341f4:	1a801325 	csel	w5, w25, w0, ne  // ne = any
   341f8:	39000105 	strb	w5, [x8]
   341fc:	aa1c03fb 	mov	x27, x28
   34200:	3900051f 	strb	wzr, [x8, #1]
   34204:	17ffff58 	b	33f64 <decode_prompt_string@@Base+0x144>
   34208:	b00007c1 	adrp	x1, 12d000 <o_options@@Base+0x2220>
   3420c:	f9463c3b 	ldr	x27, [x1, #3192]
   34210:	f9400360 	ldr	x0, [x27]
   34214:	97ffe9eb 	bl	2e9c0 <strlen@plt>
   34218:	91000400 	add	x0, x0, #0x1
   3421c:	94017449 	bl	91340 <xmalloc@@Base>
   34220:	f9400361 	ldr	x1, [x27]
[31m   34224:	97ffec4f 	bl	2f360 <strcpy@plt>[0m
   34228:	7101a33f 	cmp	w25, #0x68
   3422c:	aa0003f9 	mov	x25, x0
--
   34430:	b9400021 	ldr	w1, [x1]
   34434:	2a010000 	orr	w0, w0, w1
   34438:	34ffeba0 	cbz	w0, 341ac <decode_prompt_string@@Base+0x38c>
   3443c:	aa1903e0 	mov	x0, x25
   34440:	aa1c03fb 	mov	x27, x28
   34444:	9402005b 	bl	b45b0 <sh_backslash_quote_for_double_quotes@@Base>
   34448:	aa0003e8 	mov	x8, x0
   3444c:	17fffec6 	b	33f64 <decode_prompt_string@@Base+0x144>
   34450:	b00007c0 	adrp	x0, 12d000 <o_options@@Base+0x2220>
   34454:	f942bc00 	ldr	x0, [x0, #1400]
   34458:	f9400000 	ldr	x0, [x0]
   3445c:	97ffea0d 	bl	2ec90 <fileno@plt>
   34460:	97ffe9a0 	bl	2eae0 <ttyname@plt>
   34464:	b4001100 	cbz	x0, 34684 <decode_prompt_string@@Base+0x864>
   34468:	94002d4e 	bl	3f9a0 <base_pathname@@Base>
   3446c:	aa0003f3 	mov	x19, x0
   34470:	97ffe954 	bl	2e9c0 <strlen@plt>
   34474:	91000400 	add	x0, x0, #0x1
   34478:	940173b2 	bl	91340 <xmalloc@@Base>
   3447c:	aa1303e1 	mov	x1, x19
[31m   34480:	97ffebb8 	bl	2f360 <strcpy@plt>[0m
   34484:	aa0003e8 	mov	x8, x0
   34488:	17ffff08 	b	340a8 <decode_prompt_string@@Base+0x288>
--
   344d8:	f9400000 	ldr	x0, [x0]
   344dc:	94002d31 	bl	3f9a0 <base_pathname@@Base>
   344e0:	aa0003f3 	mov	x19, x0
   344e4:	f9448a83 	ldr	x3, [x20, #2320]
   344e8:	b9405342 	ldr	w2, [x26, #80]
   344ec:	b9400061 	ldr	w1, [x3]
   344f0:	2a010042 	orr	w2, w2, w1
   344f4:	34001782 	cbz	w2, 347e4 <decode_prompt_string@@Base+0x9c4>
   344f8:	9402002e 	bl	b45b0 <sh_backslash_quote_for_double_quotes@@Base>
   344fc:	aa0003e8 	mov	x8, x0
   34500:	17fffeea 	b	340a8 <decode_prompt_string@@Base+0x288>
   34504:	b00007d3 	adrp	x19, 12d000 <o_options@@Base+0x2220>
   34508:	f9444e79 	ldr	x25, [x19, #2200]
   3450c:	f9400b20 	ldr	x0, [x25, #16]
   34510:	b4001a40 	cbz	x0, 34858 <decode_prompt_string@@Base+0xa38>
   34514:	97ffe92b 	bl	2e9c0 <strlen@plt>
   34518:	91000400 	add	x0, x0, #0x1
   3451c:	94017389 	bl	91340 <xmalloc@@Base>
   34520:	f9444e73 	ldr	x19, [x19, #2200]
   34524:	f9400a61 	ldr	x1, [x19, #16]
[31m   34528:	97ffeb8e 	bl	2f360 <strcpy@plt>[0m
   3452c:	aa0003e8 	mov	x8, x0
   34530:	17fffede 	b	340a8 <decode_prompt_string@@Base+0x288>
--
   34698:	aa0103fb 	mov	x27, x1
   3469c:	17fffe34 	b	33f6c <decode_prompt_string@@Base+0x14c>
   346a0:	aa0803e0 	mov	x0, x8
   346a4:	52800479 	mov	w25, #0x23                  	// #35
   346a8:	17ffffd1 	b	345ec <decode_prompt_string@@Base+0x7cc>
   346ac:	aa1c03fb 	mov	x27, x28
   346b0:	52800b81 	mov	w1, #0x5c                  	// #92
   346b4:	aa0003fc 	mov	x28, x0
   346b8:	79000101 	strh	w1, [x8]
   346bc:	17fffe2c 	b	33f6c <decode_prompt_string@@Base+0x14c>
   346c0:	aa1903e0 	mov	x0, x25
   346c4:	90000562 	adrp	x2, e0000 <rl_insert_close@@Base+0x290>
   346c8:	d2801001 	mov	x1, #0x80                  	// #128
   346cc:	91274042 	add	x2, x2, #0x9d0
   346d0:	97ffe920 	bl	2eb50 <strftime@plt>
   346d4:	b90077e0 	str	w0, [sp, #116]
   346d8:	17fffeb2 	b	341a0 <decode_prompt_string@@Base+0x380>
   346dc:	b00007c1 	adrp	x1, 12d000 <o_options@@Base+0x2220>
   346e0:	f947c821 	ldr	x1, [x1, #3984]
   346e4:	f9400021 	ldr	x1, [x1]
[31m   346e8:	97ffeb1e 	bl	2f360 <strcpy@plt>[0m
   346ec:	f9403fe8 	ldr	x8, [sp, #120]
   346f0:	17fffe6e 	b	340a8 <decode_prompt_string@@Base+0x288>
--
   34768:	d2820003 	mov	x3, #0x1000                	// #4096
   3476c:	97ffeba9 	bl	2f610 <__memmove_chk@plt>
   34770:	17fffed5 	b	342c4 <decode_prompt_string@@Base+0x4a4>
   34774:	f94037e0 	ldr	x0, [sp, #104]
   34778:	d2820001 	mov	x1, #0x1000                	// #4096
   3477c:	97ffe881 	bl	2e980 <getcwd@plt>
   34780:	b4000b00 	cbz	x0, 348e0 <decode_prompt_string@@Base+0xac0>
   34784:	f94037e0 	ldr	x0, [sp, #104]
   34788:	97ffe88e 	bl	2e9c0 <strlen@plt>
   3478c:	17fffec1 	b	34290 <decode_prompt_string@@Base+0x470>
   34790:	52800360 	mov	w0, #0x1b                  	// #27
   34794:	39000100 	strb	w0, [x8]
   34798:	17fffe99 	b	341fc <decode_prompt_string@@Base+0x3dc>
   3479c:	f94037f9 	ldr	x25, [sp, #104]
   347a0:	aa1c03fb 	mov	x27, x28
   347a4:	aa1903e0 	mov	x0, x25
   347a8:	97ffe886 	bl	2e9c0 <strlen@plt>
   347ac:	91000400 	add	x0, x0, #0x1
   347b0:	940172e4 	bl	91340 <xmalloc@@Base>
   347b4:	aa1903e1 	mov	x1, x25
[31m   347b8:	97ffeaea 	bl	2f360 <strcpy@plt>[0m
   347bc:	aa0003e8 	mov	x8, x0
   347c0:	17fffde9 	b	33f64 <decode_prompt_string@@Base+0x144>
   347c4:	aa1903e0 	mov	x0, x25
   347c8:	97ffe87e 	bl	2e9c0 <strlen@plt>
   347cc:	91000400 	add	x0, x0, #0x1
   347d0:	940172dc 	bl	91340 <xmalloc@@Base>
   347d4:	aa1903e1 	mov	x1, x25
[31m   347d8:	97ffeae2 	bl	2f360 <strcpy@plt>[0m
   347dc:	aa0003e8 	mov	x8, x0
   347e0:	17fffe9d 	b	34254 <decode_prompt_string@@Base+0x434>
   347e4:	97ffe877 	bl	2e9c0 <strlen@plt>
   347e8:	91000400 	add	x0, x0, #0x1
   347ec:	940172d5 	bl	91340 <xmalloc@@Base>
   347f0:	aa1303e1 	mov	x1, x19
[31m   347f4:	97ffeadb 	bl	2f360 <strcpy@plt>[0m
   347f8:	aa0003e8 	mov	x8, x0
   347fc:	17fffe2b 	b	340a8 <decode_prompt_string@@Base+0x288>
--
   35bd8:	52800004 	mov	w4, #0x0                   	// #0
   35bdc:	f90047e6 	str	x6, [sp, #136]
   35be0:	94000448 	bl	36d00 <read_secondary_line@@Base+0x1880>
   35be4:	aa0003fc 	mov	x28, x0
   35be8:	f94047e6 	ldr	x6, [sp, #136]
   35bec:	910540c1 	add	x1, x6, #0x150
   35bf0:	b94108c2 	ldr	w2, [x6, #264]
   35bf4:	eb01001f 	cmp	x0, x1
   35bf8:	51000442 	sub	w2, w2, #0x1
   35bfc:	b90108c2 	str	w2, [x6, #264]
   35c00:	54006440 	b.eq	36888 <read_secondary_line@@Base+0x1408>  // b.none
   35c04:	3500451a 	cbnz	w26, 364a4 <read_secondary_line@@Base+0x1024>
   35c08:	b940e3e2 	ldr	w2, [sp, #224]
   35c0c:	2a1803f9 	mov	w25, w24
   35c10:	34004462 	cbz	w2, 3649c <read_secondary_line@@Base+0x101c>
   35c14:	0b190042 	add	w2, w2, w25
   35c18:	6b14005f 	cmp	w2, w20
   35c1c:	5400658a 	b.ge	368cc <read_secondary_line@@Base+0x144c>  // b.tcont
   35c20:	8b39c260 	add	x0, x19, w25, sxtw
   35c24:	aa1c03e1 	mov	x1, x28
[31m   35c28:	97ffe5ce 	bl	2f360 <strcpy@plt>[0m
   35c2c:	b940e3e0 	ldr	w0, [sp, #224]
   35c30:	0b000339 	add	w25, w25, w0
--
   368f8:	2a1803f9 	mov	w25, w24
   368fc:	17fffce1 	b	35c80 <read_secondary_line@@Base+0x800>
   36900:	b94083e0 	ldr	w0, [sp, #128]
   36904:	51000400 	sub	w0, w0, #0x1
   36908:	b90083e0 	str	w0, [sp, #128]
   3690c:	f9405fe1 	ldr	x1, [sp, #184]
   36910:	52800000 	mov	w0, #0x0                   	// #0
   36914:	97fffbab 	bl	357c0 <read_secondary_line@@Base+0x340>
   36918:	aa0003f9 	mov	x25, x0
   3691c:	9103e2a0 	add	x0, x21, #0xf8
   36920:	91054000 	add	x0, x0, #0x150
   36924:	eb00033f 	cmp	x25, x0
   36928:	54001aa0 	b.eq	36c7c <read_secondary_line@@Base+0x17fc>  // b.none
   3692c:	b940e3e0 	ldr	w0, [sp, #224]
   36930:	340001a0 	cbz	w0, 36964 <read_secondary_line@@Base+0x14e4>
   36934:	0b000300 	add	w0, w24, w0
   36938:	6b14001f 	cmp	w0, w20
   3693c:	5400126a 	b.ge	36b88 <read_secondary_line@@Base+0x1708>  // b.tcont
   36940:	aa1903e1 	mov	x1, x25
   36944:	8b38c260 	add	x0, x19, w24, sxtw
[31m   36948:	97ffe286 	bl	2f360 <strcpy@plt>[0m
   3694c:	b940e3fc 	ldr	w28, [sp, #224]
   36950:	0b1c0300 	add	w0, w24, w28
--
   371ec:	b90093e9 	str	w9, [sp, #144]
   371f0:	97fffec4 	bl	36d00 <read_secondary_line@@Base+0x1880>
   371f4:	aa0003e2 	mov	x2, x0
   371f8:	f94043eb 	ldr	x11, [sp, #128]
   371fc:	f90043e2 	str	x2, [sp, #128]
   37200:	91054160 	add	x0, x11, #0x150
   37204:	b9410961 	ldr	w1, [x11, #264]
   37208:	eb00005f 	cmp	x2, x0
   3720c:	51000421 	sub	w1, w1, #0x1
   37210:	b9010961 	str	w1, [x11, #264]
   37214:	54004be0 	b.eq	37b90 <read_secondary_line@@Base+0x2710>  // b.none
   37218:	b94093e9 	ldr	w9, [sp, #144]
   3721c:	35002fe9 	cbnz	w9, 37818 <read_secondary_line@@Base+0x2398>
   37220:	b940c3e2 	ldr	w2, [sp, #192]
   37224:	34002ae2 	cbz	w2, 37780 <read_secondary_line@@Base+0x2300>
   37228:	0b020362 	add	w2, w27, w2
   3722c:	6b14005f 	cmp	w2, w20
   37230:	5400364a 	b.ge	378f8 <read_secondary_line@@Base+0x2478>  // b.tcont
   37234:	f94043e1 	ldr	x1, [sp, #128]
   37238:	8b3bc260 	add	x0, x19, w27, sxtw
[31m   3723c:	97ffe049 	bl	2f360 <strcpy@plt>[0m
   37240:	b940c3e0 	ldr	w0, [sp, #192]
   37244:	0b00037b 	add	w27, w27, w0
--
   375f4:	340010e0 	cbz	w0, 37810 <read_secondary_line@@Base+0x2390>
   375f8:	b9409be4 	ldr	w4, [sp, #152]
   375fc:	52800c02 	mov	w2, #0x60                  	// #96
   37600:	f94047e3 	ldr	x3, [sp, #136]
   37604:	2a0203e1 	mov	w1, w2
   37608:	52800000 	mov	w0, #0x0                   	// #0
   3760c:	97fffdbd 	bl	36d00 <read_secondary_line@@Base+0x1880>
   37610:	aa0003e2 	mov	x2, x0
   37614:	9103e2c1 	add	x1, x22, #0xf8
   37618:	f90043e2 	str	x2, [sp, #128]
   3761c:	91054020 	add	x0, x1, #0x150
   37620:	eb00005f 	cmp	x2, x0
   37624:	54003200 	b.eq	37c64 <read_secondary_line@@Base+0x27e4>  // b.none
   37628:	b940c3e0 	ldr	w0, [sp, #192]
   3762c:	340014a0 	cbz	w0, 378c0 <read_secondary_line@@Base+0x2440>
   37630:	0b1b0000 	add	w0, w0, w27
   37634:	6b14001f 	cmp	w0, w20
   37638:	54002caa 	b.ge	37bcc <read_secondary_line@@Base+0x274c>  // b.tcont
   3763c:	f94043e1 	ldr	x1, [sp, #128]
   37640:	8b3bc260 	add	x0, x19, w27, sxtw
[31m   37644:	97ffdf47 	bl	2f360 <strcpy@plt>[0m
   37648:	b940c3e0 	ldr	w0, [sp, #192]
   3764c:	0b00037b 	add	w27, w27, w0
--
   381cc:	54005e20 	b.eq	38d90 <read_secondary_line@@Base+0x3910>  // b.none
   381d0:	b940abe2 	ldr	w2, [sp, #168]
   381d4:	b94172c4 	ldr	w4, [x22, #368]
   381d8:	11000842 	add	w2, w2, #0x2
   381dc:	0b130042 	add	w2, w2, w19
   381e0:	6b04005f 	cmp	w2, w4
   381e4:	f940c2c0 	ldr	x0, [x22, #384]
   381e8:	5400012b 	b.lt	3820c <read_secondary_line@@Base+0x2d8c>  // b.tstop
   381ec:	4b040041 	sub	w1, w2, w4
   381f0:	11080084 	add	w4, w4, #0x200
   381f4:	12175821 	and	w1, w1, #0xfffffe00
   381f8:	0b040021 	add	w1, w1, w4
   381fc:	b90172c1 	str	w1, [x22, #368]
   38200:	93407c21 	sxtw	x1, w1
   38204:	94016463 	bl	91390 <xrealloc@@Base>
   38208:	f900c2c0 	str	x0, [x22, #384]
   3820c:	11000676 	add	w22, w19, #0x1
   38210:	3833c817 	strb	w23, [x0, w19, sxtw]
   38214:	aa1a03e1 	mov	x1, x26
   38218:	8b36c000 	add	x0, x0, w22, sxtw
[31m   3821c:	97ffdc51 	bl	2f360 <strcpy@plt>[0m
   38220:	b940abf3 	ldr	w19, [sp, #168]
   38224:	7101829f 	cmp	w20, #0x60
--
   3847c:	b940abe2 	ldr	w2, [sp, #168]
   38480:	b94172c3 	ldr	w3, [x22, #368]
   38484:	11000842 	add	w2, w2, #0x2
   38488:	0b130042 	add	w2, w2, w19
   3848c:	6b03005f 	cmp	w2, w3
   38490:	f940c2c0 	ldr	x0, [x22, #384]
   38494:	5400012b 	b.lt	384b8 <read_secondary_line@@Base+0x3038>  // b.tstop
   38498:	4b030041 	sub	w1, w2, w3
   3849c:	11080063 	add	w3, w3, #0x200
   384a0:	12175821 	and	w1, w1, #0xfffffe00
   384a4:	0b030021 	add	w1, w1, w3
   384a8:	b90172c1 	str	w1, [x22, #368]
   384ac:	93407c21 	sxtw	x1, w1
   384b0:	940163b8 	bl	91390 <xrealloc@@Base>
   384b4:	f900c2c0 	str	x0, [x22, #384]
   384b8:	11000676 	add	w22, w19, #0x1
   384bc:	3833c817 	strb	w23, [x0, w19, sxtw]
   384c0:	aa1903e1 	mov	x1, x25
   384c4:	5280001b 	mov	w27, #0x0                   	// #0
   384c8:	8b36c000 	add	x0, x0, w22, sxtw
[31m   384cc:	97ffdba5 	bl	2f360 <strcpy@plt>[0m
   384d0:	b940abf3 	ldr	w19, [sp, #168]
   384d4:	aa1903e0 	mov	x0, x25
--
   38768:	b9408be0 	ldr	w0, [sp, #136]
   3876c:	52000000 	eor	w0, w0, #0x1
   38770:	b9419421 	ldr	w1, [x1, #404]
   38774:	12000000 	and	w0, w0, #0x1
   38778:	7100003f 	cmp	w1, #0x0
   3877c:	1a9f1000 	csel	w0, w0, wzr, ne  // ne = any
   38780:	3500b460 	cbnz	w0, 39e0c <read_secondary_line@@Base+0x498c>
   38784:	f9448ae3 	ldr	x3, [x23, #2320]
   38788:	b9400060 	ldr	w0, [x3]
   3878c:	34007060 	cbz	w0, 39598 <read_secondary_line@@Base+0x4118>
   38790:	11000673 	add	w19, w19, #0x1
   38794:	94001f97 	bl	405f0 <alloc_word_desc@@Base>
   38798:	aa0003f7 	mov	x23, x0
   3879c:	93407e60 	sxtw	x0, w19
   387a0:	940162e8 	bl	91340 <xmalloc@@Base>
   387a4:	9103e2a1 	add	x1, x21, #0xf8
   387a8:	f90002e0 	str	x0, [x23]
   387ac:	b9000aff 	str	wzr, [x23, #8]
   387b0:	f940c033 	ldr	x19, [x1, #384]
   387b4:	aa1303e1 	mov	x1, x19
[31m   387b8:	97ffdaea 	bl	2f360 <strcpy@plt>[0m
   387bc:	34000099 	cbz	w25, 387cc <read_secondary_line@@Base+0x334c>
   387c0:	b9400ae0 	ldr	w0, [x23, #8]
--
   3897c:	5400016b 	b.lt	389a8 <read_secondary_line@@Base+0x3528>  // b.tstop
   38980:	4b030041 	sub	w1, w2, w3
   38984:	11080063 	add	w3, w3, #0x200
   38988:	12175821 	and	w1, w1, #0xfffffe00
   3898c:	b9006be6 	str	w6, [sp, #104]
   38990:	0b030021 	add	w1, w1, w3
   38994:	b90172c1 	str	w1, [x22, #368]
   38998:	93407c21 	sxtw	x1, w1
   3899c:	9401627d 	bl	91390 <xrealloc@@Base>
   389a0:	b9406be6 	ldr	w6, [sp, #104]
   389a4:	f900c2c0 	str	x0, [x22, #384]
   389a8:	11000663 	add	w3, w19, #0x1
   389ac:	3833c817 	strb	w23, [x0, w19, sxtw]
   389b0:	11000a73 	add	w19, w19, #0x2
   389b4:	aa1c03e1 	mov	x1, x28
   389b8:	5280003a 	mov	w26, #0x1                   	// #1
   389bc:	5280001b 	mov	w27, #0x0                   	// #0
   389c0:	3823c806 	strb	w6, [x0, w3, sxtw]
   389c4:	8b33c000 	add	x0, x0, w19, sxtw
   389c8:	2a1a03f9 	mov	w25, w26
[31m   389cc:	97ffda65 	bl	2f360 <strcpy@plt>[0m
   389d0:	b940abe1 	ldr	w1, [sp, #168]
   389d4:	aa1c03e0 	mov	x0, x28
--
   39080:	f940c2c0 	ldr	x0, [x22, #384]
   39084:	5400012b 	b.lt	390a8 <read_secondary_line@@Base+0x3c28>  // b.tstop
   39088:	4b020021 	sub	w1, w1, w2
   3908c:	11080042 	add	w2, w2, #0x200
   39090:	12175821 	and	w1, w1, #0xfffffe00
   39094:	0b020021 	add	w1, w1, w2
   39098:	b90172c1 	str	w1, [x22, #368]
   3909c:	93407c21 	sxtw	x1, w1
   390a0:	940160bc 	bl	91390 <xrealloc@@Base>
   390a4:	f900c2c0 	str	x0, [x22, #384]
   390a8:	11000662 	add	w2, w19, #0x1
   390ac:	3833c817 	strb	w23, [x0, w19, sxtw]
   390b0:	52800503 	mov	w3, #0x28                  	// #40
   390b4:	11000a73 	add	w19, w19, #0x2
   390b8:	aa1403e1 	mov	x1, x20
   390bc:	b9006bff 	str	wzr, [sp, #104]
   390c0:	3822c803 	strb	w3, [x0, w2, sxtw]
   390c4:	8b33c000 	add	x0, x0, w19, sxtw
   390c8:	52800019 	mov	w25, #0x0                   	// #0
   390cc:	5280003a 	mov	w26, #0x1                   	// #1
[31m   390d0:	97ffd8a4 	bl	2f360 <strcpy@plt>[0m
   390d4:	b940abe1 	ldr	w1, [sp, #168]
   390d8:	aa1403e0 	mov	x0, x20
--
   392a4:	b940afe1 	ldr	w1, [sp, #172]
   392a8:	11000821 	add	w1, w1, #0x2
   392ac:	b900afe1 	str	w1, [sp, #172]
   392b0:	9103e2b6 	add	x22, x21, #0xf8
   392b4:	11000421 	add	w1, w1, #0x1
   392b8:	0b130021 	add	w1, w1, w19
   392bc:	b94172c2 	ldr	w2, [x22, #368]
   392c0:	f940c2c0 	ldr	x0, [x22, #384]
   392c4:	6b02003f 	cmp	w1, w2
   392c8:	5400012b 	b.lt	392ec <read_secondary_line@@Base+0x3e6c>  // b.tstop
   392cc:	4b020021 	sub	w1, w1, w2
   392d0:	11080042 	add	w2, w2, #0x200
   392d4:	12175821 	and	w1, w1, #0xfffffe00
   392d8:	0b020021 	add	w1, w1, w2
   392dc:	b90172c1 	str	w1, [x22, #368]
   392e0:	93407c21 	sxtw	x1, w1
   392e4:	9401602b 	bl	91390 <xrealloc@@Base>
   392e8:	f900c2c0 	str	x0, [x22, #384]
   392ec:	aa1403e1 	mov	x1, x20
   392f0:	8b33c000 	add	x0, x0, w19, sxtw
[31m   392f4:	97ffd81b 	bl	2f360 <strcpy@plt>[0m
   392f8:	b9006bff 	str	wzr, [sp, #104]
   392fc:	b940afe1 	ldr	w1, [sp, #172]
--
   39380:	b94172c2 	ldr	w2, [x22, #368]
   39384:	11000821 	add	w1, w1, #0x2
   39388:	0b130021 	add	w1, w1, w19
   3938c:	6b02003f 	cmp	w1, w2
   39390:	f940c2c0 	ldr	x0, [x22, #384]
   39394:	5400012b 	b.lt	393b8 <read_secondary_line@@Base+0x3f38>  // b.tstop
   39398:	4b020021 	sub	w1, w1, w2
   3939c:	11080042 	add	w2, w2, #0x200
   393a0:	12175821 	and	w1, w1, #0xfffffe00
   393a4:	0b020021 	add	w1, w1, w2
   393a8:	b90172c1 	str	w1, [x22, #368]
   393ac:	93407c21 	sxtw	x1, w1
   393b0:	94015ff8 	bl	91390 <xrealloc@@Base>
   393b4:	f900c2c0 	str	x0, [x22, #384]
   393b8:	11000676 	add	w22, w19, #0x1
   393bc:	52800b61 	mov	w1, #0x5b                  	// #91
   393c0:	3833c801 	strb	w1, [x0, w19, sxtw]
   393c4:	aa1403e1 	mov	x1, x20
   393c8:	8b36c000 	add	x0, x0, w22, sxtw
   393cc:	b9006bff 	str	wzr, [sp, #104]
[31m   393d0:	97ffd7e4 	bl	2f360 <strcpy@plt>[0m
   393d4:	b940abf3 	ldr	w19, [sp, #168]
   393d8:	aa1403e0 	mov	x0, x20
--
   39be0:	93407c21 	sxtw	x1, w1
   39be4:	94015deb 	bl	91390 <xrealloc@@Base>
   39be8:	b9410a81 	ldr	w1, [x20, #264]
   39bec:	b9406be6 	ldr	w6, [sp, #104]
   39bf0:	f9008280 	str	x0, [x20, #256]
   39bf4:	17fffd88 	b	39214 <read_secondary_line@@Base+0x3d94>
   39bf8:	710420bf 	cmp	w5, #0x108
   39bfc:	54000061 	b.ne	39c08 <read_secondary_line@@Base+0x4788>  // b.any
   39c00:	7101f35f 	cmp	w26, #0x7c
   39c04:	54ffc9c1 	b.ne	3953c <read_secondary_line@@Base+0x40bc>  // b.any
   39c08:	11000673 	add	w19, w19, #0x1
   39c0c:	94001a79 	bl	405f0 <alloc_word_desc@@Base>
   39c10:	aa0003f7 	mov	x23, x0
   39c14:	93407e60 	sxtw	x0, w19
   39c18:	94015dca 	bl	91340 <xmalloc@@Base>
   39c1c:	9103e2a1 	add	x1, x21, #0xf8
   39c20:	f90002e0 	str	x0, [x23]
   39c24:	b9000aff 	str	wzr, [x23, #8]
   39c28:	f940c033 	ldr	x19, [x1, #384]
   39c2c:	aa1303e1 	mov	x1, x19
[31m   39c30:	97ffd5cc 	bl	2f360 <strcpy@plt>[0m
   39c34:	17fffaeb 	b	387e0 <read_secondary_line@@Base+0x3360>
   39c38:	9103e2a2 	add	x2, x21, #0xf8
--
   39ca4:	17fffafc 	b	38894 <read_secondary_line@@Base+0x3414>
   39ca8:	394006e0 	ldrb	w0, [x23, #1]
   39cac:	7100b41f 	cmp	w0, #0x2d
   39cb0:	54ffbec1 	b.ne	39488 <read_secondary_line@@Base+0x4008>  // b.any
   39cb4:	39400ae0 	ldrb	w0, [x23, #2]
   39cb8:	35ffbe80 	cbnz	w0, 39488 <read_secondary_line@@Base+0x4008>
   39cbc:	52802314 	mov	w20, #0x118                 	// #280
   39cc0:	a94363f7 	ldp	x23, x24, [sp, #48]
   39cc4:	a9446bf9 	ldp	x25, x26, [sp, #64]
   39cc8:	a94573fb 	ldp	x27, x28, [sp, #80]
   39ccc:	17fffcb3 	b	38f98 <read_secondary_line@@Base+0x3b18>
   39cd0:	94001a48 	bl	405f0 <alloc_word_desc@@Base>
   39cd4:	11000673 	add	w19, w19, #0x1
   39cd8:	aa0003f7 	mov	x23, x0
   39cdc:	93407e60 	sxtw	x0, w19
   39ce0:	94015d98 	bl	91340 <xmalloc@@Base>
   39ce4:	f940c313 	ldr	x19, [x24, #384]
   39ce8:	f90002e0 	str	x0, [x23]
   39cec:	b9000aff 	str	wzr, [x23, #8]
   39cf0:	aa1303e1 	mov	x1, x19
[31m   39cf4:	97ffd59b 	bl	2f360 <strcpy@plt>[0m
   39cf8:	17fffaba 	b	387e0 <read_secondary_line@@Base+0x3360>
   39cfc:	394006e3 	ldrb	w3, [x23, #1]
--
   39e14:	f947a000 	ldr	x0, [x0, #3904]
   39e18:	b9400004 	ldr	w4, [x0]
   39e1c:	370fe4a4 	tbnz	w4, #1, 39ab0 <read_secondary_line@@Base+0x4630>
   39e20:	17ffff0f 	b	39a5c <read_secondary_line@@Base+0x45dc>
   39e24:	9103e2a0 	add	x0, x21, #0xf8
   39e28:	f940c000 	ldr	x0, [x0, #384]
   39e2c:	94010575 	bl	7b400 <find_alias@@Base>
   39e30:	aa0003f8 	mov	x24, x0
   39e34:	b4003440 	cbz	x0, 3a4bc <read_secondary_line@@Base+0x503c>
   39e38:	39404000 	ldrb	w0, [x0, #16]
   39e3c:	37083400 	tbnz	w0, #1, 3a4bc <read_secondary_line@@Base+0x503c>
   39e40:	f9400713 	ldr	x19, [x24, #8]
   39e44:	aa1303e0 	mov	x0, x19
   39e48:	97ffd2de 	bl	2e9c0 <strlen@plt>
   39e4c:	aa0003f4 	mov	x20, x0
   39e50:	11000800 	add	w0, w0, #0x2
   39e54:	93407c00 	sxtw	x0, w0
   39e58:	94015d3a 	bl	91340 <xmalloc@@Base>
   39e5c:	aa1303e1 	mov	x1, x19
   39e60:	aa0003f3 	mov	x19, x0
[31m   39e64:	97ffd53f 	bl	2f360 <strcpy@plt>[0m
   39e68:	aa1303e0 	mov	x0, x19
   39e6c:	aa1803e2 	mov	x2, x24
--
   39fe0:	110802e1 	add	w1, w23, #0x200
   39fe4:	12175817 	and	w23, w0, #0xfffffe00
   39fe8:	0b0102f7 	add	w23, w23, w1
   39fec:	aa1403e0 	mov	x0, x20
   39ff0:	f90037e2 	str	x2, [sp, #104]
   39ff4:	93407ee1 	sxtw	x1, w23
   39ff8:	b9017057 	str	w23, [x2, #368]
   39ffc:	94015ce5 	bl	91390 <xrealloc@@Base>
   3a000:	aa0003f4 	mov	x20, x0
   3a004:	f94037e2 	ldr	x2, [sp, #104]
   3a008:	f900c040 	str	x0, [x2, #384]
   3a00c:	11000660 	add	w0, w19, #0x1
   3a010:	528007a1 	mov	w1, #0x3d                  	// #61
   3a014:	38366a81 	strb	w1, [x20, x22]
   3a018:	11000a76 	add	w22, w19, #0x2
   3a01c:	52800501 	mov	w1, #0x28                  	// #40
   3a020:	3820ca81 	strb	w1, [x20, w0, sxtw]
   3a024:	8b36c280 	add	x0, x20, w22, sxtw
   3a028:	b4002b9c 	cbz	x28, 3a598 <read_secondary_line@@Base+0x5118>
   3a02c:	aa1c03e1 	mov	x1, x28
[31m   3a030:	97ffd4cc 	bl	2f360 <strcpy@plt>[0m
   3a034:	b940abe2 	ldr	w2, [sp, #168]
   3a038:	52800521 	mov	w1, #0x29                  	// #41
--
   3a4a4:	a94573fb 	ldp	x27, x28, [sp, #80]
   3a4a8:	121f7800 	and	w0, w0, #0xfffffffe
   3a4ac:	b9000340 	str	w0, [x26]
   3a4b0:	b9018c62 	str	w2, [x3, #396]
   3a4b4:	a9446bf9 	ldp	x25, x26, [sp, #64]
   3a4b8:	17fffab8 	b	38f98 <read_secondary_line@@Base+0x3b18>
   3a4bc:	d0000780 	adrp	x0, 12c000 <o_options@@Base+0x1220>
   3a4c0:	f947a000 	ldr	x0, [x0, #3904]
   3a4c4:	b9400004 	ldr	w4, [x0]
   3a4c8:	17fffd7b 	b	39ab4 <read_secondary_line@@Base+0x4634>
   3a4cc:	528021b4 	mov	w20, #0x10d                 	// #269
   3a4d0:	a94363f7 	ldp	x23, x24, [sp, #48]
   3a4d4:	a9446bf9 	ldp	x25, x26, [sp, #64]
   3a4d8:	a94573fb 	ldp	x27, x28, [sp, #80]
   3a4dc:	17fffaaf 	b	38f98 <read_secondary_line@@Base+0x3b18>
   3a4e0:	9103e2b5 	add	x21, x21, #0xf8
   3a4e4:	52802374 	mov	w20, #0x11b                 	// #283
   3a4e8:	f94002e0 	ldr	x0, [x23]
   3a4ec:	f940c2a1 	ldr	x1, [x21, #384]
   3a4f0:	91000421 	add	x1, x1, #0x1
[31m   3a4f4:	97ffd39b 	bl	2f360 <strcpy@plt>[0m
   3a4f8:	f9467273 	ldr	x19, [x19, #3296]
   3a4fc:	a9446bf9 	ldp	x25, x26, [sp, #64]
--
   3e314:	91360294 	add	x20, x20, #0xd80
   3e318:	a90363f7 	stp	x23, x24, [sp, #48]
   3e31c:	aa0103f7 	mov	x23, x1
   3e320:	f9432a62 	ldr	x2, [x19, #1616]
   3e324:	910103f8 	add	x24, sp, #0x40
   3e328:	a9025bf5 	stp	x21, x22, [sp, #32]
   3e32c:	aa0003f5 	mov	x21, x0
   3e330:	f9400041 	ldr	x1, [x2]
   3e334:	f90097e1 	str	x1, [sp, #296]
   3e338:	d2800001 	mov	x1, #0x0                   	// #0
   3e33c:	aa1803e0 	mov	x0, x24
   3e340:	97ffff28 	bl	3dfe0 <save_parser_state@@Base>
   3e344:	aa1403e0 	mov	x0, x20
   3e348:	9400450a 	bl	4f770 <get_string_value@@Base>
   3e34c:	b4000520 	cbz	x0, 3e3f0 <execute_variable_command@@Base+0xf0>
   3e350:	aa0003f6 	mov	x22, x0
   3e354:	97ffc19b 	bl	2e9c0 <strlen@plt>
   3e358:	91000400 	add	x0, x0, #0x1
   3e35c:	94014bf9 	bl	91340 <xmalloc@@Base>
   3e360:	aa1603e1 	mov	x1, x22
[31m   3e364:	97ffc3ff 	bl	2f360 <strcpy@plt>[0m
   3e368:	aa0003f6 	mov	x22, x0
   3e36c:	aa1503e0 	mov	x0, x21
   3e370:	97ffc194 	bl	2e9c0 <strlen@plt>
   3e374:	91000400 	add	x0, x0, #0x1
   3e378:	94014bf2 	bl	91340 <xmalloc@@Base>
   3e37c:	aa1503e1 	mov	x1, x21
[31m   3e380:	97ffc3f8 	bl	2f360 <strcpy@plt>[0m
   3e384:	aa1703e1 	mov	x1, x23
   3e388:	528000a2 	mov	w2, #0x5                   	// #5
--
   3e3b4:	9103e000 	add	x0, x0, #0xf8
   3e3b8:	b9412401 	ldr	w1, [x0, #292]
   3e3bc:	7100283f 	cmp	w1, #0xa
   3e3c0:	54000041 	b.ne	3e3c8 <execute_variable_command@@Base+0xc8>  // b.any
   3e3c4:	b901241f 	str	wzr, [x0, #292]
   3e3c8:	f9432a73 	ldr	x19, [x19, #1616]
   3e3cc:	f94097e1 	ldr	x1, [sp, #296]
   3e3d0:	f9400260 	ldr	x0, [x19]
   3e3d4:	ca000020 	eor	x0, x1, x0
   3e3d8:	b50002c0 	cbnz	x0, 3e430 <execute_variable_command@@Base+0x130>
   3e3dc:	a94153f3 	ldp	x19, x20, [sp, #16]
   3e3e0:	a9425bf5 	ldp	x21, x22, [sp, #32]
   3e3e4:	a94363f7 	ldp	x23, x24, [sp, #48]
   3e3e8:	a8d37bfd 	ldp	x29, x30, [sp], #304
   3e3ec:	d65f03c0 	ret
   3e3f0:	aa1503e0 	mov	x0, x21
   3e3f4:	97ffc173 	bl	2e9c0 <strlen@plt>
   3e3f8:	91000400 	add	x0, x0, #0x1
   3e3fc:	94014bd1 	bl	91340 <xmalloc@@Base>
   3e400:	aa1503e1 	mov	x1, x21
[31m   3e404:	97ffc3d7 	bl	2f360 <strcpy@plt>[0m
   3e408:	aa1703e1 	mov	x1, x23
   3e40c:	528000a2 	mov	w2, #0x5                   	// #5
--
   3fea4:	f2e08000 	movk	x0, #0x400, lsl #48
   3fea8:	14000008 	b	3fec8 <bash_tilde_find_word@@Base+0x58>
   3feac:	7100e89f 	cmp	w4, #0x3a
   3feb0:	7a4008c4 	ccmp	w6, #0x0, #0x4, eq  // eq = none
   3feb4:	54000321 	b.ne	3ff18 <bash_tilde_find_word@@Base+0xa8>  // b.any
   3feb8:	38401ca4 	ldrb	w4, [x5, #1]!
   3febc:	7100bc9f 	cmp	w4, #0x2f
   3fec0:	7a401884 	ccmp	w4, #0x0, #0x4, ne  // ne = any
   3fec4:	540002a0 	b.eq	3ff18 <bash_tilde_find_word@@Base+0xa8>  // b.none
   3fec8:	51008883 	sub	w3, w4, #0x22
   3fecc:	12001c63 	and	w3, w3, #0xff
   3fed0:	7100e87f 	cmp	w3, #0x3a
   3fed4:	54ffff28 	b.hi	3feb8 <bash_tilde_find_word@@Base+0x48>  // b.pmore
   3fed8:	9ac32403 	lsr	x3, x0, x3
   3fedc:	3607fe83 	tbz	w3, #0, 3feac <bash_tilde_find_word@@Base+0x3c>
   3fee0:	aa1403e0 	mov	x0, x20
   3fee4:	97ffbab7 	bl	2e9c0 <strlen@plt>
   3fee8:	91000400 	add	x0, x0, #0x1
   3feec:	94014515 	bl	91340 <xmalloc@@Base>
   3fef0:	aa1403e1 	mov	x1, x20
[31m   3fef4:	97ffbd1b 	bl	2f360 <strcpy@plt>[0m
   3fef8:	aa0003f4 	mov	x20, x0
   3fefc:	b4000055 	cbz	x21, 3ff04 <bash_tilde_find_word@@Base+0x94>
--
   40010:	f2e08005 	movk	x5, #0x400, lsl #48
   40014:	d2800021 	mov	x1, #0x1                   	// #1
   40018:	f2e08000 	movk	x0, #0x400, lsl #48
   4001c:	38401c83 	ldrb	w3, [x4, #1]!
   40020:	51008862 	sub	w2, w3, #0x22
   40024:	7100e87f 	cmp	w3, #0x3a
   40028:	12001c42 	and	w2, w2, #0xff
   4002c:	54000068 	b.hi	40038 <bash_tilde_expand@@Base+0xc8>  // b.pmore
   40030:	9ac324a3 	lsr	x3, x5, x3
   40034:	3707fbe3 	tbnz	w3, #0, 3ffb0 <bash_tilde_expand@@Base+0x40>
   40038:	7100e85f 	cmp	w2, #0x3a
   4003c:	54ffff08 	b.hi	4001c <bash_tilde_expand@@Base+0xac>  // b.pmore
   40040:	9ac22022 	lsl	x2, x1, x2
   40044:	ea00005f 	tst	x2, x0
   40048:	54fffea0 	b.eq	4001c <bash_tilde_expand@@Base+0xac>  // b.none
   4004c:	aa1303e0 	mov	x0, x19
   40050:	97ffba5c 	bl	2e9c0 <strlen@plt>
   40054:	91000400 	add	x0, x0, #0x1
   40058:	940144ba 	bl	91340 <xmalloc@@Base>
   4005c:	aa1303e1 	mov	x1, x19
[31m   40060:	97ffbcc0 	bl	2f360 <strcpy@plt>[0m
   40064:	b0000761 	adrp	x1, 12d000 <o_options@@Base+0x2220>
   40068:	aa0003f3 	mov	x19, x0
--
   400b4:	f9434442 	ldr	x2, [x2, #1672]
   400b8:	f9473c21 	ldr	x1, [x1, #3704]
   400bc:	a9420003 	ldp	x3, x0, [x0, #32]
   400c0:	f9000043 	str	x3, [x2]
   400c4:	f9000020 	str	x0, [x1]
   400c8:	17ffffcc 	b	3fff8 <bash_tilde_expand@@Base+0x88>
   400cc:	d503201f 	nop

00000000000400d0 <full_pathname@@Base>:
   400d0:	a9be7bfd 	stp	x29, x30, [sp, #-32]!
   400d4:	910003fd 	mov	x29, sp
   400d8:	f9000bf3 	str	x19, [sp, #16]
   400dc:	39400001 	ldrb	w1, [x0]
   400e0:	7101f83f 	cmp	w1, #0x7e
   400e4:	540002e0 	b.eq	40140 <full_pathname@@Base+0x70>  // b.none
   400e8:	aa0003f3 	mov	x19, x0
   400ec:	97ffba35 	bl	2e9c0 <strlen@plt>
   400f0:	91000400 	add	x0, x0, #0x1
   400f4:	94014493 	bl	91340 <xmalloc@@Base>
   400f8:	aa1303e1 	mov	x1, x19
[31m   400fc:	97ffbc99 	bl	2f360 <strcpy@plt>[0m
   40100:	aa0003f3 	mov	x19, x0
   40104:	39400260 	ldrb	w0, [x19]
--
   4062c:	94014345 	bl	91340 <xmalloc@@Base>
   40630:	f900001f 	str	xzr, [x0]
   40634:	b900081f 	str	wzr, [x0, #8]
   40638:	a8c17bfd 	ldp	x29, x30, [sp], #16
   4063c:	d65f03c0 	ret

0000000000040640 <make_bare_word@@Base>:
   40640:	a9be7bfd 	stp	x29, x30, [sp, #-32]!
   40644:	910003fd 	mov	x29, sp
   40648:	a90153f3 	stp	x19, x20, [sp, #16]
   4064c:	aa0003f4 	mov	x20, x0
   40650:	97ffffe8 	bl	405f0 <alloc_word_desc@@Base>
   40654:	aa0003f3 	mov	x19, x0
   40658:	39400280 	ldrb	w0, [x20]
   4065c:	34000180 	cbz	w0, 4068c <make_bare_word@@Base+0x4c>
   40660:	aa1403e0 	mov	x0, x20
   40664:	97ffb8d7 	bl	2e9c0 <strlen@plt>
   40668:	91000400 	add	x0, x0, #0x1
   4066c:	94014335 	bl	91340 <xmalloc@@Base>
   40670:	aa1403e1 	mov	x1, x20
[31m   40674:	97ffbb3b 	bl	2f360 <strcpy@plt>[0m
   40678:	f9000260 	str	x0, [x19]
   4067c:	aa1303e0 	mov	x0, x19
--
   41630:	b9402801 	ldr	w1, [x0, #40]
   41634:	361000e1 	tbz	w1, #2, 41650 <make_function_def@@Base+0x70>
   41638:	f9400400 	ldr	x0, [x0, #8]
   4163c:	b40000a0 	cbz	x0, 41650 <make_function_def@@Base+0x70>
   41640:	b9401001 	ldr	w1, [x0, #16]
   41644:	7100003f 	cmp	w1, #0x0
   41648:	540004ec 	b.gt	416e4 <make_function_def@@Base+0x104>
   4164c:	d503201f 	nop
   41650:	f9400e60 	ldr	x0, [x19, #24]
   41654:	b4000320 	cbz	x0, 416b8 <make_function_def@@Base+0xd8>
   41658:	f9400280 	ldr	x0, [x20]
   4165c:	aa1303e1 	mov	x1, x19
   41660:	52800002 	mov	w2, #0x0                   	// #0
   41664:	94003b17 	bl	502c0 <bind_function_def@@Base>
   41668:	f9400e60 	ldr	x0, [x19, #24]
   4166c:	b40000c0 	cbz	x0, 41684 <make_function_def@@Base+0xa4>
   41670:	97ffb4d4 	bl	2e9c0 <strlen@plt>
   41674:	91000400 	add	x0, x0, #0x1
   41678:	94013f32 	bl	91340 <xmalloc@@Base>
   4167c:	f9400e61 	ldr	x1, [x19, #24]
[31m   41680:	97ffb738 	bl	2f360 <strcpy@plt>[0m
   41684:	f9000e60 	str	x0, [x19, #24]
   41688:	d2800400 	mov	x0, #0x20                  	// #32
--
   41750:	f900081f 	str	xzr, [x0, #16]
   41754:	a8c27bfd 	ldp	x29, x30, [sp], #32
   41758:	d65f03c0 	ret
   4175c:	d503201f 	nop

0000000000041760 <make_coproc_command@@Base>:
   41760:	a9bd7bfd 	stp	x29, x30, [sp, #-48]!
   41764:	910003fd 	mov	x29, sp
   41768:	a90153f3 	stp	x19, x20, [sp, #16]
   4176c:	aa0003f4 	mov	x20, x0
   41770:	d2800300 	mov	x0, #0x18                  	// #24
   41774:	f90013f5 	str	x21, [sp, #32]
   41778:	aa0103f5 	mov	x21, x1
   4177c:	94013ef1 	bl	91340 <xmalloc@@Base>
   41780:	aa0003f3 	mov	x19, x0
   41784:	aa1403e0 	mov	x0, x20
   41788:	97ffb48e 	bl	2e9c0 <strlen@plt>
   4178c:	91000400 	add	x0, x0, #0x1
   41790:	94013eec 	bl	91340 <xmalloc@@Base>
   41794:	aa1403e1 	mov	x1, x20
[31m   41798:	97ffb6f2 	bl	2f360 <strcpy@plt>[0m
   4179c:	aa0003e1 	mov	x1, x0
   417a0:	52820020 	mov	w0, #0x1001                	// #4097
--
   44d24:	97fff96f 	bl	432e0 <print_arith_command@@Base>
   44d28:	52800820 	mov	w0, #0x41                  	// #65
   44d2c:	9400c7ed 	bl	76ce0 <signal_in_progress@@Base>
   44d30:	90000741 	adrp	x1, 12c000 <o_options@@Base+0x1220>
   44d34:	f9474421 	ldr	x1, [x1, #3720]
   44d38:	b9400021 	ldr	w1, [x1]
   44d3c:	2a010000 	orr	w0, w0, w1
   44d40:	35000200 	cbnz	w0, 44d80 <dispose_fd_bitmap@@Base+0x430>
   44d44:	90000755 	adrp	x21, 12c000 <o_options@@Base+0x1220>
   44d48:	f9477aa0 	ldr	x0, [x21, #3824]
   44d4c:	f9400000 	ldr	x0, [x0]
   44d50:	b4000040 	cbz	x0, 44d58 <dispose_fd_bitmap@@Base+0x408>
   44d54:	97ffa927 	bl	2f1f0 <free@plt>
   44d58:	90000756 	adrp	x22, 12c000 <o_options@@Base+0x1220>
   44d5c:	f9476ad6 	ldr	x22, [x22, #3792]
   44d60:	f94002c0 	ldr	x0, [x22]
   44d64:	97ffa717 	bl	2e9c0 <strlen@plt>
   44d68:	91000400 	add	x0, x0, #0x1
   44d6c:	94013175 	bl	91340 <xmalloc@@Base>
   44d70:	f94002c1 	ldr	x1, [x22]
[31m   44d74:	97ffa97b 	bl	2f360 <strcpy@plt>[0m
   44d78:	f9477ab5 	ldr	x21, [x21, #3824]
   44d7c:	f90002a0 	str	x0, [x21]
--
   45a34:	9400c98b 	bl	78060 <unwind_protect_mem@@Base>
   45a38:	b9401f80 	ldr	w0, [x28, #28]
   45a3c:	11000400 	add	w0, w0, #0x1
   45a40:	b9001f80 	str	w0, [x28, #28]
   45a44:	17ffff33 	b	45710 <close_fd_bitmap@@Base+0x2d0>
   45a48:	52800840 	mov	w0, #0x42                  	// #66
   45a4c:	b9006fe3 	str	w3, [sp, #108]
   45a50:	9400c480 	bl	76c50 <signal_is_ignored@@Base>
   45a54:	b9406fe3 	ldr	w3, [sp, #108]
   45a58:	35ffe160 	cbnz	w0, 45684 <close_fd_bitmap@@Base+0x244>
   45a5c:	90000740 	adrp	x0, 12d000 <o_options@@Base+0x2220>
   45a60:	f944a800 	ldr	x0, [x0, #2384]
   45a64:	f941081a 	ldr	x26, [x0, #528]
   45a68:	b4ffe0fa 	cbz	x26, 45684 <close_fd_bitmap@@Base+0x244>
   45a6c:	aa1a03e0 	mov	x0, x26
   45a70:	b9006fe3 	str	w3, [sp, #108]
   45a74:	97ffa3d3 	bl	2e9c0 <strlen@plt>
   45a78:	91000400 	add	x0, x0, #0x1
   45a7c:	94012e31 	bl	91340 <xmalloc@@Base>
   45a80:	aa1a03e1 	mov	x1, x26
[31m   45a84:	97ffa637 	bl	2f360 <strcpy@plt>[0m
   45a88:	90000741 	adrp	x1, 12d000 <o_options@@Base+0x2220>
   45a8c:	aa0003fa 	mov	x26, x0
--
0000000000045d90 <coproc_alloc@@Base>:
   45d90:	a9bd7bfd 	stp	x29, x30, [sp, #-48]!
   45d94:	12800005 	mov	w5, #0xffffffff            	// #-1
   45d98:	92800004 	mov	x4, #0xffffffffffffffff    	// #-1
   45d9c:	910003fd 	mov	x29, sp
   45da0:	a90153f3 	stp	x19, x20, [sp, #16]
   45da4:	b0000754 	adrp	x20, 12e000 <__data_start@@Base>
   45da8:	910f6293 	add	x19, x20, #0x3d8
   45dac:	b2407fe3 	mov	x3, #0xffffffff            	// #4294967295
   45db0:	d2c00042 	mov	x2, #0x200000000           	// #8589934592
   45db4:	f901ee9f 	str	xzr, [x20, #984]
   45db8:	29011661 	stp	w1, w5, [x19, #8]
   45dbc:	a9010e64 	stp	x4, x3, [x19, #16]
   45dc0:	f90013f5 	str	x21, [sp, #32]
   45dc4:	aa0003f5 	mov	x21, x0
   45dc8:	f9001262 	str	x2, [x19, #32]
   45dcc:	97ffa2fd 	bl	2e9c0 <strlen@plt>
   45dd0:	91000400 	add	x0, x0, #0x1
   45dd4:	94012d5b 	bl	91340 <xmalloc@@Base>
   45dd8:	aa1503e1 	mov	x1, x21
[31m   45ddc:	97ffa561 	bl	2f360 <strcpy@plt>[0m
   45de0:	aa0003e1 	mov	x1, x0
   45de4:	aa1303e0 	mov	x0, x19
--
   460c8:	9400421e 	bl	56940 <err_readonly@@Base>
   460cc:	17fffff7 	b	460a8 <coproc_setvars@@Base+0x138>
   460d0:	f9400260 	ldr	x0, [x19]
   460d4:	52800021 	mov	w1, #0x1                   	// #1
   460d8:	940024de 	bl	4f450 <find_variable_nameref_for_create@@Base>
   460dc:	aa0003f4 	mov	x20, x0
   460e0:	f0000721 	adrp	x1, 12d000 <o_options@@Base+0x2220>
   460e4:	f945c421 	ldr	x1, [x1, #2952]
   460e8:	eb01001f 	cmp	x0, x1
   460ec:	54fffde0 	b.eq	460a8 <coproc_setvars@@Base+0x138>  // b.none
   460f0:	b40001e0 	cbz	x0, 4612c <coproc_setvars@@Base+0x1bc>
   460f4:	b9402800 	ldr	w0, [x0, #40]
   460f8:	365ff880 	tbz	w0, #11, 46008 <coproc_setvars@@Base+0x98>
   460fc:	f9400260 	ldr	x0, [x19]
   46100:	97ffa43c 	bl	2f1f0 <free@plt>
   46104:	f9400680 	ldr	x0, [x20, #8]
   46108:	97ffa22e 	bl	2e9c0 <strlen@plt>
   4610c:	91000400 	add	x0, x0, #0x1
   46110:	94012c8c 	bl	91340 <xmalloc@@Base>
   46114:	f9400681 	ldr	x1, [x20, #8]
[31m   46118:	97ffa492 	bl	2f360 <strcpy@plt>[0m
   4611c:	f9000260 	str	x0, [x19]
   46120:	94002ed8 	bl	51c80 <make_new_array_variable@@Base>
--
   46974:	f9456ea1 	ldr	x1, [x21, #2776]
   46978:	aa0003f5 	mov	x21, x0
   4697c:	b9400020 	ldr	w0, [x1]
   46980:	350013a0 	cbnz	w0, 46bf4 <shell_execve@@Base+0x824>
   46984:	f0000720 	adrp	x0, 12d000 <o_options@@Base+0x2220>
   46988:	f9003be0 	str	x0, [sp, #112]
   4698c:	f9428800 	ldr	x0, [x0, #1296]
   46990:	b9400000 	ldr	w0, [x0]
   46994:	35000940 	cbnz	w0, 46abc <shell_execve@@Base+0x6ec>
   46998:	b40000b5 	cbz	x21, 469ac <shell_execve@@Base+0x5dc>
   4699c:	350016d7 	cbnz	w23, 46c74 <shell_execve@@Base+0x8a4>
   469a0:	940030ac 	bl	52c50 <maybe_make_export_env@@Base>
   469a4:	aa1503e0 	mov	x0, x21
   469a8:	9400290e 	bl	50de0 <put_command_name_into_env@@Base>
   469ac:	350012f7 	cbnz	w23, 46c08 <shell_execve@@Base+0x838>
   469b0:	aa1903e0 	mov	x0, x25
   469b4:	97ffa003 	bl	2e9c0 <strlen@plt>
   469b8:	91000400 	add	x0, x0, #0x1
   469bc:	94012a61 	bl	91340 <xmalloc@@Base>
   469c0:	aa1903e1 	mov	x1, x25
[31m   469c4:	97ffa267 	bl	2f360 <strcpy@plt>[0m
   469c8:	2a1a03e1 	mov	w1, w26
   469cc:	aa0003f7 	mov	x23, x0
--
   46f30:	34fff7c0 	cbz	w0, 46e28 <shell_execve@@Base+0xa58>
   46f34:	f0000720 	adrp	x0, 12d000 <o_options@@Base+0x2220>
   46f38:	f940ac00 	ldr	x0, [x0, #344]
   46f3c:	b9400000 	ldr	w0, [x0]
   46f40:	97ff9eb4 	bl	2ea10 <exit@plt>
   46f44:	52800053 	mov	w19, #0x2                   	// #2
   46f48:	17ffffc5 	b	46e5c <shell_execve@@Base+0xa8c>
   46f4c:	d0000720 	adrp	x0, 12c000 <o_options@@Base+0x1220>
   46f50:	f9477800 	ldr	x0, [x0, #3824]
   46f54:	f9400000 	ldr	x0, [x0]
   46f58:	b40002e0 	cbz	x0, 46fb4 <shell_execve@@Base+0xbe4>
   46f5c:	97ff9e99 	bl	2e9c0 <strlen@plt>
   46f60:	91000400 	add	x0, x0, #0x1
   46f64:	940128f7 	bl	91340 <xmalloc@@Base>
   46f68:	aa0003e2 	mov	x2, x0
   46f6c:	d0000721 	adrp	x1, 12c000 <o_options@@Base+0x1220>
   46f70:	f9477821 	ldr	x1, [x1, #3824]
   46f74:	f9400021 	ldr	x1, [x1]
   46f78:	b4000241 	cbz	x1, 46fc0 <shell_execve@@Base+0xbf0>
   46f7c:	aa0203e0 	mov	x0, x2
[31m   46f80:	97ffa0f8 	bl	2f360 <strcpy@plt>[0m
   46f84:	b9405be5 	ldr	w5, [sp, #88]
   46f88:	aa0003e2 	mov	x2, x0
--
   470dc:	f240041f 	tst	x0, #0x3
   470e0:	54000181 	b.ne	47110 <execute_command_internal@@Base+0x140>  // b.any
   470e4:	7100305f 	cmp	w2, #0xc
   470e8:	540009a8 	b.hi	4721c <execute_command_internal@@Base+0x24c>  // b.pmore
   470ec:	d2800021 	mov	x1, #0x1                   	// #1
   470f0:	d283f5e3 	mov	x3, #0x1faf                	// #8111
   470f4:	9ac22021 	lsl	x1, x1, x2
   470f8:	ea03003f 	tst	x1, x3
   470fc:	54000720 	b.eq	471e0 <execute_command_internal@@Base+0x210>  // b.none
   47100:	7100027f 	cmp	w19, #0x0
   47104:	0a150281 	and	w1, w20, w21
   47108:	3a410820 	ccmn	w1, #0x1, #0x0, eq  // eq = none
   4710c:	54002420 	b.eq	47590 <execute_command_internal@@Base+0x5c0>  // b.none
   47110:	aa1b03e0 	mov	x0, x27
   47114:	97fff3e7 	bl	440b0 <make_command_string@@Base>
   47118:	aa0003f6 	mov	x22, x0
   4711c:	97ff9e29 	bl	2e9c0 <strlen@plt>
   47120:	91000400 	add	x0, x0, #0x1
   47124:	94012887 	bl	91340 <xmalloc@@Base>
   47128:	aa1603e1 	mov	x1, x22
[31m   4712c:	97ffa08d 	bl	2f360 <strcpy@plt>[0m
   47130:	2a1303e1 	mov	w1, w19
   47134:	aa0003f6 	mov	x22, x0
--
   47394:	9115e000 	add	x0, x0, #0x578
   47398:	a94253f3 	ldp	x19, x20, [sp, #32]
   4739c:	a9435bf5 	ldp	x21, x22, [sp, #48]
   473a0:	f900141f 	str	xzr, [x0, #40]
   473a4:	17ffff77 	b	47180 <execute_command_internal@@Base+0x1b0>
   473a8:	f9400f63 	ldr	x3, [x27, #24]
   473ac:	d0000722 	adrp	x2, 12d000 <o_options@@Base+0x2220>
   473b0:	d0000721 	adrp	x1, 12d000 <o_options@@Base+0x2220>
   473b4:	aa1b03e0 	mov	x0, x27
   473b8:	f9467442 	ldr	x2, [x2, #3304]
   473bc:	b9400463 	ldr	w3, [x3, #4]
   473c0:	f941b421 	ldr	x1, [x1, #872]
   473c4:	b9000043 	str	w3, [x2]
   473c8:	b9000023 	str	w3, [x1]
   473cc:	97fff339 	bl	440b0 <make_command_string@@Base>
   473d0:	aa0003f6 	mov	x22, x0
   473d4:	97ff9d7b 	bl	2e9c0 <strlen@plt>
   473d8:	91000400 	add	x0, x0, #0x1
   473dc:	940127d9 	bl	91340 <xmalloc@@Base>
   473e0:	aa1603e1 	mov	x1, x22
[31m   473e4:	97ff9fdf 	bl	2f360 <strcpy@plt>[0m
   473e8:	2a1303e1 	mov	w1, w19
   473ec:	aa0003f8 	mov	x24, x0
--
   474dc:	52800820 	mov	w0, #0x41                  	// #65
   474e0:	9400be00 	bl	76ce0 <signal_in_progress@@Base>
   474e4:	b0000721 	adrp	x1, 12c000 <o_options@@Base+0x1220>
   474e8:	f9474421 	ldr	x1, [x1, #3720]
   474ec:	b9400021 	ldr	w1, [x1]
   474f0:	2a010000 	orr	w0, w0, w1
   474f4:	35fff880 	cbnz	w0, 47404 <execute_command_internal@@Base+0x434>
   474f8:	b0000720 	adrp	x0, 12c000 <o_options@@Base+0x1220>
   474fc:	f9004fe0 	str	x0, [sp, #152]
   47500:	f9477800 	ldr	x0, [x0, #3824]
   47504:	f9400000 	ldr	x0, [x0]
   47508:	b4000040 	cbz	x0, 47510 <execute_command_internal@@Base+0x540>
   4750c:	97ff9f39 	bl	2f1f0 <free@plt>
   47510:	b0000720 	adrp	x0, 12c000 <o_options@@Base+0x1220>
   47514:	f9476816 	ldr	x22, [x0, #3792]
   47518:	f94002c0 	ldr	x0, [x22]
   4751c:	97ff9d29 	bl	2e9c0 <strlen@plt>
   47520:	91000400 	add	x0, x0, #0x1
   47524:	94012787 	bl	91340 <xmalloc@@Base>
   47528:	f94002c1 	ldr	x1, [x22]
[31m   4752c:	97ff9f8d 	bl	2f360 <strcpy@plt>[0m
   47530:	f9404fe1 	ldr	x1, [sp, #152]
   47534:	f9477836 	ldr	x22, [x1, #3824]
--
   476fc:	52800820 	mov	w0, #0x41                  	// #65
   47700:	9400bd78 	bl	76ce0 <signal_in_progress@@Base>
   47704:	b0000721 	adrp	x1, 12c000 <o_options@@Base+0x1220>
   47708:	f9474421 	ldr	x1, [x1, #3720]
   4770c:	b9400021 	ldr	w1, [x1]
   47710:	2a010000 	orr	w0, w0, w1
   47714:	35000240 	cbnz	w0, 4775c <execute_command_internal@@Base+0x78c>
   47718:	b0000720 	adrp	x0, 12c000 <o_options@@Base+0x1220>
   4771c:	f9004fe0 	str	x0, [sp, #152]
   47720:	f9477800 	ldr	x0, [x0, #3824]
   47724:	f9400000 	ldr	x0, [x0]
   47728:	b4000040 	cbz	x0, 47730 <execute_command_internal@@Base+0x760>
   4772c:	97ff9eb1 	bl	2f1f0 <free@plt>
   47730:	b0000733 	adrp	x19, 12c000 <o_options@@Base+0x1220>
   47734:	f9476a73 	ldr	x19, [x19, #3792]
   47738:	f9400260 	ldr	x0, [x19]
   4773c:	97ff9ca1 	bl	2e9c0 <strlen@plt>
   47740:	91000400 	add	x0, x0, #0x1
   47744:	940126ff 	bl	91340 <xmalloc@@Base>
   47748:	f9400261 	ldr	x1, [x19]
[31m   4774c:	97ff9f05 	bl	2f360 <strcpy@plt>[0m
   47750:	f9404fe1 	ldr	x1, [sp, #152]
   47754:	f9477821 	ldr	x1, [x1, #3824]
--
   47e98:	52800820 	mov	w0, #0x41                  	// #65
   47e9c:	9400bb91 	bl	76ce0 <signal_in_progress@@Base>
   47ea0:	b0000721 	adrp	x1, 12c000 <o_options@@Base+0x1220>
   47ea4:	f9474421 	ldr	x1, [x1, #3720]
   47ea8:	b9400021 	ldr	w1, [x1]
   47eac:	2a010000 	orr	w0, w0, w1
   47eb0:	35000240 	cbnz	w0, 47ef8 <execute_command_internal@@Base+0xf28>
   47eb4:	b0000720 	adrp	x0, 12c000 <o_options@@Base+0x1220>
   47eb8:	f9004fe0 	str	x0, [sp, #152]
   47ebc:	f9477800 	ldr	x0, [x0, #3824]
   47ec0:	f9400000 	ldr	x0, [x0]
   47ec4:	b4000040 	cbz	x0, 47ecc <execute_command_internal@@Base+0xefc>
   47ec8:	97ff9cca 	bl	2f1f0 <free@plt>
   47ecc:	b0000734 	adrp	x20, 12c000 <o_options@@Base+0x1220>
   47ed0:	f9476a94 	ldr	x20, [x20, #3792]
   47ed4:	f9400280 	ldr	x0, [x20]
   47ed8:	97ff9aba 	bl	2e9c0 <strlen@plt>
   47edc:	91000400 	add	x0, x0, #0x1
   47ee0:	94012518 	bl	91340 <xmalloc@@Base>
   47ee4:	f9400281 	ldr	x1, [x20]
[31m   47ee8:	97ff9d1e 	bl	2f360 <strcpy@plt>[0m
   47eec:	f9404fe1 	ldr	x1, [sp, #152]
   47ef0:	f9477821 	ldr	x1, [x1, #3824]
--
   48264:	9400ba9f 	bl	76ce0 <signal_in_progress@@Base>
   48268:	90000721 	adrp	x1, 12c000 <o_options@@Base+0x1220>
   4826c:	f9474421 	ldr	x1, [x1, #3720]
   48270:	b9400021 	ldr	w1, [x1]
   48274:	2a010000 	orr	w0, w0, w1
   48278:	35000260 	cbnz	w0, 482c4 <execute_command_internal@@Base+0x12f4>
   4827c:	90000720 	adrp	x0, 12c000 <o_options@@Base+0x1220>
   48280:	f9004fe0 	str	x0, [sp, #152]
   48284:	f9477800 	ldr	x0, [x0, #3824]
   48288:	f9400000 	ldr	x0, [x0]
   4828c:	b4000040 	cbz	x0, 48294 <execute_command_internal@@Base+0x12c4>
   48290:	97ff9bd8 	bl	2f1f0 <free@plt>
   48294:	9000073a 	adrp	x26, 12c000 <o_options@@Base+0x1220>
   48298:	f9476b5a 	ldr	x26, [x26, #3792]
   4829c:	f9400340 	ldr	x0, [x26]
   482a0:	b40000c0 	cbz	x0, 482b8 <execute_command_internal@@Base+0x12e8>
   482a4:	97ff99c7 	bl	2e9c0 <strlen@plt>
   482a8:	91000400 	add	x0, x0, #0x1
   482ac:	94012425 	bl	91340 <xmalloc@@Base>
   482b0:	f9400341 	ldr	x1, [x26]
[31m   482b4:	97ff9c2b 	bl	2f360 <strcpy@plt>[0m
   482b8:	f9404fe1 	ldr	x1, [sp, #152]
   482bc:	f9477821 	ldr	x1, [x1, #3824]
--
   4831c:	f945fc63 	ldr	x3, [x3, #3064]
   48320:	12800004 	mov	w4, #0xffffffff            	// #-1
   48324:	b9400042 	ldr	w2, [x2]
   48328:	b900bbe2 	str	w2, [sp, #184]
   4832c:	b9400822 	ldr	w2, [x1, #8]
   48330:	b9000064 	str	w4, [x3]
   48334:	121f0042 	and	w2, w2, #0x2
   48338:	b900f3e2 	str	w2, [sp, #240]
   4833c:	340073c0 	cbz	w0, 491b4 <execute_command_internal@@Base+0x21e4>
   48340:	b940b3e0 	ldr	w0, [sp, #176]
   48344:	3100041f 	cmn	w0, #0x1
   48348:	54002000 	b.eq	48748 <execute_command_internal@@Base+0x1778>  // b.none
   4834c:	94002a41 	bl	52c50 <maybe_make_export_env@@Base>
   48350:	90000720 	adrp	x0, 12c000 <o_options@@Base+0x1220>
   48354:	f947781c 	ldr	x28, [x0, #3824]
   48358:	f9400380 	ldr	x0, [x28]
   4835c:	97ff9999 	bl	2e9c0 <strlen@plt>
   48360:	91000400 	add	x0, x0, #0x1
   48364:	940123f7 	bl	91340 <xmalloc@@Base>
   48368:	f9400381 	ldr	x1, [x28]
[31m   4836c:	97ff9bfd 	bl	2f360 <strcpy@plt>[0m
   48370:	aa0003fc 	mov	x28, x0
   48374:	2a1303e1 	mov	w1, w19
--
   4872c:	f9405fe2 	ldr	x2, [sp, #184]
   48730:	97fff970 	bl	46cf0 <shell_execve@@Base+0x920>
   48734:	9400c317 	bl	79390 <throw_to_top_level@@Base>
   48738:	17ffff98 	b	48598 <execute_command_internal@@Base+0x15c8>
   4873c:	528001e0 	mov	w0, #0xf                   	// #15
   48740:	9400c494 	bl	79990 <termsig_handler@@Base>
   48744:	17ffff31 	b	48408 <execute_command_internal@@Base+0x1438>
   48748:	f9400020 	ldr	x0, [x1]
   4874c:	b4000080 	cbz	x0, 4875c <execute_command_internal@@Base+0x178c>
   48750:	39400000 	ldrb	w0, [x0]
   48754:	7100941f 	cmp	w0, #0x25
   48758:	5400bda0 	b.eq	49f0c <execute_command_internal@@Base+0x2f3c>  // b.none
   4875c:	9400293d 	bl	52c50 <maybe_make_export_env@@Base>
   48760:	90000720 	adrp	x0, 12c000 <o_options@@Base+0x1220>
   48764:	f947781c 	ldr	x28, [x0, #3824]
   48768:	f9400380 	ldr	x0, [x28]
   4876c:	97ff9895 	bl	2e9c0 <strlen@plt>
   48770:	91000400 	add	x0, x0, #0x1
   48774:	940122f3 	bl	91340 <xmalloc@@Base>
   48778:	f9400381 	ldr	x1, [x28]
[31m   4877c:	97ff9af9 	bl	2f360 <strcpy@plt>[0m
   48780:	aa0003fc 	mov	x28, x0
   48784:	2a1303e1 	mov	w1, w19
--
   488d4:	f9474421 	ldr	x1, [x1, #3720]
   488d8:	b9400021 	ldr	w1, [x1]
   488dc:	2a010000 	orr	w0, w0, w1
   488e0:	350002c0 	cbnz	w0, 48938 <execute_command_internal@@Base+0x1968>
   488e4:	90000720 	adrp	x0, 12c000 <o_options@@Base+0x1220>
   488e8:	f9004fe0 	str	x0, [sp, #152]
   488ec:	f9477800 	ldr	x0, [x0, #3824]
   488f0:	f9400000 	ldr	x0, [x0]
   488f4:	b4000080 	cbz	x0, 48904 <execute_command_internal@@Base+0x1934>
   488f8:	b900b3e6 	str	w6, [sp, #176]
   488fc:	97ff9a3d 	bl	2f1f0 <free@plt>
   48900:	b940b3e6 	ldr	w6, [sp, #176]
   48904:	90000735 	adrp	x21, 12c000 <o_options@@Base+0x1220>
   48908:	b900b3e6 	str	w6, [sp, #176]
   4890c:	f9476ab5 	ldr	x21, [x21, #3792]
   48910:	f94002a0 	ldr	x0, [x21]
   48914:	97ff982b 	bl	2e9c0 <strlen@plt>
   48918:	91000400 	add	x0, x0, #0x1
   4891c:	94012289 	bl	91340 <xmalloc@@Base>
   48920:	f94002a1 	ldr	x1, [x21]
[31m   48924:	97ff9a8f 	bl	2f360 <strcpy@plt>[0m
   48928:	f9404fe1 	ldr	x1, [sp, #152]
   4892c:	b940b3e6 	ldr	w6, [sp, #176]
--
   48a90:	f9474421 	ldr	x1, [x1, #3720]
   48a94:	b9400021 	ldr	w1, [x1]
   48a98:	2a010000 	orr	w0, w0, w1
   48a9c:	350002c0 	cbnz	w0, 48af4 <execute_command_internal@@Base+0x1b24>
   48aa0:	90000720 	adrp	x0, 12c000 <o_options@@Base+0x1220>
   48aa4:	f9004fe0 	str	x0, [sp, #152]
   48aa8:	f9477800 	ldr	x0, [x0, #3824]
   48aac:	f9400000 	ldr	x0, [x0]
   48ab0:	b4000080 	cbz	x0, 48ac0 <execute_command_internal@@Base+0x1af0>
   48ab4:	b900b3e6 	str	w6, [sp, #176]
   48ab8:	97ff99ce 	bl	2f1f0 <free@plt>
   48abc:	b940b3e6 	ldr	w6, [sp, #176]
   48ac0:	90000737 	adrp	x23, 12c000 <o_options@@Base+0x1220>
   48ac4:	b900b3e6 	str	w6, [sp, #176]
   48ac8:	f9476af7 	ldr	x23, [x23, #3792]
   48acc:	f94002e0 	ldr	x0, [x23]
   48ad0:	97ff97bc 	bl	2e9c0 <strlen@plt>
   48ad4:	91000400 	add	x0, x0, #0x1
   48ad8:	9401221a 	bl	91340 <xmalloc@@Base>
   48adc:	f94002e1 	ldr	x1, [x23]
[31m   48ae0:	97ff9a20 	bl	2f360 <strcpy@plt>[0m
   48ae4:	f9404fe1 	ldr	x1, [sp, #152]
   48ae8:	b940b3e6 	ldr	w6, [sp, #176]
--
   4a1b4:	9400bc6f 	bl	79370 <jump_to_top_level@@Base>
   4a1b8:	f0000701 	adrp	x1, 12d000 <o_options@@Base+0x2220>
   4a1bc:	52800022 	mov	w2, #0x1                   	// #1
   4a1c0:	52800080 	mov	w0, #0x4                   	// #4
   4a1c4:	f9475821 	ldr	x1, [x1, #3760]
   4a1c8:	b9000022 	str	w2, [x1]
   4a1cc:	9400bc69 	bl	79370 <jump_to_top_level@@Base>
   4a1d0:	f94073f8 	ldr	x24, [sp, #224]
   4a1d4:	d0000700 	adrp	x0, 12c000 <o_options@@Base+0x1220>
   4a1d8:	f9004fe0 	str	x0, [sp, #152]
   4a1dc:	f9477800 	ldr	x0, [x0, #3824]
   4a1e0:	f9400000 	ldr	x0, [x0]
   4a1e4:	b4000440 	cbz	x0, 4a26c <execute_command_internal@@Base+0x329c>
   4a1e8:	97ff91f6 	bl	2e9c0 <strlen@plt>
   4a1ec:	91000400 	add	x0, x0, #0x1
   4a1f0:	94011c54 	bl	91340 <xmalloc@@Base>
   4a1f4:	f9404fe1 	ldr	x1, [sp, #152]
   4a1f8:	f9477821 	ldr	x1, [x1, #3824]
   4a1fc:	f9400021 	ldr	x1, [x1]
   4a200:	b4000301 	cbz	x1, 4a260 <execute_command_internal@@Base+0x3290>
[31m   4a204:	97ff9457 	bl	2f360 <strcpy@plt>[0m
   4a208:	aa0003f6 	mov	x22, x0
   4a20c:	b940c7e0 	ldr	w0, [sp, #196]
--
   4a754:	97ffe25f 	bl	430d0 <print_for_command_head@@Base>
   4a758:	f9471360 	ldr	x0, [x27, #3616]
   4a75c:	b9400000 	ldr	w0, [x0]
   4a760:	35000ea0 	cbnz	w0, 4a934 <execute_command@@Base+0x434>
   4a764:	52800820 	mov	w0, #0x41                  	// #65
   4a768:	9400b15e 	bl	76ce0 <signal_in_progress@@Base>
   4a76c:	f9474741 	ldr	x1, [x26, #3720]
   4a770:	b9400021 	ldr	w1, [x1]
   4a774:	2a010000 	orr	w0, w0, w1
   4a778:	350001e0 	cbnz	w0, 4a7b4 <execute_command@@Base+0x2b4>
   4a77c:	f94033e0 	ldr	x0, [sp, #96]
   4a780:	f9400000 	ldr	x0, [x0]
   4a784:	b4000040 	cbz	x0, 4a78c <execute_command@@Base+0x28c>
   4a788:	97ff929a 	bl	2f1f0 <free@plt>
   4a78c:	f94037f9 	ldr	x25, [sp, #104]
   4a790:	f9400320 	ldr	x0, [x25]
   4a794:	97ff908b 	bl	2e9c0 <strlen@plt>
   4a798:	91000400 	add	x0, x0, #0x1
   4a79c:	94011ae9 	bl	91340 <xmalloc@@Base>
   4a7a0:	f9400321 	ldr	x1, [x25]
[31m   4a7a4:	97ff92ef 	bl	2f360 <strcpy@plt>[0m
   4a7a8:	d0000701 	adrp	x1, 12c000 <o_options@@Base+0x1220>
   4a7ac:	f9477821 	ldr	x1, [x1, #3824]
--
   4b2b8:	9101a3e0 	add	x0, sp, #0x68
   4b2bc:	97ffd0f5 	bl	3f690 <sh_openpipe@@Base>
   4b2c0:	9101c3e0 	add	x0, sp, #0x70
   4b2c4:	97ffd0f3 	bl	3f690 <sh_openpipe@@Base>
   4b2c8:	aa1b03e0 	mov	x0, x27
   4b2cc:	97ff8ed5 	bl	2ee20 <sigemptyset@plt>
   4b2d0:	52800221 	mov	w1, #0x11                  	// #17
   4b2d4:	aa1b03e0 	mov	x0, x27
   4b2d8:	97ff90aa 	bl	2f580 <sigaddset@plt>
   4b2dc:	aa1a03e0 	mov	x0, x26
   4b2e0:	97ff8ed0 	bl	2ee20 <sigemptyset@plt>
   4b2e4:	aa1a03e2 	mov	x2, x26
   4b2e8:	aa1b03e1 	mov	x1, x27
   4b2ec:	52800000 	mov	w0, #0x0                   	// #0
   4b2f0:	97ff8de8 	bl	2ea90 <sigprocmask@plt>
   4b2f4:	aa1c03e0 	mov	x0, x28
   4b2f8:	97ff8db2 	bl	2e9c0 <strlen@plt>
   4b2fc:	91000400 	add	x0, x0, #0x1
   4b300:	94011810 	bl	91340 <xmalloc@@Base>
   4b304:	aa1c03e1 	mov	x1, x28
[31m   4b308:	97ff9016 	bl	2f360 <strcpy@plt>[0m
   4b30c:	52800021 	mov	w1, #0x1                   	// #1
   4b310:	aa0003fb 	mov	x27, x0
--
   4b610:	9400ad7c 	bl	76c00 <signal_is_trapped@@Base>
   4b614:	35002080 	cbnz	w0, 4ba24 <execute_command@@Base+0x1524>
   4b618:	d280001b 	mov	x27, #0x0                   	// #0
   4b61c:	f94037e0 	ldr	x0, [sp, #104]
   4b620:	b40003c0 	cbz	x0, 4b698 <execute_command@@Base+0x1198>
   4b624:	d0000701 	adrp	x1, 12d000 <o_options@@Base+0x2220>
   4b628:	b9402a60 	ldr	w0, [x19, #40]
   4b62c:	f9430c21 	ldr	x1, [x1, #1560]
   4b630:	12190000 	and	w0, w0, #0x80
   4b634:	b9400021 	ldr	w1, [x1]
   4b638:	2a010000 	orr	w0, w0, w1
   4b63c:	350002e0 	cbnz	w0, 4b698 <execute_command@@Base+0x1198>
   4b640:	b9407be0 	ldr	w0, [sp, #120]
   4b644:	35000260 	cbnz	w0, 4b690 <execute_command@@Base+0x1190>
   4b648:	f94037e0 	ldr	x0, [sp, #104]
   4b64c:	97ff8cdd 	bl	2e9c0 <strlen@plt>
   4b650:	91000400 	add	x0, x0, #0x1
   4b654:	9401173b 	bl	91340 <xmalloc@@Base>
   4b658:	f9004fe0 	str	x0, [sp, #152]
   4b65c:	f94037e1 	ldr	x1, [sp, #104]
[31m   4b660:	97ff8f40 	bl	2f360 <strcpy@plt>[0m
   4b664:	d0000700 	adrp	x0, 12d000 <o_options@@Base+0x2220>
   4b668:	f9404fe2 	ldr	x2, [sp, #152]
--
   4b67c:	d0000700 	adrp	x0, 12d000 <o_options@@Base+0x2220>
   4b680:	f9404be2 	ldr	x2, [sp, #144]
   4b684:	f9424c00 	ldr	x0, [x0, #1176]
   4b688:	aa0203e1 	mov	x1, x2
   4b68c:	9400b205 	bl	77ea0 <add_unwind_protect@@Base>
   4b690:	52800820 	mov	w0, #0x41                  	// #65
   4b694:	9400ab7f 	bl	76490 <restore_default_signal@@Base>
   4b698:	b400031c 	cbz	x28, 4b6f8 <execute_command@@Base+0x11f8>
   4b69c:	d0000700 	adrp	x0, 12d000 <o_options@@Base+0x2220>
   4b6a0:	f944a400 	ldr	x0, [x0, #2376]
   4b6a4:	b9400000 	ldr	w0, [x0]
   4b6a8:	35000280 	cbnz	w0, 4b6f8 <execute_command@@Base+0x11f8>
   4b6ac:	b9407be0 	ldr	w0, [sp, #120]
   4b6b0:	35000200 	cbnz	w0, 4b6f0 <execute_command@@Base+0x11f0>
   4b6b4:	aa1c03e0 	mov	x0, x28
   4b6b8:	97ff8cc2 	bl	2e9c0 <strlen@plt>
   4b6bc:	91000400 	add	x0, x0, #0x1
   4b6c0:	94011720 	bl	91340 <xmalloc@@Base>
   4b6c4:	aa1c03e1 	mov	x1, x28
   4b6c8:	aa0003fc 	mov	x28, x0
[31m   4b6cc:	97ff8f25 	bl	2f360 <strcpy@plt>[0m
   4b6d0:	d0000700 	adrp	x0, 12d000 <o_options@@Base+0x2220>
   4b6d4:	aa1c03e1 	mov	x1, x28
--
   4ba6c:	34000b80 	cbz	w0, 4bbdc <execute_command@@Base+0x16dc>
   4ba70:	d0000700 	adrp	x0, 12d000 <o_options@@Base+0x2220>
   4ba74:	90000761 	adrp	x1, 137000 <line_number_base@@Base+0xb58>
   4ba78:	f94033e2 	ldr	x2, [sp, #96]
   4ba7c:	f9467400 	ldr	x0, [x0, #3304]
   4ba80:	b9400842 	ldr	w2, [x2, #8]
   4ba84:	b905c422 	str	w2, [x1, #1476]
   4ba88:	b9000002 	str	w2, [x0]
   4ba8c:	b9407fe0 	ldr	w0, [sp, #124]
   4ba90:	d2800001 	mov	x1, #0x0                   	// #0
   4ba94:	94004f4b 	bl	5f7c0 <stop_pipeline@@Base>
   4ba98:	17ffff66 	b	4b830 <execute_command@@Base+0x1330>
   4ba9c:	b9407be0 	ldr	w0, [sp, #120]
   4baa0:	35000200 	cbnz	w0, 4bae0 <execute_command@@Base+0x15e0>
   4baa4:	aa1b03e0 	mov	x0, x27
   4baa8:	97ff8bc6 	bl	2e9c0 <strlen@plt>
   4baac:	91000400 	add	x0, x0, #0x1
   4bab0:	94011624 	bl	91340 <xmalloc@@Base>
   4bab4:	aa1b03e1 	mov	x1, x27
   4bab8:	aa0003f3 	mov	x19, x0
[31m   4babc:	97ff8e29 	bl	2f360 <strcpy@plt>[0m
   4bac0:	d0000700 	adrp	x0, 12d000 <o_options@@Base+0x2220>
   4bac4:	aa1303e1 	mov	x1, x19
--
   4c0b8:	b9400017 	ldr	w23, [x0]
   4c0bc:	d00004ba 	adrp	x26, e2000 <_IO_stdin_used@@Base+0x1db8>
   4c0c0:	91318340 	add	x0, x26, #0xc60
   4c0c4:	9400aef3 	bl	77c90 <begin_unwind_frame@@Base>
   4c0c8:	f0000740 	adrp	x0, 137000 <line_number_base@@Base+0xb58>
   4c0cc:	b945ec13 	ldr	w19, [x0, #1516]
   4c0d0:	34fff393 	cbz	w19, 4bf40 <execute_shell_function@@Base+0x320>
   4c0d4:	17ffffdf 	b	4c050 <execute_shell_function@@Base+0x430>
   4c0d8:	b0000700 	adrp	x0, 12d000 <o_options@@Base+0x2220>
   4c0dc:	f9464800 	ldr	x0, [x0, #3216]
   4c0e0:	f9400000 	ldr	x0, [x0]
   4c0e4:	f876d800 	ldr	x0, [x0, w22, sxtw #3]
   4c0e8:	b4fff640 	cbz	x0, 4bfb0 <execute_shell_function@@Base+0x390>
   4c0ec:	90000715 	adrp	x21, 12c000 <o_options@@Base+0x1220>
   4c0f0:	f9477ab5 	ldr	x21, [x21, #3824]
   4c0f4:	f94002a0 	ldr	x0, [x21]
   4c0f8:	97ff8a32 	bl	2e9c0 <strlen@plt>
   4c0fc:	91000400 	add	x0, x0, #0x1
   4c100:	94011490 	bl	91340 <xmalloc@@Base>
   4c104:	f94002a1 	ldr	x1, [x21]
[31m   4c108:	97ff8c96 	bl	2f360 <strcpy@plt>[0m
   4c10c:	b0000701 	adrp	x1, 12d000 <o_options@@Base+0x2220>
   4c110:	2a1603e3 	mov	w3, w22
--
   4ca64:	39400783 	ldrb	w3, [x28, #1]
   4ca68:	9100079c 	add	x28, x28, #0x1
   4ca6c:	52800022 	mov	w2, #0x1                   	// #1
   4ca70:	7101487f 	cmp	w3, #0x52
   4ca74:	528008a0 	mov	w0, #0x45                  	// #69
   4ca78:	7a401064 	ccmp	w3, w0, #0x4, ne  // ne = any
   4ca7c:	54001200 	b.eq	4ccbc <execute_shell_function@@Base+0x109c>  // b.none
   4ca80:	7101547f 	cmp	w3, #0x55
   4ca84:	540016e0 	b.eq	4cd60 <execute_shell_function@@Base+0x1140>  // b.none
   4ca88:	71014c7f 	cmp	w3, #0x53
   4ca8c:	540018a1 	b.ne	4cda0 <execute_shell_function@@Base+0x1180>  // b.any
   4ca90:	b940a7e4 	ldr	w4, [sp, #164]
   4ca94:	aa1403e0 	mov	x0, x20
   4ca98:	f9404fe3 	ldr	x3, [sp, #152]
   4ca9c:	97ffdff5 	bl	44a70 <dispose_fd_bitmap@@Base+0x120>
   4caa0:	0b180019 	add	w25, w0, w24
   4caa4:	6b19037f 	cmp	w27, w25
   4caa8:	540012ed 	b.le	4cd04 <execute_shell_function@@Base+0x10e4>
   4caac:	8b38c340 	add	x0, x26, w24, sxtw
   4cab0:	aa1403e1 	mov	x1, x20
[31m   4cab4:	97ff8a2b 	bl	2f360 <strcpy@plt>[0m
   4cab8:	2a1903f8 	mov	w24, w25
   4cabc:	39400781 	ldrb	w1, [x28, #1]
--
   4cd08:	11010365 	add	w5, w27, #0x40
   4cd0c:	121a6421 	and	w1, w1, #0xffffffc0
   4cd10:	aa1a03e0 	mov	x0, x26
   4cd14:	0b0100bb 	add	w27, w5, w1
   4cd18:	93407f61 	sxtw	x1, w27
   4cd1c:	9401119d 	bl	91390 <xrealloc@@Base>
   4cd20:	aa0003fa 	mov	x26, x0
   4cd24:	17ffff62 	b	4caac <execute_shell_function@@Base+0xe8c>
   4cd28:	b940bfe4 	ldr	w4, [sp, #188]
   4cd2c:	aa1403e0 	mov	x0, x20
   4cd30:	f9405be3 	ldr	x3, [sp, #176]
   4cd34:	52800002 	mov	w2, #0x0                   	// #0
   4cd38:	52800041 	mov	w1, #0x2                   	// #2
   4cd3c:	97ffdf4d 	bl	44a70 <dispose_fd_bitmap@@Base+0x120>
   4cd40:	0b180019 	add	w25, w0, w24
   4cd44:	6b19037f 	cmp	w27, w25
   4cd48:	5400016d 	b.le	4cd74 <execute_shell_function@@Base+0x1154>
   4cd4c:	8b38c340 	add	x0, x26, w24, sxtw
   4cd50:	aa1403e1 	mov	x1, x20
   4cd54:	2a1903f8 	mov	w24, w25
[31m   4cd58:	97ff8982 	bl	2f360 <strcpy@plt>[0m
   4cd5c:	17ffff2e 	b	4ca14 <execute_shell_function@@Base+0xdf4>
   4cd60:	b940cbe4 	ldr	w4, [sp, #200]
--
   4cfa0:	aa1303e0 	mov	x0, x19
   4cfa4:	29017e74 	stp	w20, wzr, [x19, #8]
   4cfa8:	a94153f3 	ldp	x19, x20, [sp, #16]
   4cfac:	f900003f 	str	xzr, [x1]
   4cfb0:	a8c27bfd 	ldp	x29, x30, [sp], #32
   4cfb4:	d65f03c0 	ret
   4cfb8:	d503201f 	nop
   4cfbc:	d503201f 	nop
   4cfc0:	a9be7bfd 	stp	x29, x30, [sp, #-32]!
   4cfc4:	910003fd 	mov	x29, sp
   4cfc8:	a90153f3 	stp	x19, x20, [sp, #16]
   4cfcc:	aa0003f4 	mov	x20, x0
   4cfd0:	d2800600 	mov	x0, #0x30                  	// #48
   4cfd4:	940110db 	bl	91340 <xmalloc@@Base>
   4cfd8:	aa0003f3 	mov	x19, x0
   4cfdc:	aa1403e0 	mov	x0, x20
   4cfe0:	97ff8678 	bl	2e9c0 <strlen@plt>
   4cfe4:	91000400 	add	x0, x0, #0x1
   4cfe8:	940110d6 	bl	91340 <xmalloc@@Base>
   4cfec:	aa1403e1 	mov	x1, x20
[31m   4cff0:	97ff88dc 	bl	2f360 <strcpy@plt>[0m
   4cff4:	aa0003e1 	mov	x1, x0
   4cff8:	a9007e61 	stp	x1, xzr, [x19]
--
   4d024:	910003fd 	mov	x29, sp
   4d028:	a90153f3 	stp	x19, x20, [sp, #16]
   4d02c:	90000713 	adrp	x19, 12d000 <o_options@@Base+0x2220>
   4d030:	aa0103f4 	mov	x20, x1
   4d034:	f90013f5 	str	x21, [sp, #32]
   4d038:	aa0003f5 	mov	x21, x0
   4d03c:	f942e660 	ldr	x0, [x19, #1480]
   4d040:	f9400000 	ldr	x0, [x0]
   4d044:	b40000e0 	cbz	x0, 4d060 <execute_shell_function@@Base+0x1440>
   4d048:	90000701 	adrp	x1, 12d000 <o_options@@Base+0x2220>
   4d04c:	f9479421 	ldr	x1, [x1, #3880]
   4d050:	f9400021 	ldr	x1, [x1]
   4d054:	eb01001f 	cmp	x0, x1
   4d058:	54000040 	b.eq	4d060 <execute_shell_function@@Base+0x1440>  // b.none
   4d05c:	97ff8865 	bl	2f1f0 <free@plt>
   4d060:	aa1403e0 	mov	x0, x20
   4d064:	97ff8657 	bl	2e9c0 <strlen@plt>
   4d068:	91000400 	add	x0, x0, #0x1
   4d06c:	940110b5 	bl	91340 <xmalloc@@Base>
   4d070:	aa1403e1 	mov	x1, x20
[31m   4d074:	97ff88bb 	bl	2f360 <strcpy@plt>[0m
   4d078:	f942e673 	ldr	x19, [x19, #1480]
   4d07c:	aa0003e1 	mov	x1, x0
   4d080:	aa1503e0 	mov	x0, x21
   4d084:	f94013f5 	ldr	x21, [sp, #32]
   4d088:	f9000261 	str	x1, [x19]
   4d08c:	a94153f3 	ldp	x19, x20, [sp, #16]
   4d090:	a8c37bfd 	ldp	x29, x30, [sp], #48
   4d094:	d65f03c0 	ret
   4d098:	d503201f 	nop
   4d09c:	d503201f 	nop
   4d0a0:	a9be7bfd 	stp	x29, x30, [sp, #-32]!
   4d0a4:	910003fd 	mov	x29, sp
   4d0a8:	a90153f3 	stp	x19, x20, [sp, #16]
   4d0ac:	f00006f4 	adrp	x20, 12c000 <o_options@@Base+0x1220>
   4d0b0:	aa0003f3 	mov	x19, x0
   4d0b4:	f9477a94 	ldr	x20, [x20, #3824]
   4d0b8:	f9400280 	ldr	x0, [x20]
   4d0bc:	b40001e0 	cbz	x0, 4d0f8 <execute_shell_function@@Base+0x14d8>
   4d0c0:	97ff8640 	bl	2e9c0 <strlen@plt>
   4d0c4:	91000400 	add	x0, x0, #0x1
   4d0c8:	9401109e 	bl	91340 <xmalloc@@Base>
   4d0cc:	f9400281 	ldr	x1, [x20]
[31m   4d0d0:	97ff88a4 	bl	2f360 <strcpy@plt>[0m
   4d0d4:	aa0003f4 	mov	x20, x0
   4d0d8:	f9400660 	ldr	x0, [x19, #8]
--
   4d0ec:	a94153f3 	ldp	x19, x20, [sp, #16]
   4d0f0:	a8c27bfd 	ldp	x29, x30, [sp], #32
   4d0f4:	d65f03c0 	ret
   4d0f8:	d2800020 	mov	x0, #0x1                   	// #1
   4d0fc:	94011091 	bl	91340 <xmalloc@@Base>
   4d100:	aa0003f4 	mov	x20, x0
   4d104:	3900001f 	strb	wzr, [x0]
   4d108:	17fffff4 	b	4d0d8 <execute_shell_function@@Base+0x14b8>
   4d10c:	d503201f 	nop
   4d110:	a9be7bfd 	stp	x29, x30, [sp, #-32]!
   4d114:	910003fd 	mov	x29, sp
   4d118:	a90153f3 	stp	x19, x20, [sp, #16]
   4d11c:	90000714 	adrp	x20, 12d000 <o_options@@Base+0x2220>
   4d120:	aa0003f3 	mov	x19, x0
   4d124:	f9456294 	ldr	x20, [x20, #2752]
   4d128:	f9400280 	ldr	x0, [x20]
   4d12c:	97ff8625 	bl	2e9c0 <strlen@plt>
   4d130:	91000400 	add	x0, x0, #0x1
   4d134:	94011083 	bl	91340 <xmalloc@@Base>
   4d138:	f9400281 	ldr	x1, [x20]
[31m   4d13c:	97ff8889 	bl	2f360 <strcpy@plt>[0m
   4d140:	aa0003f4 	mov	x20, x0
   4d144:	f9400661 	ldr	x1, [x19, #8]
--
   4d164:	d65f03c0 	ret
   4d168:	d503201f 	nop
   4d16c:	d503201f 	nop
   4d170:	a9bd7bfd 	stp	x29, x30, [sp, #-48]!
   4d174:	910003fd 	mov	x29, sp
   4d178:	f90013f5 	str	x21, [sp, #32]
   4d17c:	aa0003f5 	mov	x21, x0
   4d180:	b40004c1 	cbz	x1, 4d218 <execute_shell_function@@Base+0x15f8>
   4d184:	a90153f3 	stp	x19, x20, [sp, #16]
   4d188:	90000714 	adrp	x20, 12d000 <o_options@@Base+0x2220>
   4d18c:	aa0103f3 	mov	x19, x1
   4d190:	f9456280 	ldr	x0, [x20, #2752]
   4d194:	f9400000 	ldr	x0, [x0]
   4d198:	b4000040 	cbz	x0, 4d1a0 <execute_shell_function@@Base+0x1580>
   4d19c:	97ff8815 	bl	2f1f0 <free@plt>
   4d1a0:	aa1303e0 	mov	x0, x19
   4d1a4:	97ff8607 	bl	2e9c0 <strlen@plt>
   4d1a8:	91000400 	add	x0, x0, #0x1
   4d1ac:	94011065 	bl	91340 <xmalloc@@Base>
   4d1b0:	aa1303e1 	mov	x1, x19
[31m   4d1b4:	97ff886b 	bl	2f360 <strcpy@plt>[0m
   4d1b8:	f9456294 	ldr	x20, [x20, #2752]
   4d1bc:	d2800021 	mov	x1, #0x1                   	// #1
   4d1c0:	f9000280 	str	x0, [x20]
   4d1c4:	39400260 	ldrb	w0, [x19]
   4d1c8:	34000100 	cbz	w0, 4d1e8 <execute_shell_function@@Base+0x15c8>
   4d1cc:	39400660 	ldrb	w0, [x19, #1]
   4d1d0:	d2800041 	mov	x1, #0x2                   	// #2
   4d1d4:	340000a0 	cbz	w0, 4d1e8 <execute_shell_function@@Base+0x15c8>
   4d1d8:	39400a60 	ldrb	w0, [x19, #2]
   4d1dc:	d2800061 	mov	x1, #0x3                   	// #3
   4d1e0:	35000240 	cbnz	w0, 4d228 <execute_shell_function@@Base+0x1608>
   4d1e4:	d503201f 	nop
   4d1e8:	d0000754 	adrp	x20, 137000 <line_number_base@@Base+0xb58>
   4d1ec:	91182294 	add	x20, x20, #0x608
   4d1f0:	f9400680 	ldr	x0, [x20, #8]
   4d1f4:	94011067 	bl	91390 <xrealloc@@Base>
   4d1f8:	f9000680 	str	x0, [x20, #8]
   4d1fc:	aa1303e1 	mov	x1, x19
   4d200:	aa0003f3 	mov	x19, x0
[31m   4d204:	97ff8857 	bl	2f360 <strcpy@plt>[0m
   4d208:	90000700 	adrp	x0, 12d000 <o_options@@Base+0x2220>
   4d20c:	f9425800 	ldr	x0, [x0, #1200]
--
   4d2fc:	a90153f3 	stp	x19, x20, [sp, #16]
   4d300:	94009a78 	bl	73ce0 <hash_create@@Base>
   4d304:	aa0003f4 	mov	x20, x0
   4d308:	f94002e1 	ldr	x1, [x23]
   4d30c:	b9400820 	ldr	w0, [x1, #8]
   4d310:	7100001f 	cmp	w0, #0x0
   4d314:	540003ad 	b.le	4d388 <execute_shell_function@@Base+0x1768>
   4d318:	a9025bf5 	stp	x21, x22, [sp, #32]
   4d31c:	d2800016 	mov	x22, #0x0                   	// #0
   4d320:	52800015 	mov	w21, #0x0                   	// #0
   4d324:	d503201f 	nop
   4d328:	f9400020 	ldr	x0, [x1]
   4d32c:	f8766813 	ldr	x19, [x0, x22]
   4d330:	b40001f3 	cbz	x19, 4d36c <execute_shell_function@@Base+0x174c>
   4d334:	d503201f 	nop
   4d338:	f9400660 	ldr	x0, [x19, #8]
   4d33c:	97ff85a1 	bl	2e9c0 <strlen@plt>
   4d340:	91000400 	add	x0, x0, #0x1
   4d344:	94010fff 	bl	91340 <xmalloc@@Base>
   4d348:	f9400661 	ldr	x1, [x19, #8]
[31m   4d34c:	97ff8805 	bl	2f360 <strcpy@plt>[0m
   4d350:	aa0003e1 	mov	x1, x0
   4d354:	f9400a62 	ldr	x2, [x19, #16]
--
   4d41c:	a90153f3 	stp	x19, x20, [sp, #16]
   4d420:	94009a30 	bl	73ce0 <hash_create@@Base>
   4d424:	aa0003f4 	mov	x20, x0
   4d428:	f94002e1 	ldr	x1, [x23]
   4d42c:	b9400820 	ldr	w0, [x1, #8]
   4d430:	7100001f 	cmp	w0, #0x0
   4d434:	540003ad 	b.le	4d4a8 <execute_shell_function@@Base+0x1888>
   4d438:	a9025bf5 	stp	x21, x22, [sp, #32]
   4d43c:	d2800016 	mov	x22, #0x0                   	// #0
   4d440:	52800015 	mov	w21, #0x0                   	// #0
   4d444:	d503201f 	nop
   4d448:	f9400020 	ldr	x0, [x1]
   4d44c:	f8766813 	ldr	x19, [x0, x22]
   4d450:	b40001f3 	cbz	x19, 4d48c <execute_shell_function@@Base+0x186c>
   4d454:	d503201f 	nop
   4d458:	f9400660 	ldr	x0, [x19, #8]
   4d45c:	97ff8559 	bl	2e9c0 <strlen@plt>
   4d460:	91000400 	add	x0, x0, #0x1
   4d464:	94010fb7 	bl	91340 <xmalloc@@Base>
   4d468:	f9400661 	ldr	x1, [x19, #8]
[31m   4d46c:	97ff87bd 	bl	2f360 <strcpy@plt>[0m
   4d470:	aa0003e1 	mov	x1, x0
   4d474:	f9400a62 	ldr	x2, [x19, #16]
--
   4d564:	a94153f3 	ldp	x19, x20, [sp, #16]
   4d568:	a8c37bfd 	ldp	x29, x30, [sp], #48
   4d56c:	d65f03c0 	ret
   4d570:	a9be7bfd 	stp	x29, x30, [sp, #-32]!
   4d574:	910003fd 	mov	x29, sp
   4d578:	a90153f3 	stp	x19, x20, [sp, #16]
   4d57c:	90000714 	adrp	x20, 12d000 <o_options@@Base+0x2220>
   4d580:	aa0003f3 	mov	x19, x0
   4d584:	f942e680 	ldr	x0, [x20, #1480]
   4d588:	f9400000 	ldr	x0, [x0]
   4d58c:	b4000220 	cbz	x0, 4d5d0 <execute_shell_function@@Base+0x19b0>
   4d590:	f9400660 	ldr	x0, [x19, #8]
   4d594:	b4000040 	cbz	x0, 4d59c <execute_shell_function@@Base+0x197c>
   4d598:	97ff8716 	bl	2f1f0 <free@plt>
   4d59c:	f942e694 	ldr	x20, [x20, #1480]
   4d5a0:	f9400280 	ldr	x0, [x20]
   4d5a4:	97ff8507 	bl	2e9c0 <strlen@plt>
   4d5a8:	91000400 	add	x0, x0, #0x1
   4d5ac:	94010f65 	bl	91340 <xmalloc@@Base>
   4d5b0:	f9400281 	ldr	x1, [x20]
[31m   4d5b4:	97ff876b 	bl	2f360 <strcpy@plt>[0m
   4d5b8:	aa0003e1 	mov	x1, x0
   4d5bc:	f9000661 	str	x1, [x19, #8]
--
   4d71c:	9100e3e0 	add	x0, sp, #0x38
   4d720:	910123f3 	add	x19, sp, #0x48
   4d724:	97ff85f3 	bl	2eef0 <gettimeofday@plt>
   4d728:	f9401ff6 	ldr	x22, [sp, #56]
   4d72c:	9400f8d9 	bl	8ba90 <locale_decpoint@@Base>
   4d730:	b94043e7 	ldr	w7, [sp, #64]
   4d734:	2a0003e6 	mov	w6, w0
   4d738:	d2800403 	mov	x3, #0x20                  	// #32
   4d73c:	2a1603e5 	mov	w5, w22
   4d740:	aa0303e1 	mov	x1, x3
   4d744:	b00004a4 	adrp	x4, e2000 <_IO_stdin_used@@Base+0x1db8>
   4d748:	9134c084 	add	x4, x4, #0xd30
   4d74c:	52800022 	mov	w2, #0x1                   	// #1
   4d750:	aa1303e0 	mov	x0, x19
   4d754:	97ff855b 	bl	2ecc0 <__snprintf_chk@plt>
   4d758:	aa1303e0 	mov	x0, x19
   4d75c:	97ff8499 	bl	2e9c0 <strlen@plt>
   4d760:	91000400 	add	x0, x0, #0x1
   4d764:	94010ef7 	bl	91340 <xmalloc@@Base>
   4d768:	aa1303e1 	mov	x1, x19
[31m   4d76c:	97ff86fd 	bl	2f360 <strcpy@plt>[0m
   4d770:	f9400681 	ldr	x1, [x20, #8]
   4d774:	aa0003f3 	mov	x19, x0
--
   4e240:	f9400800 	ldr	x0, [x0, #16]
   4e244:	b4000060 	cbz	x0, 4e250 <sv_histignore@@Base+0x7b0>
   4e248:	97ff83ea 	bl	2f1f0 <free@plt>
   4e24c:	f9000a7f 	str	xzr, [x19, #16]
   4e250:	b9402a60 	ldr	w0, [x19, #40]
   4e254:	37180580 	tbnz	w0, #3, 4e304 <sv_histignore@@Base+0x864>
   4e258:	52800881 	mov	w1, #0x44                  	// #68
   4e25c:	6a01001f 	tst	w0, w1
   4e260:	54000d80 	b.eq	4e410 <sv_histignore@@Base+0x970>  // b.none
   4e264:	f84086d3 	ldr	x19, [x22], #8
   4e268:	b4000293 	cbz	x19, 4e2b8 <sv_histignore@@Base+0x818>
   4e26c:	b9402a60 	ldr	w0, [x19, #40]
   4e270:	3797fde0 	tbnz	w0, #18, 4e22c <sv_histignore@@Base+0x78c>
   4e274:	f9400a74 	ldr	x20, [x19, #16]
   4e278:	b4fffed4 	cbz	x20, 4e250 <sv_histignore@@Base+0x7b0>
   4e27c:	aa1403e0 	mov	x0, x20
   4e280:	97ff81d0 	bl	2e9c0 <strlen@plt>
   4e284:	91000400 	add	x0, x0, #0x1
   4e288:	94010c2e 	bl	91340 <xmalloc@@Base>
   4e28c:	aa1403e1 	mov	x1, x20
[31m   4e290:	97ff8434 	bl	2f360 <strcpy@plt>[0m
   4e294:	aa0003f5 	mov	x21, x0
   4e298:	93407ef9 	sxtw	x25, w23
--
   4e2a8:	540001c1 	b.ne	4e2e0 <sv_histignore@@Base+0x840>  // b.any
   4e2ac:	110006f7 	add	w23, w23, #0x1
   4e2b0:	f84086d3 	ldr	x19, [x22], #8
   4e2b4:	b5fffdd3 	cbnz	x19, 4e26c <sv_histignore@@Base+0x7cc>
   4e2b8:	8b37cf17 	add	x23, x24, w23, sxtw #3
   4e2bc:	aa1803e0 	mov	x0, x24
   4e2c0:	a94153f3 	ldp	x19, x20, [sp, #16]
   4e2c4:	a9425bf5 	ldp	x21, x22, [sp, #32]
   4e2c8:	a9446bf9 	ldp	x25, x26, [sp, #64]
   4e2cc:	a94573fb 	ldp	x27, x28, [sp, #80]
   4e2d0:	f90002ff 	str	xzr, [x23]
   4e2d4:	a94363f7 	ldp	x23, x24, [sp, #48]
   4e2d8:	a8c77bfd 	ldp	x29, x30, [sp], #112
   4e2dc:	d65f03c0 	ret
   4e2e0:	aa1503e0 	mov	x0, x21
   4e2e4:	97ff81b7 	bl	2e9c0 <strlen@plt>
   4e2e8:	91000400 	add	x0, x0, #0x1
   4e2ec:	94010c15 	bl	91340 <xmalloc@@Base>
   4e2f0:	f8797b01 	ldr	x1, [x24, x25, lsl #3]
   4e2f4:	110006f7 	add	w23, w23, #0x1
[31m   4e2f8:	97ff841a 	bl	2f360 <strcpy@plt>[0m
   4e2fc:	f9000a60 	str	x0, [x19, #16]
   4e300:	17ffffec 	b	4e2b0 <sv_histignore@@Base+0x810>
--
   4fccc:	aa1303e0 	mov	x0, x19
   4fcd0:	94002324 	bl	58960 <evalexp@@Base>
   4fcd4:	b94047e1 	ldr	w1, [sp, #68]
   4fcd8:	340008e1 	cbz	w1, 4fdf4 <make_variable_value@@Base+0x194>
   4fcdc:	8b0002e0 	add	x0, x23, x0
   4fce0:	a94363f7 	ldp	x23, x24, [sp, #48]
   4fce4:	9401833f 	bl	b09e0 <itos@@Base>
   4fce8:	aa0003f4 	mov	x20, x0
   4fcec:	1400000e 	b	4fd24 <make_variable_value@@Base+0xc4>
   4fcf0:	7218083f 	tst	w1, #0x700
   4fcf4:	54000361 	b.ne	4fd60 <make_variable_value@@Base+0x100>  // b.any
   4fcf8:	b40007b3 	cbz	x19, 4fdec <make_variable_value@@Base+0x18c>
   4fcfc:	37000c34 	tbnz	w20, #0, 4fe80 <make_variable_value@@Base+0x220>
   4fd00:	39400260 	ldrb	w0, [x19]
   4fd04:	34000240 	cbz	w0, 4fd4c <make_variable_value@@Base+0xec>
   4fd08:	aa1303e0 	mov	x0, x19
   4fd0c:	97ff7b2d 	bl	2e9c0 <strlen@plt>
   4fd10:	91000400 	add	x0, x0, #0x1
   4fd14:	9401058b 	bl	91340 <xmalloc@@Base>
   4fd18:	aa1303e1 	mov	x1, x19
[31m   4fd1c:	97ff7d91 	bl	2f360 <strcpy@plt>[0m
   4fd20:	aa0003f4 	mov	x20, x0
   4fd24:	f9432ab5 	ldr	x21, [x21, #1616]
--
   4fd34:	b50015c0 	cbnz	x0, 4ffec <make_variable_value@@Base+0x38c>
   4fd38:	aa1403e0 	mov	x0, x20
   4fd3c:	a94153f3 	ldp	x19, x20, [sp, #16]
   4fd40:	a9425bf5 	ldp	x21, x22, [sp, #32]
   4fd44:	a8c57bfd 	ldp	x29, x30, [sp], #80
   4fd48:	d65f03c0 	ret
   4fd4c:	d2800020 	mov	x0, #0x1                   	// #1
   4fd50:	9401057c 	bl	91340 <xmalloc@@Base>
   4fd54:	aa0003f4 	mov	x20, x0
   4fd58:	3900001f 	strb	wzr, [x0]
   4fd5c:	17fffff2 	b	4fd24 <make_variable_value@@Base+0xc4>
   4fd60:	a90363f7 	stp	x23, x24, [sp, #48]
   4fd64:	37000bb4 	tbnz	w20, #0, 4fed8 <make_variable_value@@Base+0x278>
   4fd68:	39400260 	ldrb	w0, [x19]
   4fd6c:	34000ac0 	cbz	w0, 4fec4 <make_variable_value@@Base+0x264>
   4fd70:	aa1303e0 	mov	x0, x19
   4fd74:	97ff7b13 	bl	2e9c0 <strlen@plt>
   4fd78:	91000400 	add	x0, x0, #0x1
   4fd7c:	94010571 	bl	91340 <xmalloc@@Base>
   4fd80:	aa1303e1 	mov	x1, x19
[31m   4fd84:	97ff7d77 	bl	2f360 <strcpy@plt>[0m
   4fd88:	aa0003f7 	mov	x23, x0
   4fd8c:	b9402ac0 	ldr	w0, [x22, #40]
--
   4fe18:	39400680 	ldrb	w0, [x20, #1]
   4fe1c:	34000a80 	cbz	w0, 4ff6c <make_variable_value@@Base+0x30c>
   4fe20:	39400a80 	ldrb	w0, [x20, #2]
   4fe24:	34000d20 	cbz	w0, 4ffc8 <make_variable_value@@Base+0x368>
   4fe28:	aa1403e0 	mov	x0, x20
   4fe2c:	97ff7ae5 	bl	2e9c0 <strlen@plt>
   4fe30:	93407c17 	sxtw	x23, w0
   4fe34:	910006f6 	add	x22, x23, #0x1
   4fe38:	b4000393 	cbz	x19, 4fea8 <make_variable_value@@Base+0x248>
   4fe3c:	39400260 	ldrb	w0, [x19]
   4fe40:	340000c0 	cbz	w0, 4fe58 <make_variable_value@@Base+0x1f8>
   4fe44:	39400660 	ldrb	w0, [x19, #1]
   4fe48:	340008e0 	cbz	w0, 4ff64 <make_variable_value@@Base+0x304>
   4fe4c:	39400a60 	ldrb	w0, [x19, #2]
   4fe50:	35000b40 	cbnz	w0, 4ffb8 <make_variable_value@@Base+0x358>
   4fe54:	91000ef6 	add	x22, x23, #0x3
   4fe58:	aa1603e0 	mov	x0, x22
   4fe5c:	94010539 	bl	91340 <xmalloc@@Base>
   4fe60:	aa1403e1 	mov	x1, x20
   4fe64:	aa0003f4 	mov	x20, x0
[31m   4fe68:	97ff7d3e 	bl	2f360 <strcpy@plt>[0m
   4fe6c:	8b170280 	add	x0, x20, x23
   4fe70:	aa1303e1 	mov	x1, x19
[31m   4fe74:	97ff7d3b 	bl	2f360 <strcpy@plt>[0m
   4fe78:	a94363f7 	ldp	x23, x24, [sp, #48]
   4fe7c:	17ffffaa 	b	4fd24 <make_variable_value@@Base+0xc4>
   4fe80:	aa1603e0 	mov	x0, x22
   4fe84:	a90363f7 	stp	x23, x24, [sp, #48]
   4fe88:	97fffe16 	bl	4f6e0 <get_variable_value@@Base>
   4fe8c:	aa0003f4 	mov	x20, x0
   4fe90:	b5fffbc0 	cbnz	x0, 4fe08 <make_variable_value@@Base+0x1a8>
   4fe94:	f0000494 	adrp	x20, e2000 <_IO_stdin_used@@Base+0x1db8>
   4fe98:	91206294 	add	x20, x20, #0x818
   4fe9c:	d2800017 	mov	x23, #0x0                   	// #0
   4fea0:	d2800036 	mov	x22, #0x1                   	// #1
   4fea4:	17ffffe6 	b	4fe3c <make_variable_value@@Base+0x1dc>
   4fea8:	aa1603e0 	mov	x0, x22
   4feac:	94010525 	bl	91340 <xmalloc@@Base>
   4feb0:	aa1403e1 	mov	x1, x20
   4feb4:	aa0003f4 	mov	x20, x0
[31m   4feb8:	97ff7d2a 	bl	2f360 <strcpy@plt>[0m
   4febc:	a94363f7 	ldp	x23, x24, [sp, #48]
   4fec0:	17ffff99 	b	4fd24 <make_variable_value@@Base+0xc4>
--
   4ff00:	34000701 	cbz	w1, 4ffe0 <make_variable_value@@Base+0x380>
   4ff04:	97ff7aaf 	bl	2e9c0 <strlen@plt>
   4ff08:	93407c18 	sxtw	x24, w0
   4ff0c:	91000717 	add	x23, x24, #0x1
   4ff10:	b4000493 	cbz	x19, 4ffa0 <make_variable_value@@Base+0x340>
   4ff14:	39400261 	ldrb	w1, [x19]
   4ff18:	d2800000 	mov	x0, #0x0                   	// #0
   4ff1c:	34000121 	cbz	w1, 4ff40 <make_variable_value@@Base+0x2e0>
   4ff20:	39400661 	ldrb	w1, [x19, #1]
   4ff24:	d2800020 	mov	x0, #0x1                   	// #1
   4ff28:	340000c1 	cbz	w1, 4ff40 <make_variable_value@@Base+0x2e0>
   4ff2c:	39400a61 	ldrb	w1, [x19, #2]
   4ff30:	d2800040 	mov	x0, #0x2                   	// #2
   4ff34:	34000061 	cbz	w1, 4ff40 <make_variable_value@@Base+0x2e0>
   4ff38:	aa1303e0 	mov	x0, x19
   4ff3c:	97ff7aa1 	bl	2e9c0 <strlen@plt>
   4ff40:	8b0002e0 	add	x0, x23, x0
   4ff44:	940104ff 	bl	91340 <xmalloc@@Base>
   4ff48:	aa1403e1 	mov	x1, x20
   4ff4c:	aa0003f7 	mov	x23, x0
[31m   4ff50:	97ff7d04 	bl	2f360 <strcpy@plt>[0m
   4ff54:	aa1303e1 	mov	x1, x19
   4ff58:	8b1802e0 	add	x0, x23, x24
[31m   4ff5c:	97ff7d01 	bl	2f360 <strcpy@plt>[0m
   4ff60:	17ffff8b 	b	4fd8c <make_variable_value@@Base+0x12c>
   4ff64:	91000af6 	add	x22, x23, #0x2
   4ff68:	17ffffbc 	b	4fe58 <make_variable_value@@Base+0x1f8>
   4ff6c:	d2800056 	mov	x22, #0x2                   	// #2
   4ff70:	d2800037 	mov	x23, #0x1                   	// #1
   4ff74:	17ffffb1 	b	4fe38 <make_variable_value@@Base+0x1d8>
   4ff78:	f0000494 	adrp	x20, e2000 <_IO_stdin_used@@Base+0x1db8>
   4ff7c:	91206294 	add	x20, x20, #0x818
   4ff80:	d2800037 	mov	x23, #0x1                   	// #1
   4ff84:	d2800018 	mov	x24, #0x0                   	// #0
   4ff88:	17ffffe2 	b	4ff10 <make_variable_value@@Base+0x2b0>
   4ff8c:	f0000494 	adrp	x20, e2000 <_IO_stdin_used@@Base+0x1db8>
   4ff90:	91206294 	add	x20, x20, #0x818
   4ff94:	d2800036 	mov	x22, #0x1                   	// #1
   4ff98:	d2800017 	mov	x23, #0x0                   	// #0
   4ff9c:	17ffffa7 	b	4fe38 <make_variable_value@@Base+0x1d8>
   4ffa0:	aa1703e0 	mov	x0, x23
   4ffa4:	940104e7 	bl	91340 <xmalloc@@Base>
   4ffa8:	aa1403e1 	mov	x1, x20
   4ffac:	aa0003f7 	mov	x23, x0
[31m   4ffb0:	97ff7cec 	bl	2f360 <strcpy@plt>[0m
   4ffb4:	17ffff76 	b	4fd8c <make_variable_value@@Base+0x12c>
   4ffb8:	aa1303e0 	mov	x0, x19
--
   50238:	b9002a61 	str	w1, [x19, #40]
   5023c:	36000080 	tbz	w0, #0, 5024c <bind_function@@Base+0x8c>
   50240:	d00006e0 	adrp	x0, 12e000 <__data_start@@Base>
   50244:	52800021 	mov	w1, #0x1                   	// #1
   50248:	b9040401 	str	w1, [x0, #1028]
   5024c:	b00006e0 	adrp	x0, 12d000 <o_options@@Base+0x2220>
   50250:	f9449000 	ldr	x0, [x0, #2336]
   50254:	9400fc0f 	bl	8f290 <set_itemlist_dirty@@Base>
   50258:	aa1303e0 	mov	x0, x19
   5025c:	a94153f3 	ldp	x19, x20, [sp, #16]
   50260:	a9425bf5 	ldp	x21, x22, [sp, #32]
   50264:	a8c37bfd 	ldp	x29, x30, [sp], #48
   50268:	d65f03c0 	ret
   5026c:	f900067f 	str	xzr, [x19, #8]
   50270:	17ffffe8 	b	50210 <bind_function@@Base+0x50>
   50274:	aa1503e0 	mov	x0, x21
   50278:	97ff79d2 	bl	2e9c0 <strlen@plt>
   5027c:	91000400 	add	x0, x0, #0x1
   50280:	94010430 	bl	91340 <xmalloc@@Base>
   50284:	aa1503e1 	mov	x1, x21
[31m   50288:	97ff7c36 	bl	2f360 <strcpy@plt>[0m
   5028c:	f0000721 	adrp	x1, 137000 <line_number_base@@Base+0xb58>
   50290:	52800022 	mov	w2, #0x1                   	// #1
--
   502f4:	d65f03c0 	ret
   502f8:	aa0003f3 	mov	x19, x0
   502fc:	97ffd179 	bl	448e0 <dispose_function_def_contents@@Base>
   50300:	aa1303e1 	mov	x1, x19
   50304:	aa1403e0 	mov	x0, x20
   50308:	a94153f3 	ldp	x19, x20, [sp, #16]
   5030c:	a9425bf5 	ldp	x21, x22, [sp, #32]
   50310:	a8c37bfd 	ldp	x29, x30, [sp], #48
   50314:	14001623 	b	55ba0 <copy_function_def_contents@@Base>
   50318:	f9400a93 	ldr	x19, [x20, #16]
   5031c:	f9000a9f 	str	xzr, [x20, #16]
   50320:	aa1403e0 	mov	x0, x20
   50324:	94001643 	bl	55c30 <copy_function_def@@Base>
   50328:	f9000a93 	str	x19, [x20, #16]
   5032c:	aa0003f3 	mov	x19, x0
   50330:	aa1603e0 	mov	x0, x22
   50334:	97ff79a3 	bl	2e9c0 <strlen@plt>
   50338:	91000400 	add	x0, x0, #0x1
   5033c:	94010401 	bl	91340 <xmalloc@@Base>
   50340:	aa1603e1 	mov	x1, x22
[31m   50344:	97ff7c07 	bl	2f360 <strcpy@plt>[0m
   50348:	f0000721 	adrp	x1, 137000 <line_number_base@@Base+0xb58>
   5034c:	52800022 	mov	w2, #0x1                   	// #1
--
   509b4:	b4000681 	cbz	x1, 50a84 <all_variables_matching_prefix@@Base+0x144>
   509b8:	aa1803f4 	mov	x20, x24
   509bc:	93407f3b 	sxtw	x27, w25
   509c0:	52800015 	mov	w21, #0x0                   	// #0
   509c4:	14000007 	b	509e0 <all_variables_matching_prefix@@Base+0xa0>
   509c8:	394002e1 	ldrb	w1, [x23]
   509cc:	394002c0 	ldrb	w0, [x22]
   509d0:	6b00003f 	cmp	w1, w0
   509d4:	540003a0 	b.eq	50a48 <all_variables_matching_prefix@@Base+0x108>  // b.none
   509d8:	f8408e81 	ldr	x1, [x20, #8]!
   509dc:	b40001e1 	cbz	x1, 50a18 <all_variables_matching_prefix@@Base+0xd8>
   509e0:	110006ba 	add	w26, w21, #0x1
   509e4:	f9400036 	ldr	x22, [x1]
   509e8:	35ffff19 	cbnz	w25, 509c8 <all_variables_matching_prefix@@Base+0x88>
   509ec:	aa1603e0 	mov	x0, x22
   509f0:	97ff77f4 	bl	2e9c0 <strlen@plt>
   509f4:	91000400 	add	x0, x0, #0x1
   509f8:	94010252 	bl	91340 <xmalloc@@Base>
   509fc:	f9400281 	ldr	x1, [x20]
   50a00:	f9400021 	ldr	x1, [x1]
[31m   50a04:	97ff7a57 	bl	2f360 <strcpy@plt>[0m
   50a08:	f835da60 	str	x0, [x19, w21, sxtw #3]
   50a0c:	f8408e81 	ldr	x1, [x20, #8]!
--
   50c7c:	350001fb 	cbnz	w27, 50cb8 <add_or_supercede_exported_var@@Base+0x188>
   50c80:	9118235a 	add	x26, x26, #0x608
   50c84:	a94153f3 	ldp	x19, x20, [sp, #16]
   50c88:	f9404340 	ldr	x0, [x26, #128]
   50c8c:	b9407f41 	ldr	w1, [x26, #124]
   50c90:	a94573fb 	ldp	x27, x28, [sp, #80]
   50c94:	11000422 	add	w2, w1, #0x1
   50c98:	b9007f42 	str	w2, [x26, #124]
   50c9c:	8b21cc02 	add	x2, x0, w1, sxtw #3
   50ca0:	f821d815 	str	x21, [x0, w1, sxtw #3]
   50ca4:	a9446bf9 	ldp	x25, x26, [sp, #64]
   50ca8:	f900045f 	str	xzr, [x2, #8]
   50cac:	a9425bf5 	ldp	x21, x22, [sp, #32]
   50cb0:	a8c67bfd 	ldp	x29, x30, [sp], #96
   50cb4:	d65f03c0 	ret
   50cb8:	aa1503e0 	mov	x0, x21
   50cbc:	97ff7741 	bl	2e9c0 <strlen@plt>
   50cc0:	91000400 	add	x0, x0, #0x1
   50cc4:	9401019f 	bl	91340 <xmalloc@@Base>
   50cc8:	aa1503e1 	mov	x1, x21
[31m   50ccc:	97ff79a5 	bl	2f360 <strcpy@plt>[0m
   50cd0:	aa0003f5 	mov	x21, x0
   50cd4:	17ffffeb 	b	50c80 <add_or_supercede_exported_var@@Base+0x150>
   50cd8:	f9404260 	ldr	x0, [x19, #128]
   50cdc:	11004021 	add	w1, w1, #0x10
   50ce0:	b9008a61 	str	w1, [x19, #136]
   50ce4:	94018abf 	bl	b37e0 <strvec_resize@@Base>
   50ce8:	f9004260 	str	x0, [x19, #128]
   50cec:	b00006e1 	adrp	x1, 12d000 <o_options@@Base+0x2220>
   50cf0:	f9461021 	ldr	x1, [x1, #3104]
   50cf4:	f9000020 	str	x0, [x1]
   50cf8:	34fffc5b 	cbz	w27, 50c80 <add_or_supercede_exported_var@@Base+0x150>
   50cfc:	17ffffef 	b	50cb8 <add_or_supercede_exported_var@@Base+0x188>
   50d00:	aa1503e0 	mov	x0, x21
   50d04:	97ff772f 	bl	2e9c0 <strlen@plt>
   50d08:	91000400 	add	x0, x0, #0x1
   50d0c:	9401018d 	bl	91340 <xmalloc@@Base>
   50d10:	aa1503e1 	mov	x1, x21
[31m   50d14:	97ff7993 	bl	2f360 <strcpy@plt>[0m
   50d18:	aa0003f5 	mov	x21, x0
   50d1c:	17ffffb5 	b	50bf0 <add_or_supercede_exported_var@@Base+0xc0>
--
   50d28:	d503201f 	nop
   50d2c:	d503201f 	nop

0000000000050d30 <update_export_env_inplace@@Base>:
   50d30:	a9bd7bfd 	stp	x29, x30, [sp, #-48]!
   50d34:	910003fd 	mov	x29, sp
   50d38:	a90153f3 	stp	x19, x20, [sp, #16]
   50d3c:	93407c34 	sxtw	x20, w1
   50d40:	a9025bf5 	stp	x21, x22, [sp, #32]
   50d44:	aa0003f6 	mov	x22, x0
   50d48:	91000695 	add	x21, x20, #0x1
   50d4c:	b40003e2 	cbz	x2, 50dc8 <update_export_env_inplace@@Base+0x98>
   50d50:	39400041 	ldrb	w1, [x2]
   50d54:	aa0203f3 	mov	x19, x2
   50d58:	d2800000 	mov	x0, #0x0                   	// #0
   50d5c:	35000241 	cbnz	w1, 50da4 <update_export_env_inplace@@Base+0x74>
   50d60:	8b150000 	add	x0, x0, x21
   50d64:	94010177 	bl	91340 <xmalloc@@Base>
   50d68:	aa1603e1 	mov	x1, x22
   50d6c:	aa0003f5 	mov	x21, x0
[31m   50d70:	97ff797c 	bl	2f360 <strcpy@plt>[0m
   50d74:	aa1303e1 	mov	x1, x19
   50d78:	8b1402a0 	add	x0, x21, x20
[31m   50d7c:	97ff7979 	bl	2f360 <strcpy@plt>[0m
   50d80:	aa1503e0 	mov	x0, x21
   50d84:	52800001 	mov	w1, #0x0                   	// #0
   50d88:	97ffff6a 	bl	50b30 <add_or_supercede_exported_var@@Base>
   50d8c:	f0000721 	adrp	x1, 137000 <line_number_base@@Base+0xb58>
   50d90:	a94153f3 	ldp	x19, x20, [sp, #16]
   50d94:	f9034420 	str	x0, [x1, #1672]
   50d98:	a9425bf5 	ldp	x21, x22, [sp, #32]
   50d9c:	a8c37bfd 	ldp	x29, x30, [sp], #48
   50da0:	d65f03c0 	ret
   50da4:	39400441 	ldrb	w1, [x2, #1]
   50da8:	d2800020 	mov	x0, #0x1                   	// #1
   50dac:	34fffda1 	cbz	w1, 50d60 <update_export_env_inplace@@Base+0x30>
   50db0:	39400841 	ldrb	w1, [x2, #2]
   50db4:	d2800040 	mov	x0, #0x2                   	// #2
   50db8:	34fffd41 	cbz	w1, 50d60 <update_export_env_inplace@@Base+0x30>
   50dbc:	aa0203e0 	mov	x0, x2
   50dc0:	97ff7700 	bl	2e9c0 <strlen@plt>
   50dc4:	17ffffe7 	b	50d60 <update_export_env_inplace@@Base+0x30>
   50dc8:	aa1503e0 	mov	x0, x21
   50dcc:	9401015d 	bl	91340 <xmalloc@@Base>
   50dd0:	aa1603e1 	mov	x1, x22
   50dd4:	aa0003f5 	mov	x21, x0
[31m   50dd8:	97ff7962 	bl	2f360 <strcpy@plt>[0m
   50ddc:	17ffffe9 	b	50d80 <update_export_env_inplace@@Base+0x50>

--
   50df4:	d503201f 	nop
   50df8:	d503201f 	nop
   50dfc:	d503201f 	nop

0000000000050e00 <new_var_context@@Base>:
   50e00:	a9bd7bfd 	stp	x29, x30, [sp, #-48]!
   50e04:	910003fd 	mov	x29, sp
   50e08:	a90153f3 	stp	x19, x20, [sp, #16]
   50e0c:	aa0003f4 	mov	x20, x0
   50e10:	d2800500 	mov	x0, #0x28                  	// #40
   50e14:	f90013f5 	str	x21, [sp, #32]
   50e18:	2a0103f5 	mov	w21, w1
   50e1c:	94010149 	bl	91340 <xmalloc@@Base>
   50e20:	aa0003f3 	mov	x19, x0
   50e24:	b4000114 	cbz	x20, 50e44 <new_var_context@@Base+0x44>
   50e28:	aa1403e0 	mov	x0, x20
   50e2c:	97ff76e5 	bl	2e9c0 <strlen@plt>
   50e30:	91000400 	add	x0, x0, #0x1
   50e34:	94010143 	bl	91340 <xmalloc@@Base>
   50e38:	aa1403e1 	mov	x1, x20
[31m   50e3c:	97ff7949 	bl	2f360 <strcpy@plt>[0m
   50e40:	aa0003f4 	mov	x20, x0
   50e44:	f0000720 	adrp	x0, 137000 <line_number_base@@Base+0xb58>
--
   50f10:	a8c37bfd 	ldp	x29, x30, [sp], #48
   50f14:	d65f03c0 	ret
   50f18:	d503201f 	nop
   50f1c:	d503201f 	nop
   50f20:	a9bd7bfd 	stp	x29, x30, [sp, #-48]!
   50f24:	910003fd 	mov	x29, sp
   50f28:	a90153f3 	stp	x19, x20, [sp, #16]
   50f2c:	aa0003f4 	mov	x20, x0
   50f30:	f90013f5 	str	x21, [sp, #32]
   50f34:	aa0103f5 	mov	x21, x1
   50f38:	97fff022 	bl	4cfc0 <execute_shell_function@@Base+0x13a0>
   50f3c:	aa0003f3 	mov	x19, x0
   50f40:	f0000721 	adrp	x1, 137000 <line_number_base@@Base+0xb58>
   50f44:	f9434c21 	ldr	x1, [x1, #1688]
   50f48:	b4000221 	cbz	x1, 50f8c <new_var_context@@Base+0x18c>
   50f4c:	aa1403e0 	mov	x0, x20
   50f50:	97ff769c 	bl	2e9c0 <strlen@plt>
   50f54:	91000400 	add	x0, x0, #0x1
   50f58:	940100fa 	bl	91340 <xmalloc@@Base>
   50f5c:	aa1403e1 	mov	x1, x20
[31m   50f60:	97ff7900 	bl	2f360 <strcpy@plt>[0m
   50f64:	aa1503e1 	mov	x1, x21
   50f68:	52800022 	mov	w2, #0x1                   	// #1
--
   51418:	d2800013 	mov	x19, #0x0                   	// #0
   5141c:	17fffefd 	b	51010 <new_var_context@@Base+0x210>
   51420:	aa1403e2 	mov	x2, x20
   51424:	d2800001 	mov	x1, #0x0                   	// #0
   51428:	aa1503e0 	mov	x0, x21
   5142c:	9400ac91 	bl	7c670 <array_insert@@Base>
   51430:	aa1403e0 	mov	x0, x20
   51434:	97ff776f 	bl	2f1f0 <free@plt>
   51438:	b9402a61 	ldr	w1, [x19, #40]
   5143c:	17fffeec 	b	50fec <new_var_context@@Base+0x1ec>
   51440:	aa1703e0 	mov	x0, x23
   51444:	d2800013 	mov	x19, #0x0                   	// #0
   51448:	94010926 	bl	938e0 <sh_invalidid@@Base>
   5144c:	17fffef1 	b	51010 <new_var_context@@Base+0x210>
   51450:	aa1503e0 	mov	x0, x21
   51454:	910022c1 	add	x1, x22, #0x8
   51458:	9400ffce 	bl	91390 <xrealloc@@Base>
   5145c:	aa0003f5 	mov	x21, x0
   51460:	aa1403e1 	mov	x1, x20
   51464:	8b1602a0 	add	x0, x21, x22
[31m   51468:	97ff77be 	bl	2f360 <strcpy@plt>[0m
   5146c:	17ffff0e 	b	510a4 <new_var_context@@Base+0x2a4>
   51470:	aa1403e0 	mov	x0, x20
--
   51594:	39400002 	ldrb	w2, [x0]
   51598:	aa1503e1 	mov	x1, x21
   5159c:	6b160042 	subs	w2, w2, w22
   515a0:	54ffff21 	b.ne	51584 <new_var_context@@Base+0x784>  // b.any
   515a4:	97ff76ef 	bl	2f160 <strcmp@plt>
   515a8:	2a0003e2 	mov	w2, w0
   515ac:	35fffec0 	cbnz	w0, 51584 <new_var_context@@Base+0x784>
   515b0:	aa1503e0 	mov	x0, x21
   515b4:	97ff7503 	bl	2e9c0 <strlen@plt>
   515b8:	91000400 	add	x0, x0, #0x1
   515bc:	9400ff61 	bl	91340 <xmalloc@@Base>
   515c0:	900006e2 	adrp	x2, 12d000 <o_options@@Base+0x2220>
   515c4:	f00006c3 	adrp	x3, 12c000 <o_options@@Base+0x1220>
   515c8:	f9400261 	ldr	x1, [x19]
   515cc:	f9469842 	ldr	x2, [x2, #3376]
   515d0:	f9476063 	ldr	x3, [x3, #3776]
   515d4:	b9400054 	ldr	w20, [x2]
   515d8:	f9400075 	ldr	x21, [x3]
   515dc:	11000683 	add	w3, w20, #0x1
   515e0:	b9000043 	str	w3, [x2]
[31m   515e4:	97ff775f 	bl	2f360 <strcpy@plt>[0m
   515e8:	f834daa0 	str	x0, [x21, w20, sxtw #3]
   515ec:	aa1303e0 	mov	x0, x19
--
   516b0:	39400002 	ldrb	w2, [x0]
   516b4:	aa1503e1 	mov	x1, x21
   516b8:	6b160042 	subs	w2, w2, w22
   516bc:	54ffff21 	b.ne	516a0 <new_var_context@@Base+0x8a0>  // b.any
   516c0:	97ff76a8 	bl	2f160 <strcmp@plt>
   516c4:	2a0003e2 	mov	w2, w0
   516c8:	35fffec0 	cbnz	w0, 516a0 <new_var_context@@Base+0x8a0>
   516cc:	aa1503e0 	mov	x0, x21
   516d0:	97ff74bc 	bl	2e9c0 <strlen@plt>
   516d4:	91000400 	add	x0, x0, #0x1
   516d8:	9400ff1a 	bl	91340 <xmalloc@@Base>
   516dc:	900006e2 	adrp	x2, 12d000 <o_options@@Base+0x2220>
   516e0:	f00006c3 	adrp	x3, 12c000 <o_options@@Base+0x1220>
   516e4:	f9400261 	ldr	x1, [x19]
   516e8:	f9469842 	ldr	x2, [x2, #3376]
   516ec:	f9476063 	ldr	x3, [x3, #3776]
   516f0:	b9400054 	ldr	w20, [x2]
   516f4:	f9400075 	ldr	x21, [x3]
   516f8:	11000683 	add	w3, w20, #0x1
   516fc:	b9000043 	str	w3, [x2]
[31m   51700:	97ff7718 	bl	2f360 <strcpy@plt>[0m
   51704:	f834daa0 	str	x0, [x21, w20, sxtw #3]
   51708:	aa1303e0 	mov	x0, x19
--
   51930:	54000680 	b.eq	51a00 <make_local_variable@@Base+0x270>  // b.none
   51934:	900006e1 	adrp	x1, 12d000 <o_options@@Base+0x2220>
   51938:	f9452421 	ldr	x1, [x1, #2632]
   5193c:	b9400021 	ldr	w1, [x1]
   51940:	2a0102d6 	orr	w22, w22, w1
   51944:	35fff6b6 	cbnz	w22, 51818 <make_local_variable@@Base+0x88>
   51948:	f9400740 	ldr	x0, [x26, #8]
   5194c:	b5fff660 	cbnz	x0, 51818 <make_local_variable@@Base+0x88>
   51950:	b9402b40 	ldr	w0, [x26, #40]
   51954:	32140000 	orr	w0, w0, #0x1000
   51958:	b9002b40 	str	w0, [x26, #40]
   5195c:	17ffffaf 	b	51818 <make_local_variable@@Base+0x88>
   51960:	f9400680 	ldr	x0, [x20, #8]
   51964:	373003e2 	tbnz	w2, #6, 519e0 <make_local_variable@@Base+0x250>
   51968:	37100882 	tbnz	w2, #2, 51a78 <make_local_variable@@Base+0x2e8>
   5196c:	b4000900 	cbz	x0, 51a8c <make_local_variable@@Base+0x2fc>
   51970:	97ff7414 	bl	2e9c0 <strlen@plt>
   51974:	91000400 	add	x0, x0, #0x1
   51978:	9400fe72 	bl	91340 <xmalloc@@Base>
   5197c:	f9400681 	ldr	x1, [x20, #8]
[31m   51980:	97ff7678 	bl	2f360 <strcpy@plt>[0m
   51984:	b940c323 	ldr	w3, [x25, #192]
   51988:	b9402a82 	ldr	w2, [x20, #40]
--
   519f0:	f9000740 	str	x0, [x26, #8]
   519f4:	35fffd03 	cbnz	w3, 51994 <make_local_variable@@Base+0x204>
   519f8:	3707fcf8 	tbnz	w24, #0, 51994 <make_local_variable@@Base+0x204>
   519fc:	17ffffc3 	b	51908 <make_local_variable@@Base+0x178>
   51a00:	394006a0 	ldrb	w0, [x21, #1]
   51a04:	7101181f 	cmp	w0, #0x46
   51a08:	54fff961 	b.ne	51934 <make_local_variable@@Base+0x1a4>  // b.any
   51a0c:	39400aa0 	ldrb	w0, [x21, #2]
   51a10:	71014c1f 	cmp	w0, #0x53
   51a14:	54fff901 	b.ne	51934 <make_local_variable@@Base+0x1a4>  // b.any
   51a18:	39400ea0 	ldrb	w0, [x21, #3]
   51a1c:	35fff8c0 	cbnz	w0, 51934 <make_local_variable@@Base+0x1a4>
   51a20:	aa1a03e0 	mov	x0, x26
   51a24:	94006367 	bl	6a7c0 <setifs@@Base>
   51a28:	17ffffc3 	b	51934 <make_local_variable@@Base+0x1a4>
   51a2c:	aa1903e0 	mov	x0, x25
   51a30:	97ff73e4 	bl	2e9c0 <strlen@plt>
   51a34:	91000400 	add	x0, x0, #0x1
   51a38:	9400fe42 	bl	91340 <xmalloc@@Base>
   51a3c:	aa1903e1 	mov	x1, x25
[31m   51a40:	97ff7648 	bl	2f360 <strcpy@plt>[0m
   51a44:	911822e1 	add	x1, x23, #0x608
   51a48:	b9402a82 	ldr	w2, [x20, #40]
--
   5206c:	f100029f 	cmp	x20, #0x0
   52070:	7a401aa4 	ccmp	w21, #0x0, #0x4, ne  // ne = any
   52074:	54000300 	b.eq	520d4 <bind_variable@@Base+0x254>  // b.none
   52078:	aa1403e1 	mov	x1, x20
   5207c:	aa1703e0 	mov	x0, x23
   52080:	52800002 	mov	w2, #0x0                   	// #0
   52084:	940087b3 	bl	73f50 <hash_search@@Base>
   52088:	b4000260 	cbz	x0, 520d4 <bind_variable@@Base+0x254>
   5208c:	91182301 	add	x1, x24, #0x608
   52090:	f9400813 	ldr	x19, [x0, #16]
   52094:	f9002834 	str	x20, [x1, #80]
   52098:	b40001f3 	cbz	x19, 520d4 <bind_variable@@Base+0x254>
   5209c:	f9400660 	ldr	x0, [x19, #8]
   520a0:	b4000040 	cbz	x0, 520a8 <bind_variable@@Base+0x228>
   520a4:	97ff7453 	bl	2f1f0 <free@plt>
   520a8:	aa1a03e0 	mov	x0, x26
   520ac:	97ff7245 	bl	2e9c0 <strlen@plt>
   520b0:	91000400 	add	x0, x0, #0x1
   520b4:	9400fca3 	bl	91340 <xmalloc@@Base>
   520b8:	aa1a03e1 	mov	x1, x26
[31m   520bc:	97ff74a9 	bl	2f360 <strcpy@plt>[0m
   520c0:	f9000660 	str	x0, [x19, #8]
   520c4:	f9400a60 	ldr	x0, [x19, #16]
--
   52988:	39400002 	ldrb	w2, [x0]
   5298c:	aa1503e1 	mov	x1, x21
   52990:	6b160042 	subs	w2, w2, w22
   52994:	54ffff21 	b.ne	52978 <set_var_read_only@@Base+0xd8>  // b.any
   52998:	97ff71f2 	bl	2f160 <strcmp@plt>
   5299c:	2a0003e2 	mov	w2, w0
   529a0:	35fffec0 	cbnz	w0, 52978 <set_var_read_only@@Base+0xd8>
   529a4:	aa1503e0 	mov	x0, x21
   529a8:	97ff7006 	bl	2e9c0 <strlen@plt>
   529ac:	91000400 	add	x0, x0, #0x1
   529b0:	9400fa64 	bl	91340 <xmalloc@@Base>
   529b4:	f00006c2 	adrp	x2, 12d000 <o_options@@Base+0x2220>
   529b8:	d00006c3 	adrp	x3, 12c000 <o_options@@Base+0x1220>
   529bc:	f9400261 	ldr	x1, [x19]
   529c0:	f9469842 	ldr	x2, [x2, #3376]
   529c4:	f9476063 	ldr	x3, [x3, #3776]
   529c8:	b9400054 	ldr	w20, [x2]
   529cc:	f9400075 	ldr	x21, [x3]
   529d0:	11000683 	add	w3, w20, #0x1
   529d4:	b9000043 	str	w3, [x2]
[31m   529d8:	97ff7262 	bl	2f360 <strcpy@plt>[0m
   529dc:	f834daa0 	str	x0, [x21, w20, sxtw #3]
   529e0:	aa1303e0 	mov	x0, x19
--

0000000000053490 <assign_in_env@@Base>:
   53490:	a9bb7bfd 	stp	x29, x30, [sp, #-80]!
   53494:	910003fd 	mov	x29, sp
   53498:	a90153f3 	stp	x19, x20, [sp, #16]
   5349c:	f9400014 	ldr	x20, [x0]
   534a0:	a9025bf5 	stp	x21, x22, [sp, #32]
   534a4:	d2800015 	mov	x21, #0x0                   	// #0
   534a8:	aa1403e0 	mov	x0, x20
   534ac:	a90363f7 	stp	x23, x24, [sp, #48]
   534b0:	2a0103f7 	mov	w23, w1
   534b4:	52800001 	mov	w1, #0x0                   	// #0
   534b8:	a9046bf9 	stp	x25, x26, [sp, #64]
   534bc:	97ffaf21 	bl	3f140 <assignment@@Base>
   534c0:	93407c16 	sxtw	x22, w0
   534c4:	aa1403e0 	mov	x0, x20
   534c8:	97ff6d3e 	bl	2e9c0 <strlen@plt>
   534cc:	91000400 	add	x0, x0, #0x1
   534d0:	9400f79c 	bl	91340 <xmalloc@@Base>
   534d4:	aa1403e1 	mov	x1, x20
[31m   534d8:	97ff6fa2 	bl	2f360 <strcpy@plt>[0m
   534dc:	aa0003f4 	mov	x20, x0
   534e0:	aa0003f8 	mov	x24, x0
--
   53864:	91100000 	add	x0, x0, #0x400
   53868:	b9400402 	ldr	w2, [x0, #4]
   5386c:	11000442 	add	w2, w2, #0x1
   53870:	b9000402 	str	w2, [x0, #4]
   53874:	36280161 	tbz	w1, #5, 538a0 <makunbound@@Base+0x90>
   53878:	90000720 	adrp	x0, 137000 <line_number_base@@Base+0xb58>
   5387c:	91182003 	add	x3, x0, #0x608
   53880:	b9402ec2 	ldr	w2, [x22, #44]
   53884:	b9460800 	ldr	w0, [x0, #1544]
   53888:	6b00005f 	cmp	w2, w0
   5388c:	54000400 	b.eq	5390c <makunbound@@Base+0xfc>  // b.none
   53890:	b940d463 	ldr	w3, [x3, #212]
   53894:	7100007f 	cmp	w3, #0x0
   53898:	7a401040 	ccmp	w2, w0, #0x0, ne  // ne = any
   5389c:	5400038b 	b.lt	5390c <makunbound@@Base+0xfc>  // b.tstop
   538a0:	aa1503e0 	mov	x0, x21
   538a4:	97ff6c47 	bl	2e9c0 <strlen@plt>
   538a8:	91000400 	add	x0, x0, #0x1
   538ac:	9400f6a5 	bl	91340 <xmalloc@@Base>
   538b0:	aa1503e1 	mov	x1, x21
[31m   538b4:	97ff6eab 	bl	2f360 <strcpy@plt>[0m
   538b8:	aa0003f4 	mov	x20, x0
   538bc:	f9400660 	ldr	x0, [x19, #8]
--
   53920:	97ff6e34 	bl	2f1f0 <free@plt>
   53924:	d503201f 	nop
   53928:	b9402ac2 	ldr	w2, [x22, #40]
   5392c:	52800021 	mov	w1, #0x1                   	// #1
   53930:	72a00201 	movk	w1, #0x10, lsl #16
   53934:	f90006df 	str	xzr, [x22, #8]
   53938:	6a22003f 	bics	wzr, w1, w2
   5393c:	52820402 	mov	w2, #0x1020                	// #4128
   53940:	f9400ac0 	ldr	x0, [x22, #16]
   53944:	1a9f17e1 	cset	w1, eq  // eq = none
   53948:	2a020021 	orr	w1, w1, w2
   5394c:	b9002ac1 	str	w1, [x22, #40]
   53950:	b4000060 	cbz	x0, 5395c <makunbound@@Base+0x14c>
   53954:	97ff6e27 	bl	2f1f0 <free@plt>
   53958:	f9000adf 	str	xzr, [x22, #16]
   5395c:	f94002c0 	ldr	x0, [x22]
   53960:	97ff6c18 	bl	2e9c0 <strlen@plt>
   53964:	91000400 	add	x0, x0, #0x1
   53968:	9400f676 	bl	91340 <xmalloc@@Base>
   5396c:	f94002c1 	ldr	x1, [x22]
[31m   53970:	97ff6e7c 	bl	2f360 <strcpy@plt>[0m
   53974:	f9401281 	ldr	x1, [x20, #32]
   53978:	52800002 	mov	w2, #0x0                   	// #0
--
   54414:	b9402800 	ldr	w0, [x0, #40]
   54418:	7100029f 	cmp	w20, #0x0
   5441c:	52900021 	mov	w1, #0x8001                	// #32769
   54420:	52900062 	mov	w2, #0x8003                	// #32771
   54424:	2a010001 	orr	w1, w0, w1
   54428:	2a020000 	orr	w0, w0, w2
   5442c:	1a811000 	csel	w0, w0, w1, ne  // ne = any
   54430:	b90028a0 	str	w0, [x5, #40]
   54434:	b900071a 	str	w26, [x24, #4]
   54438:	528007a0 	mov	w0, #0x3d                  	// #61
   5443c:	3835cb20 	strb	w0, [x25, w21, sxtw]
   54440:	b94028a0 	ldr	w0, [x5, #40]
   54444:	371fbc20 	tbnz	w0, #3, 53bc8 <initialize_shell_variables@@Base+0x78>
   54448:	aa1903e0 	mov	x0, x25
   5444c:	f90033e5 	str	x5, [sp, #96]
   54450:	97ff695c 	bl	2e9c0 <strlen@plt>
   54454:	91000400 	add	x0, x0, #0x1
   54458:	9400f3ba 	bl	91340 <xmalloc@@Base>
   5445c:	9100239c 	add	x28, x28, #0x8
   54460:	aa1903e1 	mov	x1, x25
[31m   54464:	97ff6bbf 	bl	2f360 <strcpy@plt>[0m
   54468:	f94033e5 	ldr	x5, [sp, #96]
   5446c:	f90008a0 	str	x0, [x5, #16]
--
   54658:	97fff5ce 	bl	51d90 <set_if_not@@Base>
   5465c:	17fffd82 	b	53c64 <initialize_shell_variables@@Base+0x114>
   54660:	b00006c0 	adrp	x0, 12d000 <o_options@@Base+0x2220>
   54664:	f9448800 	ldr	x0, [x0, #2320]
   54668:	b9400000 	ldr	w0, [x0]
   5466c:	340016a0 	cbz	w0, 54940 <initialize_shell_variables@@Base+0xdf0>
   54670:	b00006d4 	adrp	x20, 12d000 <o_options@@Base+0x2220>
   54674:	f9425a80 	ldr	x0, [x20, #1200]
   54678:	f9400000 	ldr	x0, [x0]
   5467c:	39400001 	ldrb	w1, [x0]
   54680:	7100bc3f 	cmp	w1, #0x2f
   54684:	540014e0 	b.eq	54920 <initialize_shell_variables@@Base+0xdd0>  // b.none
   54688:	f9444e74 	ldr	x20, [x19, #2200]
   5468c:	f9400e80 	ldr	x0, [x20, #24]
   54690:	b4001740 	cbz	x0, 54978 <initialize_shell_variables@@Base+0xe28>
   54694:	97ff68cb 	bl	2e9c0 <strlen@plt>
   54698:	91000400 	add	x0, x0, #0x1
   5469c:	9400f329 	bl	91340 <xmalloc@@Base>
   546a0:	f9444e61 	ldr	x1, [x19, #2200]
   546a4:	f9400c21 	ldr	x1, [x1, #24]
[31m   546a8:	97ff6b2e 	bl	2f360 <strcpy@plt>[0m
   546ac:	aa0003f4 	mov	x20, x0
   546b0:	17fffdcb 	b	53ddc <initialize_shell_variables@@Base+0x28c>
--
   54870:	aa0103f4 	mov	x20, x1
   54874:	97ff6a5f 	bl	2f1f0 <free@plt>
   54878:	17fffd59 	b	53ddc <initialize_shell_variables@@Base+0x28c>
   5487c:	f9400000 	ldr	x0, [x0]
   54880:	97ffe9ac 	bl	4ef30 <sv_ignoreeof@@Base>
   54884:	17ffff9f 	b	54700 <initialize_shell_variables@@Base+0xbb0>
   54888:	90000460 	adrp	x0, e0000 <rl_insert_close@@Base+0x290>
   5488c:	9121e000 	add	x0, x0, #0x878
   54890:	97ffebb8 	bl	4f770 <get_string_value@@Base>
   54894:	aa0003f4 	mov	x20, x0
   54898:	b40007c0 	cbz	x0, 54990 <initialize_shell_variables@@Base+0xe40>
   5489c:	97ff6849 	bl	2e9c0 <strlen@plt>
   548a0:	93407c18 	sxtw	x24, w0
   548a4:	f94002a0 	ldr	x0, [x21]
   548a8:	97ff6846 	bl	2e9c0 <strlen@plt>
   548ac:	91000400 	add	x0, x0, #0x1
   548b0:	8b180000 	add	x0, x0, x24
   548b4:	9400f2a3 	bl	91340 <xmalloc@@Base>
   548b8:	aa1403e1 	mov	x1, x20
   548bc:	aa0003f4 	mov	x20, x0
[31m   548c0:	97ff6aa8 	bl	2f360 <strcpy@plt>[0m
   548c4:	f94002a1 	ldr	x1, [x21]
   548c8:	8b180280 	add	x0, x20, x24
   548cc:	91000421 	add	x1, x1, #0x1
[31m   548d0:	97ff6aa4 	bl	2f360 <strcpy@plt>[0m
   548d4:	17fffd42 	b	53ddc <initialize_shell_variables@@Base+0x28c>
   548d8:	aa1603e1 	mov	x1, x22
--
   548e4:	97fff567 	bl	51e80 <bind_variable@@Base>
   548e8:	b9402801 	ldr	w1, [x0, #40]
   548ec:	52800242 	mov	w2, #0x12                  	// #18
   548f0:	2a020021 	orr	w1, w1, w2
   548f4:	b9002801 	str	w1, [x0, #40]
   548f8:	17fffdcb 	b	54024 <initialize_shell_variables@@Base+0x4d4>
   548fc:	aa1603e1 	mov	x1, x22
   54900:	52800002 	mov	w2, #0x0                   	// #0
   54904:	aa1403e0 	mov	x0, x20
   54908:	97fff55e 	bl	51e80 <bind_variable@@Base>
   5490c:	b9402801 	ldr	w1, [x0, #40]
   54910:	52800242 	mov	w2, #0x12                  	// #18
   54914:	2a020021 	orr	w1, w1, w2
   54918:	b9002801 	str	w1, [x0, #40]
   5491c:	17fffdb4 	b	53fec <initialize_shell_variables@@Base+0x49c>
   54920:	97ff6828 	bl	2e9c0 <strlen@plt>
   54924:	91000400 	add	x0, x0, #0x1
   54928:	9400f286 	bl	91340 <xmalloc@@Base>
   5492c:	f9425a94 	ldr	x20, [x20, #1200]
   54930:	f9400281 	ldr	x1, [x20]
[31m   54934:	97ff6a8b 	bl	2f360 <strcpy@plt>[0m
   54938:	aa0003f4 	mov	x20, x0
   5493c:	17fffd28 	b	53ddc <initialize_shell_variables@@Base+0x28c>
--
   54954:	b94002a0 	ldr	w0, [x21]
   54958:	7100041f 	cmp	w0, #0x1
   5495c:	54ffe8a0 	b.eq	54670 <initialize_shell_variables@@Base+0xb20>  // b.none
   54960:	17fffd0d 	b	53d94 <initialize_shell_variables@@Base+0x244>
   54964:	f0000460 	adrp	x0, e3000 <_IO_stdin_used@@Base+0x2db8>
   54968:	910ae000 	add	x0, x0, #0x2b8
   5496c:	97ffe8f1 	bl	4ed30 <find_variable@@Base>
   54970:	b4ffec80 	cbz	x0, 54700 <initialize_shell_variables@@Base+0xbb0>
   54974:	17ffff61 	b	546f8 <initialize_shell_variables@@Base+0xba8>
   54978:	97ff7522 	bl	31e00 <get_current_user_info@@Base>
   5497c:	f9400e80 	ldr	x0, [x20, #24]
   54980:	17ffff45 	b	54694 <initialize_shell_variables@@Base+0xb44>
   54984:	97ff751f 	bl	31e00 <get_current_user_info@@Base>
   54988:	f9400ea1 	ldr	x1, [x21, #24]
   5498c:	17ffff75 	b	54760 <initialize_shell_variables@@Base+0xc10>
   54990:	f94002a0 	ldr	x0, [x21]
   54994:	97ff680b 	bl	2e9c0 <strlen@plt>
   54998:	91000400 	add	x0, x0, #0x1
   5499c:	9400f269 	bl	91340 <xmalloc@@Base>
   549a0:	f94002a1 	ldr	x1, [x21]
[31m   549a4:	97ff6a6f 	bl	2f360 <strcpy@plt>[0m
   549a8:	aa0003f4 	mov	x20, x0
   549ac:	17fffd0c 	b	53ddc <initialize_shell_variables@@Base+0x28c>
--
   5565c:	54000160 	b.eq	55688 <copy_redirect@@Base+0x88>  // b.none
   55660:	f9401273 	ldr	x19, [x19, #32]
   55664:	f9400260 	ldr	x0, [x19]
   55668:	97ffabf6 	bl	40640 <make_bare_word@@Base>
   5566c:	b9400a61 	ldr	w1, [x19, #8]
   55670:	b9000801 	str	w1, [x0, #8]
   55674:	f9001280 	str	x0, [x20, #32]
   55678:	aa1403e0 	mov	x0, x20
   5567c:	a94153f3 	ldp	x19, x20, [sp, #16]
   55680:	a8c37bfd 	ldp	x29, x30, [sp], #48
   55684:	d65f03c0 	ret
   55688:	d2802201 	mov	x1, #0x110                 	// #272
   5568c:	ea01001f 	tst	x0, x1
   55690:	54ffff40 	b.eq	55678 <copy_redirect@@Base+0x78>  // b.none
   55694:	f9401660 	ldr	x0, [x19, #40]
   55698:	b40000c0 	cbz	x0, 556b0 <copy_redirect@@Base+0xb0>
   5569c:	97ff64c9 	bl	2e9c0 <strlen@plt>
   556a0:	91000400 	add	x0, x0, #0x1
   556a4:	9400ef27 	bl	91340 <xmalloc@@Base>
   556a8:	f9401661 	ldr	x1, [x19, #40]
[31m   556ac:	97ff672d 	bl	2f360 <strcpy@plt>[0m
   556b0:	f9001680 	str	x0, [x20, #40]
   556b4:	17ffffeb 	b	55660 <copy_redirect@@Base+0x60>
--
   5578c:	71001c3f 	cmp	w1, #0x7
   55790:	54001b00 	b.eq	55af0 <copy_command@@Base+0x3b0>  // b.none
   55794:	54000409 	b.ls	55814 <copy_command@@Base+0xd4>  // b.plast
   55798:	71002c3f 	cmp	w1, #0xb
   5579c:	54001b20 	b.eq	55b00 <copy_command@@Base+0x3c0>  // b.none
   557a0:	54000f89 	b.ls	55990 <copy_command@@Base+0x250>  // b.plast
   557a4:	7100343f 	cmp	w1, #0xd
   557a8:	54001b40 	b.eq	55b10 <copy_command@@Base+0x3d0>  // b.none
   557ac:	7100383f 	cmp	w1, #0xe
   557b0:	54000ba1 	b.ne	55924 <copy_command@@Base+0x1e4>  // b.any
   557b4:	a9025bf5 	stp	x21, x22, [sp, #32]
   557b8:	d2800300 	mov	x0, #0x18                  	// #24
   557bc:	f9400e75 	ldr	x21, [x19, #24]
   557c0:	9400eee0 	bl	91340 <xmalloc@@Base>
   557c4:	aa0003f3 	mov	x19, x0
   557c8:	f94006a0 	ldr	x0, [x21, #8]
   557cc:	97ff647d 	bl	2e9c0 <strlen@plt>
   557d0:	91000400 	add	x0, x0, #0x1
   557d4:	9400eedb 	bl	91340 <xmalloc@@Base>
   557d8:	f94006a1 	ldr	x1, [x21, #8]
[31m   557dc:	97ff66e1 	bl	2f360 <strcpy@plt>[0m
   557e0:	aa0003e1 	mov	x1, x0
   557e4:	f9400aa0 	ldr	x0, [x21, #16]
--
   55bbc:	f94002a0 	ldr	x0, [x21]
   55bc0:	97ffaaa0 	bl	40640 <make_bare_word@@Base>
   55bc4:	aa0003e1 	mov	x1, x0
   55bc8:	b9400aa2 	ldr	w2, [x21, #8]
   55bcc:	f9400a80 	ldr	x0, [x20, #16]
   55bd0:	b9000822 	str	w2, [x1, #8]
   55bd4:	f9000661 	str	x1, [x19, #8]
   55bd8:	b4000040 	cbz	x0, 55be0 <copy_function_def_contents@@Base+0x40>
   55bdc:	97fffed9 	bl	55740 <copy_command@@Base>
   55be0:	f9400e81 	ldr	x1, [x20, #24]
   55be4:	b9400282 	ldr	w2, [x20]
   55be8:	f9000a60 	str	x0, [x19, #16]
   55bec:	b9400680 	ldr	w0, [x20, #4]
   55bf0:	29000262 	stp	w2, w0, [x19]
   55bf4:	b4000101 	cbz	x1, 55c14 <copy_function_def_contents@@Base+0x74>
   55bf8:	aa0103e0 	mov	x0, x1
   55bfc:	97ff6371 	bl	2e9c0 <strlen@plt>
   55c00:	91000400 	add	x0, x0, #0x1
   55c04:	9400edcf 	bl	91340 <xmalloc@@Base>
   55c08:	f9400e81 	ldr	x1, [x20, #24]
[31m   55c0c:	97ff65d5 	bl	2f360 <strcpy@plt>[0m
   55c10:	aa0003e1 	mov	x1, x0
   55c14:	f94013f5 	ldr	x21, [sp, #32]
--
   56f1c:	71016e7f 	cmp	w19, #0x5b
   56f20:	54001c80 	b.eq	572b0 <err_readonly@@Base+0x970>  // b.none
   56f24:	900006d5 	adrp	x21, 12e000 <__data_start@@Base>
   56f28:	9119c2a2 	add	x2, x21, #0x670
   56f2c:	3900031f 	strb	wzr, [x24]
   56f30:	911ba2e0 	add	x0, x23, #0x6e8
   56f34:	f9433aa1 	ldr	x1, [x21, #1648]
   56f38:	f940bc00 	ldr	x0, [x0, #376]
   56f3c:	b4000061 	cbz	x1, 56f48 <err_readonly@@Base+0x608>
   56f40:	eb00003f 	cmp	x1, x0
   56f44:	54000d40 	b.eq	570ec <err_readonly@@Base+0x7ac>  // b.none
   56f48:	b5000da0 	cbnz	x0, 570fc <err_readonly@@Base+0x7bc>
   56f4c:	911ba2fa 	add	x26, x23, #0x6e8
   56f50:	aa1603e0 	mov	x0, x22
   56f54:	97ff5e9b 	bl	2e9c0 <strlen@plt>
   56f58:	91000400 	add	x0, x0, #0x1
   56f5c:	9400e8f9 	bl	91340 <xmalloc@@Base>
   56f60:	9119c2b6 	add	x22, x21, #0x670
   56f64:	f940b741 	ldr	x1, [x26, #360]
   56f68:	f90037e1 	str	x1, [sp, #104]
[31m   56f6c:	97ff60fd 	bl	2f360 <strcpy@plt>[0m
   56f70:	39000313 	strb	w19, [x24]
   56f74:	aa0003f3 	mov	x19, x0
--
   578b4:	911ba2d4 	add	x20, x22, #0x6e8
   578b8:	97ffff92 	bl	57700 <err_readonly@@Base+0xdc0>
   578bc:	aa0003f3 	mov	x19, x0
   578c0:	b9417680 	ldr	w0, [x20, #372]
   578c4:	7100f41f 	cmp	w0, #0x3d
   578c8:	7a4b1804 	ccmp	w0, #0xb, #0x4, ne  // ne = any
   578cc:	54000641 	b.ne	57994 <err_readonly@@Base+0x1054>  // b.any
   578d0:	a90363f7 	stp	x23, x24, [sp, #48]
   578d4:	a9046bf9 	stp	x25, x26, [sp, #64]
   578d8:	b941729a 	ldr	w26, [x20, #368]
   578dc:	7100175f 	cmp	w26, #0x5
   578e0:	540015a1 	b.ne	57b94 <err_readonly@@Base+0x1254>  // b.any
   578e4:	71002c1f 	cmp	w0, #0xb
   578e8:	f940be80 	ldr	x0, [x20, #376]
   578ec:	540007c0 	b.eq	579e4 <err_readonly@@Base+0x10a4>  // b.none
   578f0:	b40016e0 	cbz	x0, 57bcc <err_readonly@@Base+0x128c>
   578f4:	97ff5c33 	bl	2e9c0 <strlen@plt>
   578f8:	91000400 	add	x0, x0, #0x1
   578fc:	9400e691 	bl	91340 <xmalloc@@Base>
   57900:	f940be81 	ldr	x1, [x20, #376]
[31m   57904:	97ff5e97 	bl	2f360 <strcpy@plt>[0m
   57908:	aa0003f7 	mov	x23, x0
   5790c:	f00006b8 	adrp	x24, 12e000 <__data_start@@Base>
--
   579ac:	aa1403e0 	mov	x0, x20
   579b0:	f9033b1f 	str	xzr, [x24, #1648]
   579b4:	a900fc41 	stp	x1, xzr, [x2, #8]
   579b8:	f9000c41 	str	x1, [x2, #24]
   579bc:	97ff5e0d 	bl	2f1f0 <free@plt>
   579c0:	aa1703e0 	mov	x0, x23
   579c4:	97ff5e0b 	bl	2f1f0 <free@plt>
   579c8:	aa1503e0 	mov	x0, x21
   579cc:	97ff5e09 	bl	2f1f0 <free@plt>
   579d0:	17ffffed 	b	57984 <err_readonly@@Base+0x1044>
   579d4:	aa1403e1 	mov	x1, x20
   579d8:	aa1703e0 	mov	x0, x23
   579dc:	97fffc75 	bl	56bb0 <err_readonly@@Base+0x270>
   579e0:	17ffffdd 	b	57954 <err_readonly@@Base+0x1014>
   579e4:	b9418a95 	ldr	w21, [x20, #392]
   579e8:	b4000f20 	cbz	x0, 57bcc <err_readonly@@Base+0x128c>
   579ec:	97ff5bf5 	bl	2e9c0 <strlen@plt>
   579f0:	91000400 	add	x0, x0, #0x1
   579f4:	9400e653 	bl	91340 <xmalloc@@Base>
   579f8:	f940be81 	ldr	x1, [x20, #376]
[31m   579fc:	97ff5e59 	bl	2f360 <strcpy@plt>[0m
   57a00:	aa0003f7 	mov	x23, x0
   57a04:	f00006b8 	adrp	x24, 12e000 <__data_start@@Base>
--
   57d34:	b906eae5 	str	w5, [x23, #1768]
   57d38:	f9400e60 	ldr	x0, [x19, #24]
   57d3c:	f9000420 	str	x0, [x1, #8]
   57d40:	b9417269 	ldr	w9, [x19, #368]
   57d44:	b9417668 	ldr	w8, [x19, #372]
   57d48:	f9401260 	ldr	x0, [x19, #32]
   57d4c:	29002428 	stp	w8, w9, [x1]
   57d50:	f9000c20 	str	x0, [x1, #24]
   57d54:	f940b660 	ldr	x0, [x19, #360]
   57d58:	f9000820 	str	x0, [x1, #16]
   57d5c:	f940be67 	ldr	x7, [x19, #376]
   57d60:	f9001427 	str	x7, [x1, #40]
   57d64:	f940c268 	ldr	x8, [x19, #384]
   57d68:	f9001028 	str	x8, [x1, #32]
   57d6c:	f824d8c1 	str	x1, [x6, w4, sxtw #3]
   57d70:	aa1403e0 	mov	x0, x20
   57d74:	97ff5b13 	bl	2e9c0 <strlen@plt>
   57d78:	91000400 	add	x0, x0, #0x1
   57d7c:	9400e571 	bl	91340 <xmalloc@@Base>
   57d80:	aa1403e1 	mov	x1, x20
[31m   57d84:	97ff5d77 	bl	2f360 <strcpy@plt>[0m
   57d88:	92800001 	mov	x1, #0xffffffffffffffff    	// #-1
   57d8c:	f9033abf 	str	xzr, [x21, #1648]
--
000000000005c080 <run_sigchld_trap@@Base>:
   5c080:	a9bb7bfd 	stp	x29, x30, [sp, #-80]!
   5c084:	910003fd 	mov	x29, sp
   5c088:	a90153f3 	stp	x19, x20, [sp, #16]
   5c08c:	b0000693 	adrp	x19, 12d000 <o_options@@Base+0x2220>
   5c090:	f944aa73 	ldr	x19, [x19, #2384]
   5c094:	a9025bf5 	stp	x21, x22, [sp, #32]
   5c098:	2a0003f5 	mov	w21, w0
   5c09c:	a90363f7 	stp	x23, x24, [sp, #48]
   5c0a0:	90000696 	adrp	x22, 12c000 <o_options@@Base+0x1220>
   5c0a4:	90000697 	adrp	x23, 12c000 <o_options@@Base+0x1220>
   5c0a8:	f9404660 	ldr	x0, [x19, #136]
   5c0ac:	f90023f9 	str	x25, [sp, #64]
   5c0b0:	b0000699 	adrp	x25, 12d000 <o_options@@Base+0x2220>
   5c0b4:	97ff4a43 	bl	2e9c0 <strlen@plt>
   5c0b8:	91000400 	add	x0, x0, #0x1
   5c0bc:	9400d4a1 	bl	91340 <xmalloc@@Base>
   5c0c0:	f9404661 	ldr	x1, [x19, #136]
   5c0c4:	f00006d3 	adrp	x19, 137000 <line_number_base@@Base+0xb58>
   5c0c8:	91236273 	add	x19, x19, #0x8d8
[31m   5c0cc:	97ff4ca5 	bl	2f360 <strcpy@plt>[0m
   5c0d0:	aa0003f4 	mov	x20, x0
   5c0d4:	f0000438 	adrp	x24, e3000 <_IO_stdin_used@@Base+0x2db8>
--
   5c18c:	f90002df 	str	xzr, [x22]
   5c190:	f94746e0 	ldr	x0, [x23, #3720]
   5c194:	52800241 	mov	w1, #0x12                  	// #18
   5c198:	f900033f 	str	xzr, [x25]
   5c19c:	f9000e7f 	str	xzr, [x19, #24]
   5c1a0:	b9000001 	str	w1, [x0]
   5c1a4:	9400692b 	bl	76650 <set_impossible_sigchld_trap@@Base>
   5c1a8:	52800020 	mov	w0, #0x1                   	// #1
   5c1ac:	b900b260 	str	w0, [x19, #176]
   5c1b0:	710002bf 	cmp	w21, #0x0
   5c1b4:	5400022d 	b.le	5c1f8 <run_sigchld_trap@@Base+0x178>
   5c1b8:	f0000436 	adrp	x22, e3000 <_IO_stdin_used@@Base+0x2db8>
   5c1bc:	912c02d6 	add	x22, x22, #0xb00
   5c1c0:	52800013 	mov	w19, #0x0                   	// #0
   5c1c4:	d503201f 	nop
   5c1c8:	aa1403e0 	mov	x0, x20
   5c1cc:	97ff49fd 	bl	2e9c0 <strlen@plt>
   5c1d0:	91000400 	add	x0, x0, #0x1
   5c1d4:	9400d45b 	bl	91340 <xmalloc@@Base>
   5c1d8:	aa1403e1 	mov	x1, x20
[31m   5c1dc:	97ff4c61 	bl	2f360 <strcpy@plt>[0m
   5c1e0:	11000673 	add	w19, w19, #0x1
   5c1e4:	aa1603e1 	mov	x1, x22
--
   5f9c8:	2a000021 	orr	w1, w1, w0
   5f9cc:	1a9f17e0 	cset	w0, eq  // eq = none
   5f9d0:	eb02007f 	cmp	x3, x2
   5f9d4:	2a000084 	orr	w4, w4, w0
   5f9d8:	54fffec1 	b.ne	5f9b0 <stop_pipeline@@Base+0x1f0>  // b.any
   5f9dc:	350000a1 	cbnz	w1, 5f9f0 <stop_pipeline@@Base+0x230>
   5f9e0:	7100009f 	cmp	w4, #0x0
   5f9e4:	52800041 	mov	w1, #0x2                   	// #2
   5f9e8:	52800080 	mov	w0, #0x4                   	// #4
   5f9ec:	1a801021 	csel	w1, w1, w0, ne  // ne = any
   5f9f0:	b9001741 	str	w1, [x26, #20]
   5f9f4:	b0000400 	adrp	x0, e0000 <rl_insert_close@@Base+0x290>
   5f9f8:	9121e000 	add	x0, x0, #0x878
   5f9fc:	97ffbf5d 	bl	4f770 <get_string_value@@Base>
   5fa00:	aa0003fc 	mov	x28, x0
   5fa04:	b4001020 	cbz	x0, 5fc08 <stop_pipeline@@Base+0x448>
   5fa08:	97ff3bee 	bl	2e9c0 <strlen@plt>
   5fa0c:	91000400 	add	x0, x0, #0x1
   5fa10:	9400c64c 	bl	91340 <xmalloc@@Base>
   5fa14:	aa1c03e1 	mov	x1, x28
[31m   5fa18:	97ff3e52 	bl	2f360 <strcpy@plt>[0m
   5fa1c:	91236281 	add	x1, x20, #0x8d8
   5fa20:	f9000340 	str	x0, [x26]
--
   60994:	f94746d6 	ldr	x22, [x22, #3720]
   60998:	14000004 	b	609a8 <restore_pgrp_pipe@@Base+0x388>
   6099c:	d1000673 	sub	x19, x19, #0x1
   609a0:	eb13029f 	cmp	x20, x19
   609a4:	54fffde8 	b.hi	60960 <restore_pgrp_pipe@@Base+0x340>  // b.pmore
   609a8:	b94002c2 	ldr	w2, [x22]
   609ac:	aa1303e1 	mov	x1, x19
   609b0:	aa1503e0 	mov	x0, x21
   609b4:	7100005f 	cmp	w2, #0x0
   609b8:	1a970042 	csel	w2, w2, w23, eq  // eq = none
   609bc:	94012f21 	bl	ac640 <strmatch@@Base>
   609c0:	7100041f 	cmp	w0, #0x1
   609c4:	54fffec0 	b.eq	6099c <restore_pgrp_pipe@@Base+0x37c>  // b.none
   609c8:	39400275 	ldrb	w21, [x19]
   609cc:	aa1403e0 	mov	x0, x20
   609d0:	3900027f 	strb	wzr, [x19]
   609d4:	97ff37fb 	bl	2e9c0 <strlen@plt>
   609d8:	91000400 	add	x0, x0, #0x1
   609dc:	9400c259 	bl	91340 <xmalloc@@Base>
   609e0:	aa1403e1 	mov	x1, x20
[31m   609e4:	97ff3a5f 	bl	2f360 <strcpy@plt>[0m
   609e8:	39000275 	strb	w21, [x19]
   609ec:	a94363f7 	ldp	x23, x24, [sp, #48]
--
   60a20:	f94746d6 	ldr	x22, [x22, #3720]
   60a24:	14000004 	b	60a34 <restore_pgrp_pipe@@Base+0x414>
   60a28:	910006f7 	add	x23, x23, #0x1
   60a2c:	eb1302ff 	cmp	x23, x19
   60a30:	54fff988 	b.hi	60960 <restore_pgrp_pipe@@Base+0x340>  // b.pmore
   60a34:	b94002c2 	ldr	w2, [x22]
   60a38:	aa1703e1 	mov	x1, x23
   60a3c:	aa1503e0 	mov	x0, x21
   60a40:	7100005f 	cmp	w2, #0x0
   60a44:	1a980042 	csel	w2, w2, w24, eq  // eq = none
   60a48:	94012efe 	bl	ac640 <strmatch@@Base>
   60a4c:	7100041f 	cmp	w0, #0x1
   60a50:	54fffec0 	b.eq	60a28 <restore_pgrp_pipe@@Base+0x408>  // b.none
   60a54:	394002f3 	ldrb	w19, [x23]
   60a58:	aa1403e0 	mov	x0, x20
   60a5c:	390002ff 	strb	wzr, [x23]
   60a60:	97ff37d8 	bl	2e9c0 <strlen@plt>
   60a64:	91000400 	add	x0, x0, #0x1
   60a68:	9400c236 	bl	91340 <xmalloc@@Base>
   60a6c:	aa1403e1 	mov	x1, x20
[31m   60a70:	97ff3a3c 	bl	2f360 <strcpy@plt>[0m
   60a74:	390002f3 	strb	w19, [x23]
   60a78:	a94363f7 	ldp	x23, x24, [sp, #48]
--
   6173c:	90000674 	adrp	x20, 12d000 <o_options@@Base+0x2220>
   61740:	aa0003f3 	mov	x19, x0
   61744:	f9432a83 	ldr	x3, [x20, #1616]
   61748:	a9025bf5 	stp	x21, x22, [sp, #32]
   6174c:	f9400060 	ldr	x0, [x3]
   61750:	f90047e0 	str	x0, [sp, #136]
   61754:	d2800000 	mov	x0, #0x0                   	// #0
   61758:	b4000f13 	cbz	x19, 61938 <restore_pgrp_pipe@@Base+0x1318>
   6175c:	39400260 	ldrb	w0, [x19]
   61760:	aa0103f5 	mov	x21, x1
   61764:	7100001f 	cmp	w0, #0x0
   61768:	fa401824 	ccmp	x1, #0x0, #0x4, ne  // ne = any
   6176c:	54000060 	b.eq	61778 <restore_pgrp_pipe@@Base+0x1158>  // b.none
   61770:	39400020 	ldrb	w0, [x1]
   61774:	35000240 	cbnz	w0, 617bc <restore_pgrp_pipe@@Base+0x119c>
   61778:	aa1303e0 	mov	x0, x19
   6177c:	97ff3491 	bl	2e9c0 <strlen@plt>
   61780:	91000400 	add	x0, x0, #0x1
   61784:	9400beef 	bl	91340 <xmalloc@@Base>
   61788:	aa1303e1 	mov	x1, x19
[31m   6178c:	97ff36f5 	bl	2f360 <strcpy@plt>[0m
   61790:	aa0003f5 	mov	x21, x0
   61794:	f9432a94 	ldr	x20, [x20, #1616]
--
   618dc:	f90043ff 	str	xzr, [sp, #128]
   618e0:	97ff3600 	bl	2f0e0 <wcsrtombs@plt>
   618e4:	aa0003e1 	mov	x1, x0
   618e8:	aa1803e0 	mov	x0, x24
   618ec:	38216abf 	strb	wzr, [x21, x1]
   618f0:	97ff3640 	bl	2f1f0 <free@plt>
   618f4:	a94363f7 	ldp	x23, x24, [sp, #48]
   618f8:	a9446bf9 	ldp	x25, x26, [sp, #64]
   618fc:	17ffffa6 	b	61794 <restore_pgrp_pipe@@Base+0x1174>
   61900:	aa1503e1 	mov	x1, x21
   61904:	2a1603e2 	mov	w2, w22
   61908:	aa1303e0 	mov	x0, x19
   6190c:	97fffbb1 	bl	607d0 <restore_pgrp_pipe@@Base+0x1b0>
   61910:	aa0003f5 	mov	x21, x0
   61914:	eb00027f 	cmp	x19, x0
   61918:	54fff3e1 	b.ne	61794 <restore_pgrp_pipe@@Base+0x1174>  // b.any
   6191c:	97ff3429 	bl	2e9c0 <strlen@plt>
   61920:	91000400 	add	x0, x0, #0x1
   61924:	9400be87 	bl	91340 <xmalloc@@Base>
   61928:	aa1503e1 	mov	x1, x21
[31m   6192c:	97ff368d 	bl	2f360 <strcpy@plt>[0m
   61930:	aa0003f5 	mov	x21, x0
   61934:	17ffff98 	b	61794 <restore_pgrp_pipe@@Base+0x1174>
   61938:	d2800015 	mov	x21, #0x0                   	// #0
   6193c:	17ffff96 	b	61794 <restore_pgrp_pipe@@Base+0x1174>
   61940:	f90037f8 	str	x24, [sp, #104]
   61944:	d503201f 	nop
   61948:	aa1803e0 	mov	x0, x24
   6194c:	97ff3629 	bl	2f1f0 <free@plt>
   61950:	f9403fe0 	ldr	x0, [sp, #120]
   61954:	97ff3627 	bl	2f1f0 <free@plt>
   61958:	aa1303e0 	mov	x0, x19
   6195c:	97ff3419 	bl	2e9c0 <strlen@plt>
   61960:	91000400 	add	x0, x0, #0x1
   61964:	9400be77 	bl	91340 <xmalloc@@Base>
   61968:	aa1303e1 	mov	x1, x19
[31m   6196c:	97ff367d 	bl	2f360 <strcpy@plt>[0m
   61970:	aa0003f5 	mov	x21, x0
   61974:	a94363f7 	ldp	x23, x24, [sp, #48]
--
   61ac8:	aa1903e0 	mov	x0, x25
   61acc:	7100005f 	cmp	w2, #0x0
   61ad0:	1a970042 	csel	w2, w2, w23, eq  // eq = none
   61ad4:	94012ae3 	bl	ac660 <wcsmatch@@Base>
   61ad8:	7100041f 	cmp	w0, #0x1
   61adc:	54fffec0 	b.eq	61ab4 <restore_pgrp_pipe@@Base+0x1494>  // b.none
   61ae0:	b9400355 	ldr	w21, [x26]
   61ae4:	aa1803e0 	mov	x0, x24
   61ae8:	b900035f 	str	wzr, [x26]
   61aec:	97ff35fd 	bl	2f2e0 <wcsdup@plt>
   61af0:	aa0003f8 	mov	x24, x0
   61af4:	f9403be0 	ldr	x0, [sp, #112]
   61af8:	b9000355 	str	w21, [x26]
   61afc:	17ffff69 	b	618a0 <restore_pgrp_pipe@@Base+0x1280>
   61b00:	f9403be0 	ldr	x0, [sp, #112]
   61b04:	17ffff67 	b	618a0 <restore_pgrp_pipe@@Base+0x1280>
   61b08:	97ff33ae 	bl	2e9c0 <strlen@plt>
   61b0c:	91000400 	add	x0, x0, #0x1
   61b10:	9400be0c 	bl	91340 <xmalloc@@Base>
   61b14:	aa1503e1 	mov	x1, x21
[31m   61b18:	97ff3612 	bl	2f360 <strcpy@plt>[0m
   61b1c:	aa0003f5 	mov	x21, x0
   61b20:	a94363f7 	ldp	x23, x24, [sp, #48]
--
   66bc8:	39400260 	ldrb	w0, [x19]
   66bcc:	aa1803f3 	mov	x19, x24
   66bd0:	39000280 	strb	w0, [x20]
   66bd4:	aa1903f4 	mov	x20, x25
   66bd8:	17ffffbf 	b	66ad4 <dequote_escapes@@Base+0xd4>
   66bdc:	f100001f 	cmp	x0, #0x0
   66be0:	39400262 	ldrb	w2, [x19]
   66be4:	9a9f1404 	csinc	x4, x0, xzr, ne  // ne = any
   66be8:	d2800001 	mov	x1, #0x0                   	// #0
   66bec:	14000002 	b	66bf4 <dequote_escapes@@Base+0x1f4>
   66bf0:	38616a62 	ldrb	w2, [x19, x1]
   66bf4:	38216a82 	strb	w2, [x20, x1]
   66bf8:	91000421 	add	x1, x1, #0x1
   66bfc:	eb04003f 	cmp	x1, x4
   66c00:	54ffff81 	b.ne	66bf0 <dequote_escapes@@Base+0x1f0>  // b.any
   66c04:	17ffffde 	b	66b7c <dequote_escapes@@Base+0x17c>
   66c08:	d2800016 	mov	x22, #0x0                   	// #0
   66c0c:	17ffffb9 	b	66af0 <dequote_escapes@@Base+0xf0>
   66c10:	aa1303e1 	mov	x1, x19
   66c14:	aa1603e0 	mov	x0, x22
[31m   66c18:	97ff21d2 	bl	2f360 <strcpy@plt>[0m
   66c1c:	aa0003f6 	mov	x22, x0
   66c20:	a94153f3 	ldp	x19, x20, [sp, #16]
--
   66c94:	54000620 	b.eq	66d58 <dequote_escapes@@Base+0x358>  // b.none
   66c98:	7101401f 	cmp	w0, #0x50
   66c9c:	54000b40 	b.eq	66e04 <dequote_escapes@@Base+0x404>  // b.none
   66ca0:	5400028d 	b.le	66cf0 <dequote_escapes@@Base+0x2f0>
   66ca4:	7101441f 	cmp	w0, #0x51
   66ca8:	54000a40 	b.eq	66df0 <dequote_escapes@@Base+0x3f0>  // b.none
   66cac:	7101841f 	cmp	w0, #0x61
   66cb0:	54000541 	b.ne	66d58 <dequote_escapes@@Base+0x358>  // b.any
   66cb4:	910123f4 	add	x20, sp, #0x48
   66cb8:	aa1503e0 	mov	x0, x21
   66cbc:	aa1403e2 	mov	x2, x20
   66cc0:	52800001 	mov	w1, #0x0                   	// #0
   66cc4:	9400e9d3 	bl	a1410 <var_attribute_string@@Base>
   66cc8:	7100001f 	cmp	w0, #0x0
   66ccc:	5400046d 	b.le	66d58 <dequote_escapes@@Base+0x358>
   66cd0:	aa1403e0 	mov	x0, x20
   66cd4:	97ff1f3b 	bl	2e9c0 <strlen@plt>
   66cd8:	91000400 	add	x0, x0, #0x1
   66cdc:	9400a999 	bl	91340 <xmalloc@@Base>
   66ce0:	aa1403e1 	mov	x1, x20
[31m   66ce4:	97ff219f 	bl	2f360 <strcpy@plt>[0m
   66ce8:	aa0003f4 	mov	x20, x0
   66cec:	14000011 	b	66d30 <dequote_escapes@@Base+0x330>
--
   66e10:	17ffffc8 	b	66d30 <dequote_escapes@@Base+0x330>
   66e14:	f94002a4 	ldr	x4, [x21]
   66e18:	aa1603e5 	mov	x5, x22
   66e1c:	b00003e3 	adrp	x3, e3000 <_IO_stdin_used@@Base+0x2db8>
   66e20:	92800002 	mov	x2, #0xffffffffffffffff    	// #-1
   66e24:	9138e063 	add	x3, x3, #0xe38
   66e28:	52800021 	mov	w1, #0x1                   	// #1
   66e2c:	97ff1ef1 	bl	2e9f0 <__sprintf_chk@plt>
   66e30:	17ffffec 	b	66de0 <dequote_escapes@@Base+0x3e0>
   66e34:	a90363f7 	stp	x23, x24, [sp, #48]
   66e38:	97ff207e 	bl	2f030 <__stack_chk_fail@plt>
   66e3c:	d503201f 	nop
   66e40:	a9be7bfd 	stp	x29, x30, [sp, #-32]!
   66e44:	910003fd 	mov	x29, sp
   66e48:	a90153f3 	stp	x19, x20, [sp, #16]
   66e4c:	aa0003f4 	mov	x20, x0
   66e50:	97fffeec 	bl	66a00 <dequote_escapes@@Base>
   66e54:	aa0003f3 	mov	x19, x0
   66e58:	aa1403e0 	mov	x0, x20
   66e5c:	aa1303e1 	mov	x1, x19
[31m   66e60:	97ff2140 	bl	2f360 <strcpy@plt>[0m
   66e64:	aa1303e0 	mov	x0, x19
   66e68:	a94153f3 	ldp	x19, x20, [sp, #16]
--
   66ef0:	52800802 	mov	w2, #0x40                  	// #64
   66ef4:	b863da77 	ldr	w23, [x19, w3, sxtw #2]
   66ef8:	97ff6182 	bl	3f500 <move_to_high_fd@@Base>
   66efc:	2a0003f4 	mov	w20, w0
   66f00:	d2800220 	mov	x0, #0x11                  	// #17
   66f04:	9400a90f 	bl	91340 <xmalloc@@Base>
   66f08:	aa0003f3 	mov	x19, x0
   66f0c:	b00003e3 	adrp	x3, e3000 <_IO_stdin_used@@Base+0x2db8>
   66f10:	9139c063 	add	x3, x3, #0xe70
   66f14:	aa0003f6 	mov	x22, x0
   66f18:	d2800182 	mov	x2, #0xc                   	// #12
   66f1c:	9101e3e1 	add	x1, sp, #0x78
   66f20:	93407e80 	sxtw	x0, w20
   66f24:	f9400064 	ldr	x4, [x3]
   66f28:	f9000264 	str	x4, [x19]
   66f2c:	39402063 	ldrb	w3, [x3, #8]
   66f30:	38008ec3 	strb	w3, [x22, #8]!
   66f34:	940126a3 	bl	b09c0 <inttostr@@Base>
   66f38:	aa0003e1 	mov	x1, x0
   66f3c:	aa1603e0 	mov	x0, x22
[31m   66f40:	97ff2108 	bl	2f360 <strcpy@plt>[0m
   66f44:	d0000680 	adrp	x0, 138000 <running_in_background@@Base+0x610>
   66f48:	9128e000 	add	x0, x0, #0xa38
--
   67924:	d2800037 	mov	x23, #0x1                   	// #1
   67928:	17ffff94 	b	67778 <dequote_string@@Base+0x48>
   6792c:	79000375 	strh	w21, [x27]
   67930:	17ffffc6 	b	67848 <dequote_string@@Base+0x118>
   67934:	f100001f 	cmp	x0, #0x0
   67938:	39400262 	ldrb	w2, [x19]
   6793c:	9a9f1404 	csinc	x4, x0, xzr, ne  // ne = any
   67940:	d2800001 	mov	x1, #0x0                   	// #0
   67944:	14000002 	b	6794c <dequote_string@@Base+0x21c>
   67948:	38616a62 	ldrb	w2, [x19, x1]
   6794c:	38216a82 	strb	w2, [x20, x1]
   67950:	91000421 	add	x1, x1, #0x1
   67954:	eb01009f 	cmp	x4, x1
   67958:	54ffff81 	b.ne	67948 <dequote_string@@Base+0x218>  // b.any
   6795c:	17ffffb5 	b	67830 <dequote_string@@Base+0x100>
   67960:	d2800060 	mov	x0, #0x3                   	// #3
   67964:	d2800057 	mov	x23, #0x2                   	// #2
   67968:	17ffff84 	b	67778 <dequote_string@@Base+0x48>
   6796c:	aa1b03e0 	mov	x0, x27
   67970:	aa1303e1 	mov	x1, x19
[31m   67974:	97ff1e7b 	bl	2f360 <strcpy@plt>[0m
   67978:	aa0003fb 	mov	x27, x0
   6797c:	17ffffb3 	b	67848 <dequote_string@@Base+0x118>
--
   69894:	7a401aa0 	ccmp	w21, #0x0, #0x0, ne  // ne = any
   69898:	f9404bfc 	ldr	x28, [sp, #144]
   6989c:	54fff840 	b.eq	697a4 <pat_subst@@Base+0x134>  // b.none
   698a0:	b4fffa9c 	cbz	x28, 697f0 <pat_subst@@Base+0x180>
   698a4:	39400380 	ldrb	w0, [x28]
   698a8:	34fffa40 	cbz	w0, 697f0 <pat_subst@@Base+0x180>
   698ac:	39400793 	ldrb	w19, [x28, #1]
   698b0:	d2800040 	mov	x0, #0x2                   	// #2
   698b4:	340000f3 	cbz	w19, 698d0 <pat_subst@@Base+0x260>
   698b8:	39400b81 	ldrb	w1, [x28, #2]
   698bc:	d2800060 	mov	x0, #0x3                   	// #3
   698c0:	34000081 	cbz	w1, 698d0 <pat_subst@@Base+0x260>
   698c4:	aa1c03e0 	mov	x0, x28
   698c8:	97ff143e 	bl	2e9c0 <strlen@plt>
   698cc:	91000400 	add	x0, x0, #0x1
   698d0:	8b0002e0 	add	x0, x23, x0
   698d4:	eb18001f 	cmp	x0, x24
   698d8:	54000122 	b.cs	698fc <pat_subst@@Base+0x28c>  // b.hs, b.nlast
   698dc:	8b170280 	add	x0, x20, x23
   698e0:	aa1c03e1 	mov	x1, x28
[31m   698e4:	97ff169f 	bl	2f360 <strcpy@plt>[0m
   698e8:	a9425bf5 	ldp	x21, x22, [sp, #32]
   698ec:	a94363f7 	ldp	x23, x24, [sp, #48]
   698f0:	a9446bf9 	ldp	x25, x26, [sp, #64]
   698f4:	17ffffc3 	b	69800 <pat_subst@@Base+0x190>
   698f8:	91010318 	add	x24, x24, #0x40
   698fc:	d2800040 	mov	x0, #0x2                   	// #2
   69900:	340000f3 	cbz	w19, 6991c <pat_subst@@Base+0x2ac>
   69904:	39400b81 	ldrb	w1, [x28, #2]
   69908:	d2800060 	mov	x0, #0x3                   	// #3
   6990c:	34000081 	cbz	w1, 6991c <pat_subst@@Base+0x2ac>
   69910:	aa1c03e0 	mov	x0, x28
   69914:	97ff142b 	bl	2e9c0 <strlen@plt>
   69918:	91000400 	add	x0, x0, #0x1
   6991c:	8b0002e0 	add	x0, x23, x0
   69920:	eb18001f 	cmp	x0, x24
   69924:	54fffea2 	b.cs	698f8 <pat_subst@@Base+0x288>  // b.hs, b.nlast
   69928:	aa1803e1 	mov	x1, x24
   6992c:	aa1403e0 	mov	x0, x20
   69930:	94009e98 	bl	91390 <xrealloc@@Base>
   69934:	aa0003f4 	mov	x20, x0
   69938:	8b170280 	add	x0, x20, x23
   6993c:	aa1c03e1 	mov	x1, x28
[31m   69940:	97ff1688 	bl	2f360 <strcpy@plt>[0m
   69944:	a9425bf5 	ldp	x21, x22, [sp, #32]
   69948:	a94363f7 	ldp	x23, x24, [sp, #48]
--
   69a1c:	a94363f7 	ldp	x23, x24, [sp, #48]
   69a20:	a9446bf9 	ldp	x25, x26, [sp, #64]
   69a24:	17ffff77 	b	69800 <pat_subst@@Base+0x190>
   69a28:	39400380 	ldrb	w0, [x28]
   69a2c:	340003a0 	cbz	w0, 69aa0 <pat_subst@@Base+0x430>
   69a30:	39400780 	ldrb	w0, [x28, #1]
   69a34:	d2800013 	mov	x19, #0x0                   	// #0
   69a38:	34000b60 	cbz	w0, 69ba4 <pat_subst@@Base+0x534>
   69a3c:	39400b80 	ldrb	w0, [x28, #2]
   69a40:	35000860 	cbnz	w0, 69b4c <pat_subst@@Base+0x4dc>
   69a44:	91000a60 	add	x0, x19, #0x2
   69a48:	d2800056 	mov	x22, #0x2                   	// #2
   69a4c:	91000800 	add	x0, x0, #0x2
   69a50:	94009e3c 	bl	91340 <xmalloc@@Base>
   69a54:	aa0003f4 	mov	x20, x0
   69a58:	b40002b3 	cbz	x19, 69aac <pat_subst@@Base+0x43c>
   69a5c:	710006bf 	cmp	w21, #0x1
   69a60:	54000480 	b.eq	69af0 <pat_subst@@Base+0x480>  // b.none
   69a64:	aa1c03e1 	mov	x1, x28
   69a68:	aa1403e0 	mov	x0, x20
[31m   69a6c:	97ff163d 	bl	2f360 <strcpy@plt>[0m
   69a70:	f9403be1 	ldr	x1, [sp, #112]
   69a74:	8b160280 	add	x0, x20, x22
[31m   69a78:	97ff163a 	bl	2f360 <strcpy@plt>[0m
   69a7c:	a9425bf5 	ldp	x21, x22, [sp, #32]
   69a80:	a94363f7 	ldp	x23, x24, [sp, #48]
   69a84:	a9446bf9 	ldp	x25, x26, [sp, #64]
   69a88:	17ffff5e 	b	69800 <pat_subst@@Base+0x190>
   69a8c:	d2800020 	mov	x0, #0x1                   	// #1
   69a90:	94009e2c 	bl	91340 <xmalloc@@Base>
   69a94:	aa0003f4 	mov	x20, x0
   69a98:	3900001f 	strb	wzr, [x0]
   69a9c:	17ffff59 	b	69800 <pat_subst@@Base+0x190>
   69aa0:	d2800040 	mov	x0, #0x2                   	// #2
   69aa4:	94009e27 	bl	91340 <xmalloc@@Base>
   69aa8:	aa0003f4 	mov	x20, x0
   69aac:	aa1c03e1 	mov	x1, x28
   69ab0:	aa1403e0 	mov	x0, x20
[31m   69ab4:	97ff162b 	bl	2f360 <strcpy@plt>[0m
   69ab8:	a9425bf5 	ldp	x21, x22, [sp, #32]
   69abc:	a94363f7 	ldp	x23, x24, [sp, #48]
   69ac0:	a9446bf9 	ldp	x25, x26, [sp, #64]
   69ac4:	17ffff4f 	b	69800 <pat_subst@@Base+0x190>
   69ac8:	d2800033 	mov	x19, #0x1                   	// #1
   69acc:	39400380 	ldrb	w0, [x28]
   69ad0:	34000340 	cbz	w0, 69b38 <pat_subst@@Base+0x4c8>
   69ad4:	39400780 	ldrb	w0, [x28, #1]
   69ad8:	35fffb20 	cbnz	w0, 69a3c <pat_subst@@Base+0x3cc>
   69adc:	91000e60 	add	x0, x19, #0x3
   69ae0:	d2800036 	mov	x22, #0x1                   	// #1
   69ae4:	94009e17 	bl	91340 <xmalloc@@Base>
   69ae8:	aa0003f4 	mov	x20, x0
   69aec:	17ffffdc 	b	69a5c <pat_subst@@Base+0x3ec>
   69af0:	f9403be1 	ldr	x1, [sp, #112]
   69af4:	aa1403e0 	mov	x0, x20
[31m   69af8:	97ff161a 	bl	2f360 <strcpy@plt>[0m
   69afc:	aa1c03e1 	mov	x1, x28
   69b00:	8b130280 	add	x0, x20, x19
[31m   69b04:	97ff1617 	bl	2f360 <strcpy@plt>[0m
   69b08:	a9425bf5 	ldp	x21, x22, [sp, #32]
   69b0c:	a94363f7 	ldp	x23, x24, [sp, #48]
--
   6a088:	34000400 	cbz	w0, 6a108 <string_quote_removal@@Base+0x518>
   6a08c:	52800020 	mov	w0, #0x1                   	// #1
   6a090:	373803c4 	tbnz	w4, #7, 6a108 <string_quote_removal@@Base+0x518>
   6a094:	0b0002d6 	add	w22, w22, w0
   6a098:	3876cae4 	ldrb	w4, [x23, w22, sxtw]
   6a09c:	93407ec2 	sxtw	x2, w22
   6a0a0:	8b0202e1 	add	x1, x23, x2
   6a0a4:	35fffb64 	cbnz	w4, 6a010 <string_quote_removal@@Base+0x420>
   6a0a8:	3400009a 	cbz	w26, 6a0b8 <string_quote_removal@@Base+0x4c8>
   6a0ac:	f94033e0 	ldr	x0, [sp, #96]
   6a0b0:	f240041f 	tst	x0, #0x3
   6a0b4:	54000720 	b.eq	6a198 <string_quote_removal@@Base+0x5a8>  // b.none
   6a0b8:	a9425bf5 	ldp	x21, x22, [sp, #32]
   6a0bc:	a9446bf9 	ldp	x25, x26, [sp, #64]
   6a0c0:	a94573fb 	ldp	x27, x28, [sp, #80]
   6a0c4:	aa1703e0 	mov	x0, x23
   6a0c8:	97ff123e 	bl	2e9c0 <strlen@plt>
   6a0cc:	91000400 	add	x0, x0, #0x1
   6a0d0:	94009c9c 	bl	91340 <xmalloc@@Base>
   6a0d4:	aa1703e1 	mov	x1, x23
[31m   6a0d8:	97ff14a2 	bl	2f360 <strcpy@plt>[0m
   6a0dc:	aa0003f4 	mov	x20, x0
   6a0e0:	f9432a73 	ldr	x19, [x19, #1616]
--
   6a1f0:	2a0103f7 	mov	w23, w1
   6a1f4:	f9400001 	ldr	x1, [x0]
   6a1f8:	f90037e1 	str	x1, [sp, #104]
   6a1fc:	d2800001 	mov	x1, #0x0                   	// #0
   6a200:	b40013d4 	cbz	x20, 6a478 <string_quote_removal@@Base+0x888>
   6a204:	f9400293 	ldr	x19, [x20]
   6a208:	52800016 	mov	w22, #0x0                   	// #0
   6a20c:	b40007f3 	cbz	x19, 6a308 <string_quote_removal@@Base+0x718>
   6a210:	aa1303e0 	mov	x0, x19
   6a214:	a9046bf9 	stp	x25, x26, [sp, #64]
   6a218:	52800019 	mov	w25, #0x0                   	// #0
   6a21c:	f9002bfb 	str	x27, [sp, #80]
   6a220:	97ff53c8 	bl	3f140 <assignment@@Base>
   6a224:	93407c1b 	sxtw	x27, w0
   6a228:	aa1303e0 	mov	x0, x19
   6a22c:	97ff11e5 	bl	2e9c0 <strlen@plt>
   6a230:	91000400 	add	x0, x0, #0x1
   6a234:	94009c43 	bl	91340 <xmalloc@@Base>
   6a238:	aa1b03f8 	mov	x24, x27
   6a23c:	aa1303e1 	mov	x1, x19
[31m   6a240:	97ff1448 	bl	2f360 <strcpy@plt>[0m
   6a244:	aa0003f3 	mov	x19, x0
   6a248:	387bc800 	ldrb	w0, [x0, w27, sxtw]
--
   6a338:	38606a61 	ldrb	w1, [x19, x0]
   6a33c:	7100ac3f 	cmp	w1, #0x2b
   6a340:	54000061 	b.ne	6a34c <string_quote_removal@@Base+0x75c>  // b.any
   6a344:	52800039 	mov	w25, #0x1                   	// #1
   6a348:	38206a7f 	strb	wzr, [x19, x0]
   6a34c:	3838ca7f 	strb	wzr, [x19, w24, sxtw]
   6a350:	91000760 	add	x0, x27, #0x1
   6a354:	8b00027a 	add	x26, x19, x0
   6a358:	340000d7 	cbz	w23, 6a370 <string_quote_removal@@Base+0x780>
   6a35c:	b9400a81 	ldr	w1, [x20, #8]
   6a360:	12110036 	and	w22, w1, #0x8000
   6a364:	37781361 	tbnz	w1, #15, 6a5d0 <string_quote_removal@@Base+0x9e0>
   6a368:	38606a60 	ldrb	w0, [x19, x0]
   6a36c:	35001220 	cbnz	w0, 6a5b0 <string_quote_removal@@Base+0x9c0>
   6a370:	aa1a03e0 	mov	x0, x26
   6a374:	97ff1193 	bl	2e9c0 <strlen@plt>
   6a378:	91000400 	add	x0, x0, #0x1
   6a37c:	94009bf1 	bl	91340 <xmalloc@@Base>
   6a380:	aa1a03e1 	mov	x1, x26
   6a384:	52800016 	mov	w22, #0x0                   	// #0
[31m   6a388:	97ff13f6 	bl	2f360 <strcpy@plt>[0m
   6a38c:	aa0003f7 	mov	x23, x0
   6a390:	17ffffb5 	b	6a264 <string_quote_removal@@Base+0x674>
--
   6ad58:	52800003 	mov	w3, #0x0                   	// #0
   6ad5c:	aa1403e0 	mov	x0, x20
   6ad60:	b900cbe4 	str	w4, [sp, #200]
   6ad64:	97ffe0b7 	bl	63040 <extract_command_subst@@Base+0xda0>
   6ad68:	aa0003f8 	mov	x24, x0
   6ad6c:	97ff0f15 	bl	2e9c0 <strlen@plt>
   6ad70:	aa0003e1 	mov	x1, x0
   6ad74:	aa1303e0 	mov	x0, x19
   6ad78:	91000c21 	add	x1, x1, #0x3
   6ad7c:	94009985 	bl	91390 <xrealloc@@Base>
   6ad80:	b980cfe1 	ldrsw	x1, [sp, #204]
   6ad84:	aa0003f3 	mov	x19, x0
   6ad88:	38616a80 	ldrb	w0, [x20, x1]
   6ad8c:	39000260 	strb	w0, [x19]
   6ad90:	b980cfe0 	ldrsw	x0, [sp, #204]
   6ad94:	38606a81 	ldrb	w1, [x20, x0]
   6ad98:	7100843f 	cmp	w1, #0x21
   6ad9c:	54005bc0 	b.eq	6b914 <expand_string_to_string@@Base+0xd84>  // b.none
   6ada0:	aa1803e1 	mov	x1, x24
   6ada4:	91000660 	add	x0, x19, #0x1
[31m   6ada8:	97ff116e 	bl	2f360 <strcpy@plt>[0m
   6adac:	aa1803e0 	mov	x0, x24
   6adb0:	97ff1110 	bl	2f1f0 <free@plt>
--
   6b668:	35000d99 	cbnz	w25, 6b818 <expand_string_to_string@@Base+0xc88>
   6b66c:	aa1a03e0 	mov	x0, x26
   6b670:	52800001 	mov	w1, #0x0                   	// #0
   6b674:	97ff8f37 	bl	4f350 <find_variable_last_nameref@@Base>
   6b678:	b4000d00 	cbz	x0, 6b818 <expand_string_to_string@@Base+0xc88>
   6b67c:	b9402801 	ldr	w1, [x0, #40]
   6b680:	36580341 	tbz	w1, #11, 6b6e8 <expand_string_to_string@@Base+0xb58>
   6b684:	f940041c 	ldr	x28, [x0, #8]
   6b688:	b400031c 	cbz	x28, 6b6e8 <expand_string_to_string@@Base+0xb58>
   6b68c:	39400380 	ldrb	w0, [x28]
   6b690:	340002c0 	cbz	w0, 6b6e8 <expand_string_to_string@@Base+0xb58>
   6b694:	97ff53d7 	bl	405f0 <alloc_word_desc@@Base>
   6b698:	aa0003e3 	mov	x3, x0
   6b69c:	aa1c03e0 	mov	x0, x28
   6b6a0:	f9003fe3 	str	x3, [sp, #120]
   6b6a4:	b000067a 	adrp	x26, 138000 <running_in_background@@Base+0x610>
   6b6a8:	97ff0cc6 	bl	2e9c0 <strlen@plt>
   6b6ac:	91000400 	add	x0, x0, #0x1
   6b6b0:	94009724 	bl	91340 <xmalloc@@Base>
   6b6b4:	aa1c03e1 	mov	x1, x28
[31m   6b6b8:	97ff0f2a 	bl	2f360 <strcpy@plt>[0m
   6b6bc:	f9403fe3 	ldr	x3, [sp, #120]
   6b6c0:	f9000060 	str	x0, [x3]
--
   6b874:	97ff0e47 	bl	2f190 <__ctype_b_loc@plt>
   6b878:	39400661 	ldrb	w1, [x19, #1]
   6b87c:	f9400002 	ldr	x2, [x0]
   6b880:	71017c3f 	cmp	w1, #0x5f
   6b884:	d37f1c20 	ubfiz	x0, x1, #1, #8
   6b888:	78606840 	ldrh	w0, [x2, x0]
   6b88c:	12160000 	and	w0, w0, #0x400
   6b890:	7a401800 	ccmp	w0, #0x0, #0x0, ne  // ne = any
   6b894:	54003b61 	b.ne	6c000 <expand_string_to_string@@Base+0x1470>  // b.any
   6b898:	7101779f 	cmp	w28, #0x5d
   6b89c:	54ffede1 	b.ne	6b658 <expand_string_to_string@@Base+0xac8>  // b.any
   6b8a0:	aa1a03e0 	mov	x0, x26
   6b8a4:	52800001 	mov	w1, #0x0                   	// #0
   6b8a8:	94004a3a 	bl	7e190 <valid_array_reference@@Base>
   6b8ac:	34ffed60 	cbz	w0, 6b658 <expand_string_to_string@@Base+0xac8>
   6b8b0:	aa1a03e0 	mov	x0, x26
   6b8b4:	97ff0c43 	bl	2e9c0 <strlen@plt>
   6b8b8:	91000400 	add	x0, x0, #0x1
   6b8bc:	940096a1 	bl	91340 <xmalloc@@Base>
   6b8c0:	aa1a03e1 	mov	x1, x26
[31m   6b8c4:	97ff0ea7 	bl	2f360 <strcpy@plt>[0m
   6b8c8:	9103a3e2 	add	x2, sp, #0xe8
   6b8cc:	aa0003fc 	mov	x28, x0
--
   6b8d8:	94004cba 	bl	7ebc0 <array_variable_name@@Base>
   6b8dc:	b4000040 	cbz	x0, 6b8e4 <expand_string_to_string@@Base+0xd54>
   6b8e0:	97ff0e44 	bl	2f1f0 <free@plt>
   6b8e4:	f94077e1 	ldr	x1, [sp, #232]
   6b8e8:	52800542 	mov	w2, #0x2a                  	// #42
   6b8ec:	39400020 	ldrb	w0, [x1]
   6b8f0:	7101001f 	cmp	w0, #0x40
   6b8f4:	7a421004 	ccmp	w0, w2, #0x4, ne  // ne = any
   6b8f8:	54000081 	b.ne	6b908 <expand_string_to_string@@Base+0xd78>  // b.any
   6b8fc:	39400420 	ldrb	w0, [x1, #1]
   6b900:	7101741f 	cmp	w0, #0x5d
   6b904:	5400cb20 	b.eq	6d268 <expand_string_to_string@@Base+0x26d8>  // b.none
   6b908:	aa1c03e0 	mov	x0, x28
   6b90c:	97ff0e39 	bl	2f1f0 <free@plt>
   6b910:	17ffff52 	b	6b658 <expand_string_to_string@@Base+0xac8>
   6b914:	8b000282 	add	x2, x20, x0
   6b918:	aa1803e1 	mov	x1, x24
   6b91c:	91000a60 	add	x0, x19, #0x2
   6b920:	39400442 	ldrb	w2, [x2, #1]
   6b924:	39000662 	strb	w2, [x19, #1]
[31m   6b928:	97ff0e8e 	bl	2f360 <strcpy@plt>[0m
   6b92c:	17fffd20 	b	6adac <expand_string_to_string@@Base+0x21c>
   6b930:	b4ffda5c 	cbz	x28, 6b478 <expand_string_to_string@@Base+0x8e8>
--
   6bbc0:	f9400042 	ldr	x2, [x2]
   6bbc4:	2a0103e0 	mov	w0, w1
   6bbc8:	11000421 	add	w1, w1, #0x1
   6bbcc:	b5ffffa2 	cbnz	x2, 6bbc0 <expand_string_to_string@@Base+0x1030>
   6bbd0:	11000800 	add	w0, w0, #0x2
   6bbd4:	93407c04 	sxtw	x4, w0
   6bbd8:	b5003c9b 	cbnz	x27, 6c368 <expand_string_to_string@@Base+0x17d8>
   6bbdc:	91000484 	add	x4, x4, #0x1
   6bbe0:	b4007619 	cbz	x25, 6caa0 <expand_string_to_string@@Base+0x1f10>
   6bbe4:	91000723 	add	x3, x25, #0x1
   6bbe8:	f90037e3 	str	x3, [sp, #104]
   6bbec:	aa0303e0 	mov	x0, x3
   6bbf0:	f9003fe7 	str	x7, [sp, #120]
   6bbf4:	f9004be4 	str	x4, [sp, #144]
   6bbf8:	97ff0b72 	bl	2e9c0 <strlen@plt>
   6bbfc:	91000400 	add	x0, x0, #0x1
   6bc00:	940095d0 	bl	91340 <xmalloc@@Base>
   6bc04:	f94037e3 	ldr	x3, [sp, #104]
   6bc08:	f90047e3 	str	x3, [sp, #136]
   6bc0c:	aa0303e1 	mov	x1, x3
[31m   6bc10:	97ff0dd4 	bl	2f360 <strcpy@plt>[0m
   6bc14:	f90037e0 	str	x0, [sp, #104]
   6bc18:	52800021 	mov	w1, #0x1                   	// #1
--
   6bfc4:	f9400000 	ldr	x0, [x0]
   6bfc8:	94012996 	bl	b6620 <sh_modcase@@Base>
   6bfcc:	f90037e0 	str	x0, [sp, #104]
   6bfd0:	97ff5188 	bl	405f0 <alloc_word_desc@@Base>
   6bfd4:	aa0003f9 	mov	x25, x0
   6bfd8:	f94037e1 	ldr	x1, [sp, #104]
   6bfdc:	f9403fe7 	ldr	x7, [sp, #120]
   6bfe0:	b5fffda1 	cbnz	x1, 6bf94 <expand_string_to_string@@Base+0x1404>
   6bfe4:	d2800020 	mov	x0, #0x1                   	// #1
   6bfe8:	f90037e7 	str	x7, [sp, #104]
   6bfec:	940094d5 	bl	91340 <xmalloc@@Base>
   6bff0:	aa0003e1 	mov	x1, x0
   6bff4:	3900001f 	strb	wzr, [x0]
   6bff8:	f94037e7 	ldr	x7, [sp, #104]
   6bffc:	17ffffe6 	b	6bf94 <expand_string_to_string@@Base+0x1404>
   6c000:	aa1a03e0 	mov	x0, x26
   6c004:	97ff0a6f 	bl	2e9c0 <strlen@plt>
   6c008:	91000400 	add	x0, x0, #0x1
   6c00c:	940094cd 	bl	91340 <xmalloc@@Base>
   6c010:	aa1a03e1 	mov	x1, x26
[31m   6c014:	97ff0cd3 	bl	2f360 <strcpy@plt>[0m
   6c018:	aa0003f8 	mov	x24, x0
   6c01c:	97ff0a69 	bl	2e9c0 <strlen@plt>
--
   6c894:	f9007bf9 	str	x25, [sp, #240]
   6c898:	17fffd37 	b	6bd74 <expand_string_to_string@@Base+0x11e4>
   6c89c:	11000694 	add	w20, w20, #0x1
   6c8a0:	f9007bf9 	str	x25, [sp, #240]
   6c8a4:	17fffd52 	b	6bdec <expand_string_to_string@@Base+0x125c>
   6c8a8:	b4003a47 	cbz	x7, 6cff0 <expand_string_to_string@@Base+0x2460>
   6c8ac:	394000e0 	ldrb	w0, [x7]
   6c8b0:	aa0703f8 	mov	x24, x7
   6c8b4:	5280081b 	mov	w27, #0x40                  	// #64
   6c8b8:	7101781f 	cmp	w0, #0x5e
   6c8bc:	54000061 	b.ne	6c8c8 <expand_string_to_string@@Base+0x1d38>  // b.any
   6c8c0:	910004f8 	add	x24, x7, #0x1
   6c8c4:	5280005b 	mov	w27, #0x2                   	// #2
   6c8c8:	aa1803e0 	mov	x0, x24
   6c8cc:	f90037e7 	str	x7, [sp, #104]
   6c8d0:	b9007be2 	str	w2, [sp, #120]
   6c8d4:	97ff083b 	bl	2e9c0 <strlen@plt>
   6c8d8:	91000400 	add	x0, x0, #0x1
   6c8dc:	94009299 	bl	91340 <xmalloc@@Base>
   6c8e0:	aa1803e1 	mov	x1, x24
[31m   6c8e4:	97ff0a9f 	bl	2f360 <strcpy@plt>[0m
   6c8e8:	2a1603e1 	mov	w1, w22
   6c8ec:	f90047e0 	str	x0, [sp, #136]
--
   6cd14:	f9400359 	ldr	x25, [x26]
   6cd18:	f9000353 	str	x19, [x26]
   6cd1c:	940013ed 	bl	71cd0 <expand_arith_string@@Base+0x930>
   6cd20:	3100041f 	cmn	w0, #0x1
   6cd24:	f94037e7 	ldr	x7, [sp, #104]
   6cd28:	540044c0 	b.eq	6d5c0 <expand_string_to_string@@Base+0x2a30>  // b.none
   6cd2c:	12187814 	and	w20, w0, #0xffffff7f
   6cd30:	71008f1f 	cmp	w24, #0x23
   6cd34:	394000e0 	ldrb	w0, [x7]
   6cd38:	54003c60 	b.eq	6d4c4 <expand_string_to_string@@Base+0x2934>  // b.none
   6cd3c:	7100941f 	cmp	w0, #0x25
   6cd40:	54004aa0 	b.eq	6d694 <expand_string_to_string@@Base+0x2b04>  // b.none
   6cd44:	aa0703f8 	mov	x24, x7
   6cd48:	5280009b 	mov	w27, #0x4                   	// #4
   6cd4c:	aa1803e0 	mov	x0, x24
   6cd50:	f90037e7 	str	x7, [sp, #104]
   6cd54:	97ff071b 	bl	2e9c0 <strlen@plt>
   6cd58:	91000400 	add	x0, x0, #0x1
   6cd5c:	94009179 	bl	91340 <xmalloc@@Base>
   6cd60:	aa1803e1 	mov	x1, x24
[31m   6cd64:	97ff097f 	bl	2f360 <strcpy@plt>[0m
   6cd68:	2a1603e1 	mov	w1, w22
   6cd6c:	aa0003fa 	mov	x26, x0
--
   6d53c:	a94683e7 	ldp	x7, x0, [sp, #104]
   6d540:	f90002e0 	str	x0, [x23]
   6d544:	17fffa4b 	b	6be70 <expand_string_to_string@@Base+0x12e0>
   6d548:	2a1903e3 	mov	w3, w25
   6d54c:	2a1603e4 	mov	w4, w22
   6d550:	aa0003e2 	mov	x2, x0
   6d554:	d2800001 	mov	x1, #0x0                   	// #0
   6d558:	52800a20 	mov	w0, #0x51                  	// #81
   6d55c:	97ffec6d 	bl	68710 <string_list_pos_params@@Base+0x110>
   6d560:	aa0003fb 	mov	x27, x0
   6d564:	97ff0517 	bl	2e9c0 <strlen@plt>
   6d568:	91002000 	add	x0, x0, #0x8
   6d56c:	94008f75 	bl	91340 <xmalloc@@Base>
   6d570:	aa0003f9 	mov	x25, x0
   6d574:	d28cae62 	mov	x2, #0x6573                	// #25971
   6d578:	f2a40e82 	movk	x2, #0x2074, lsl #16
   6d57c:	aa1b03e1 	mov	x1, x27
   6d580:	f2c5a5a2 	movk	x2, #0x2d2d, lsl #32
   6d584:	f2e00402 	movk	x2, #0x20, lsl #48
   6d588:	f8007402 	str	x2, [x0], #7
[31m   6d58c:	97ff0775 	bl	2f360 <strcpy@plt>[0m
   6d590:	aa1b03e0 	mov	x0, x27
   6d594:	97ff0717 	bl	2f1f0 <free@plt>
--
   6e1a0:	394002e0 	ldrb	w0, [x23]
   6e1a4:	52a0009a 	mov	w26, #0x40000               	// #262144
   6e1a8:	7100001f 	cmp	w0, #0x0
   6e1ac:	1a9a13fa 	csel	w26, wzr, w26, ne  // ne = any
   6e1b0:	17fffe76 	b	6db88 <expand_string_to_string@@Base+0x2ff8>
   6e1b4:	52800020 	mov	w0, #0x1                   	// #1
   6e1b8:	b9000380 	str	w0, [x28]
   6e1bc:	17ffff78 	b	6df9c <expand_string_to_string@@Base+0x340c>
   6e1c0:	aa1803e0 	mov	x0, x24
   6e1c4:	17fffeb3 	b	6dc90 <expand_string_to_string@@Base+0x3100>
   6e1c8:	5280001a 	mov	w26, #0x0                   	// #0
   6e1cc:	d2800017 	mov	x23, #0x0                   	// #0
   6e1d0:	17fffe6e 	b	6db88 <expand_string_to_string@@Base+0x2ff8>
   6e1d4:	91000773 	add	x19, x27, #0x1
   6e1d8:	b9006be7 	str	w7, [sp, #104]
   6e1dc:	aa1303e0 	mov	x0, x19
   6e1e0:	97ff01f8 	bl	2e9c0 <strlen@plt>
   6e1e4:	91000400 	add	x0, x0, #0x1
   6e1e8:	94008c56 	bl	91340 <xmalloc@@Base>
   6e1ec:	aa1303e1 	mov	x1, x19
[31m   6e1f0:	97ff045c 	bl	2f360 <strcpy@plt>[0m
   6e1f4:	aa0003fa 	mov	x26, x0
   6e1f8:	97ff01f2 	bl	2e9c0 <strlen@plt>
--
   6e384:	52800020 	mov	w0, #0x1                   	// #1
   6e388:	0b000318 	add	w24, w24, w0
   6e38c:	17ffffcf 	b	6e2c8 <expand_string_to_string@@Base+0x3738>
   6e390:	97ff0398 	bl	2f1f0 <free@plt>
   6e394:	17fffe9f 	b	6de10 <expand_string_to_string@@Base+0x3280>
   6e398:	1100079c 	add	w28, w28, #0x1
   6e39c:	17ffffe6 	b	6e334 <expand_string_to_string@@Base+0x37a4>
   6e3a0:	2a0703e2 	mov	w2, w7
   6e3a4:	32000321 	orr	w1, w25, #0x1
   6e3a8:	aa1303e0 	mov	x0, x19
   6e3ac:	97ffe48d 	bl	675e0 <string_list_dollar_at@@Base>
   6e3b0:	aa0003f7 	mov	x23, x0
   6e3b4:	17ffff18 	b	6e014 <expand_string_to_string@@Base+0x3484>
   6e3b8:	35ffca86 	cbnz	w6, 6dd08 <expand_string_to_string@@Base+0x3178>
   6e3bc:	17fffe54 	b	6dd0c <expand_string_to_string@@Base+0x317c>
   6e3c0:	aa1603e0 	mov	x0, x22
   6e3c4:	97ff017f 	bl	2e9c0 <strlen@plt>
   6e3c8:	91000400 	add	x0, x0, #0x1
   6e3cc:	94008bdd 	bl	91340 <xmalloc@@Base>
   6e3d0:	aa1603e1 	mov	x1, x22
[31m   6e3d4:	97ff03e3 	bl	2f360 <strcpy@plt>[0m
   6e3d8:	aa0003f7 	mov	x23, x0
   6e3dc:	b5ffd27a 	cbnz	x26, 6de28 <expand_string_to_string@@Base+0x3298>
--
   70124:	39000760 	strb	w0, [x27, #1]
   70128:	17fffded 	b	6f8dc <expand_string_to_string@@Base+0x4d4c>
   7012c:	aa0303e0 	mov	x0, x3
   70130:	f90043e3 	str	x3, [sp, #128]
   70134:	97ffdd03 	bl	67540 <quote_string@@Base+0x1c0>
   70138:	90000421 	adrp	x1, f4000 <patch_level@@Base+0xf94c>
   7013c:	911b8021 	add	x1, x1, #0x6e0
   70140:	97ffd788 	bl	65f60 <string_list_internal@@Base>
   70144:	aa0003fb 	mov	x27, x0
   70148:	f94043e3 	ldr	x3, [sp, #128]
   7014c:	17fffed0 	b	6fc8c <expand_string_to_string@@Base+0x50fc>
   70150:	f9400460 	ldr	x0, [x3, #8]
   70154:	f90043e3 	str	x3, [sp, #128]
   70158:	f9400000 	ldr	x0, [x0]
   7015c:	97fefa19 	bl	2e9c0 <strlen@plt>
   70160:	91000400 	add	x0, x0, #0x1
   70164:	94008477 	bl	91340 <xmalloc@@Base>
   70168:	f94043e3 	ldr	x3, [sp, #128]
   7016c:	f9400461 	ldr	x1, [x3, #8]
   70170:	f9400021 	ldr	x1, [x1]
[31m   70174:	97fefc7b 	bl	2f360 <strcpy@plt>[0m
   70178:	aa0003fc 	mov	x28, x0
   7017c:	f94043e3 	ldr	x3, [sp, #128]
--
   705d4:	910003fd 	mov	x29, sp
   705d8:	a9025bf5 	stp	x21, x22, [sp, #32]
   705dc:	b00005f6 	adrp	x22, 12d000 <o_options@@Base+0x2220>
   705e0:	f9432ac3 	ldr	x3, [x22, #1616]
   705e4:	a90153f3 	stp	x19, x20, [sp, #16]
   705e8:	2a0103f3 	mov	w19, w1
   705ec:	f9400061 	ldr	x1, [x3]
   705f0:	f90027e1 	str	x1, [sp, #72]
   705f4:	d2800001 	mov	x1, #0x0                   	// #0
   705f8:	b40006c0 	cbz	x0, 706d0 <expand_prompt_string@@Base+0x100>
   705fc:	39400001 	ldrb	w1, [x0]
   70600:	aa0003f5 	mov	x21, x0
   70604:	34000661 	cbz	w1, 706d0 <expand_prompt_string@@Base+0x100>
   70608:	b90043e2 	str	w2, [sp, #64]
   7060c:	97fef8ed 	bl	2e9c0 <strlen@plt>
   70610:	91000400 	add	x0, x0, #0x1
   70614:	9400834b 	bl	91340 <xmalloc@@Base>
   70618:	aa1503e1 	mov	x1, x21
   7061c:	90000654 	adrp	x20, 138000 <running_in_background@@Base+0x610>
   70620:	9128e294 	add	x20, x20, #0xa38
[31m   70624:	97fefb4f 	bl	2f360 <strcpy@plt>[0m
   70628:	aa0003e7 	mov	x7, x0
   7062c:	52800026 	mov	w6, #0x1                   	// #1
--
   70824:	f9432aa1 	ldr	x1, [x21, #1616]
   70828:	a90153f3 	stp	x19, x20, [sp, #16]
   7082c:	f9400022 	ldr	x2, [x1]
   70830:	f9002fe2 	str	x2, [sp, #88]
   70834:	d2800002 	mov	x2, #0x0                   	// #0
   70838:	b40006a0 	cbz	x0, 7090c <expand_string_assignment@@Base+0xfc>
   7083c:	39400001 	ldrb	w1, [x0]
   70840:	aa0003f4 	mov	x20, x0
   70844:	d2800013 	mov	x19, #0x0                   	// #0
   70848:	340004a1 	cbz	w1, 708dc <expand_string_assignment@@Base+0xcc>
   7084c:	52810002 	mov	w2, #0x800                 	// #2048
   70850:	52800021 	mov	w1, #0x1                   	// #1
   70854:	f9001bf7 	str	x23, [sp, #48]
   70858:	90000657 	adrp	x23, 138000 <running_in_background@@Base+0x610>
   7085c:	b90053e2 	str	w2, [sp, #80]
   70860:	b90a3ae1 	str	w1, [x23, #2616]
   70864:	97fef857 	bl	2e9c0 <strlen@plt>
   70868:	91000400 	add	x0, x0, #0x1
   7086c:	940082b5 	bl	91340 <xmalloc@@Base>
   70870:	aa1403e1 	mov	x1, x20
[31m   70874:	97fefabb 	bl	2f360 <strcpy@plt>[0m
   70878:	aa0003e4 	mov	x4, x0
   7087c:	2a1603e1 	mov	w1, w22
--
   70d2c:	54000f60 	b.eq	70f18 <expand_assignment_string_to_string@@Base+0x5f8>  // b.none
   70d30:	7100fc3f 	cmp	w1, #0x3f
   70d34:	54ffefa1 	b.ne	70b28 <expand_assignment_string_to_string@@Base+0x208>  // b.any
   70d38:	b00005e0 	adrp	x0, 12d000 <o_options@@Base+0x2220>
   70d3c:	f9475800 	ldr	x0, [x0, #3760]
   70d40:	b9400000 	ldr	w0, [x0]
   70d44:	93407c00 	sxtw	x0, w0
   70d48:	9400ff26 	bl	b09e0 <itos@@Base>
   70d4c:	aa0003f5 	mov	x21, x0
   70d50:	17ffff76 	b	70b28 <expand_assignment_string_to_string@@Base+0x208>
   70d54:	aa1503e0 	mov	x0, x21
   70d58:	97ff77f6 	bl	4ed30 <find_variable@@Base>
   70d5c:	b4000060 	cbz	x0, 70d68 <expand_assignment_string_to_string@@Base+0x448>
   70d60:	b9402801 	ldr	w1, [x0, #40]
   70d64:	36600541 	tbz	w1, #12, 70e0c <expand_assignment_string_to_string@@Base+0x4ec>
   70d68:	aa1303e0 	mov	x0, x19
   70d6c:	97fef715 	bl	2e9c0 <strlen@plt>
   70d70:	91000400 	add	x0, x0, #0x1
   70d74:	94008173 	bl	91340 <xmalloc@@Base>
   70d78:	aa1303e1 	mov	x1, x19
[31m   70d7c:	97fef979 	bl	2f360 <strcpy@plt>[0m
   70d80:	52800482 	mov	w2, #0x24                  	// #36
   70d84:	39000002 	strb	w2, [x0]
--
   71110:	17fffe3c 	b	70a00 <expand_assignment_string_to_string@@Base+0xe0>
   71114:	d503201f 	nop
   71118:	d503201f 	nop
   7111c:	d503201f 	nop
   71120:	a9bb7bfd 	stp	x29, x30, [sp, #-80]!
   71124:	910003fd 	mov	x29, sp
   71128:	a90153f3 	stp	x19, x20, [sp, #16]
   7112c:	900005f3 	adrp	x19, 12d000 <o_options@@Base+0x2220>
   71130:	2a0103f4 	mov	w20, w1
   71134:	f9432a61 	ldr	x1, [x19, #1616]
   71138:	b90043ff 	str	wzr, [sp, #64]
   7113c:	f9400022 	ldr	x2, [x1]
   71140:	f90027e2 	str	x2, [sp, #72]
   71144:	d2800002 	mov	x2, #0x0                   	// #0
   71148:	f90013f5 	str	x21, [sp, #32]
   7114c:	aa0003f5 	mov	x21, x0
   71150:	97fef61c 	bl	2e9c0 <strlen@plt>
   71154:	91000400 	add	x0, x0, #0x1
   71158:	9400807a 	bl	91340 <xmalloc@@Base>
   7115c:	aa1503e1 	mov	x1, x21
[31m   71160:	97fef880 	bl	2f360 <strcpy@plt>[0m
   71164:	aa0003e4 	mov	x4, x0
   71168:	2a1403e1 	mov	w1, w20
--
   714a4:	b9400000 	ldr	w0, [x0]
   714a8:	34000400 	cbz	w0, 71528 <expand_arith_string@@Base+0x188>
   714ac:	52800020 	mov	w0, #0x1                   	// #1
   714b0:	373803c4 	tbnz	w4, #7, 71528 <expand_arith_string@@Base+0x188>
   714b4:	0b0002d6 	add	w22, w22, w0
   714b8:	3876cae4 	ldrb	w4, [x23, w22, sxtw]
   714bc:	93407ec2 	sxtw	x2, w22
   714c0:	8b0202e1 	add	x1, x23, x2
   714c4:	35fffb64 	cbnz	w4, 71430 <expand_arith_string@@Base+0x90>
   714c8:	3400009a 	cbz	w26, 714d8 <expand_arith_string@@Base+0x138>
   714cc:	374004f4 	tbnz	w20, #8, 71568 <expand_arith_string@@Base+0x1c8>
   714d0:	f240069f 	tst	x20, #0x3
   714d4:	540004a0 	b.eq	71568 <expand_arith_string@@Base+0x1c8>  // b.none
   714d8:	a9446bf9 	ldp	x25, x26, [sp, #64]
   714dc:	a94573fb 	ldp	x27, x28, [sp, #80]
   714e0:	aa1703e0 	mov	x0, x23
   714e4:	97fef537 	bl	2e9c0 <strlen@plt>
   714e8:	91000400 	add	x0, x0, #0x1
   714ec:	94007f95 	bl	91340 <xmalloc@@Base>
   714f0:	aa1703e1 	mov	x1, x23
[31m   714f4:	97fef79b 	bl	2f360 <strcpy@plt>[0m
   714f8:	aa0003f4 	mov	x20, x0
   714fc:	f9432a73 	ldr	x19, [x19, #1616]
--
   71554:	b5fffb00 	cbnz	x0, 714b4 <expand_arith_string@@Base+0x114>
   71558:	110006d6 	add	w22, w22, #0x1
   7155c:	17ffffd7 	b	714b8 <expand_arith_string@@Base+0x118>
   71560:	52800020 	mov	w0, #0x1                   	// #1
   71564:	17ffffd4 	b	714b4 <expand_arith_string@@Base+0x114>
   71568:	2a1403e1 	mov	w1, w20
   7156c:	aa1703e0 	mov	x0, x23
   71570:	97ffe1a0 	bl	69bf0 <string_quote_removal@@Base>
   71574:	aa0003f4 	mov	x20, x0
   71578:	a9446bf9 	ldp	x25, x26, [sp, #64]
   7157c:	a94573fb 	ldp	x27, x28, [sp, #80]
   71580:	17ffffdf 	b	714fc <expand_arith_string@@Base+0x15c>
   71584:	52820001 	mov	w1, #0x1000                	// #4096
   71588:	72a00201 	movk	w1, #0x10, lsl #16
   7158c:	aa1703e0 	mov	x0, x23
   71590:	b9007be1 	str	w1, [sp, #120]
   71594:	97fef50b 	bl	2e9c0 <strlen@plt>
   71598:	91000400 	add	x0, x0, #0x1
   7159c:	94007f69 	bl	91340 <xmalloc@@Base>
   715a0:	aa1703e1 	mov	x1, x23
[31m   715a4:	97fef76f 	bl	2f360 <strcpy@plt>[0m
   715a8:	aa0003e4 	mov	x4, x0
   715ac:	2a1403e1 	mov	w1, w20
--
   71758:	2a0303f8 	mov	w24, w3
   7175c:	b4000064 	cbz	x4, 71768 <expand_arith_string@@Base+0x3c8>
   71760:	d2f00000 	mov	x0, #0x8000000000000000    	// #-9223372036854775808
   71764:	f9000080 	str	x0, [x4]
   71768:	910163e1 	add	x1, sp, #0x58
   7176c:	aa1303e0 	mov	x0, x19
   71770:	97ff3570 	bl	3ed30 <legal_number@@Base>
   71774:	35000a00 	cbnz	w0, 718b4 <expand_arith_string@@Base+0x514>
   71778:	340004b6 	cbz	w22, 7180c <expand_arith_string@@Base+0x46c>
   7177c:	aa1303e0 	mov	x0, x19
   71780:	97fef490 	bl	2e9c0 <strlen@plt>
   71784:	91000800 	add	x0, x0, #0x2
   71788:	94007eee 	bl	91340 <xmalloc@@Base>
   7178c:	f9002be0 	str	x0, [sp, #80]
   71790:	52800482 	mov	w2, #0x24                  	// #36
   71794:	b90063ff 	str	wzr, [sp, #96]
   71798:	aa1303e1 	mov	x1, x19
   7179c:	39000002 	strb	w2, [x0]
   717a0:	f9402be0 	ldr	x0, [sp, #80]
   717a4:	91000400 	add	x0, x0, #0x1
[31m   717a8:	97fef6ee 	bl	2f360 <strcpy@plt>[0m
   717ac:	f9402be0 	ldr	x0, [sp, #80]
   717b0:	2a1803e7 	mov	w7, w24
--
   720e8:	910223e6 	add	x6, sp, #0x88
   720ec:	2a1503e3 	mov	w3, w21
   720f0:	f9000260 	str	x0, [x19]
   720f4:	f9003be8 	str	x8, [sp, #112]
   720f8:	97fffef6 	bl	71cd0 <expand_arith_string@@Base+0x930>
   720fc:	3100041f 	cmn	w0, #0x1
   72100:	54002640 	b.eq	725c8 <expand_arith_string@@Base+0x1228>  // b.none
   72104:	394002c1 	ldrb	w1, [x22]
   72108:	12190017 	and	w23, w0, #0x80
   7210c:	12187814 	and	w20, w0, #0xffffff7f
   72110:	52800013 	mov	w19, #0x0                   	// #0
   72114:	7100bc3f 	cmp	w1, #0x2f
   72118:	54000061 	b.ne	72124 <expand_arith_string@@Base+0xd84>  // b.any
   7211c:	910006d6 	add	x22, x22, #0x1
   72120:	52800213 	mov	w19, #0x10                  	// #16
   72124:	aa1603e0 	mov	x0, x22
   72128:	97fef226 	bl	2e9c0 <strlen@plt>
   7212c:	91000400 	add	x0, x0, #0x1
   72130:	94007c84 	bl	91340 <xmalloc@@Base>
   72134:	aa1603e1 	mov	x1, x22
[31m   72138:	97fef48a 	bl	2f360 <strcpy@plt>[0m
   7213c:	f24006bf 	tst	x21, #0x3
   72140:	321b0262 	orr	w2, w19, #0x20
--
   73aa8:	b0000633 	adrp	x19, 138000 <running_in_background@@Base+0x610>
   73aac:	f9456a61 	ldr	x1, [x19, #2768]
   73ab0:	f9001bf7 	str	x23, [sp, #48]
   73ab4:	2a0303f6 	mov	w22, w3
   73ab8:	2a0203f7 	mov	w23, w2
   73abc:	b4000581 	cbz	x1, 73b6c <phash_insert@@Base+0xec>
   73ac0:	aa1503e0 	mov	x0, x21
   73ac4:	52800002 	mov	w2, #0x0                   	// #0
   73ac8:	940001ce 	bl	74200 <hash_insert@@Base>
   73acc:	aa0003f3 	mov	x19, x0
   73ad0:	f9400800 	ldr	x0, [x0, #16]
   73ad4:	b4000360 	cbz	x0, 73b40 <phash_insert@@Base+0xc0>
   73ad8:	f9400000 	ldr	x0, [x0]
   73adc:	97feedc5 	bl	2f1f0 <free@plt>
   73ae0:	aa1403e0 	mov	x0, x20
   73ae4:	97feebb7 	bl	2e9c0 <strlen@plt>
   73ae8:	91000400 	add	x0, x0, #0x1
   73aec:	94007615 	bl	91340 <xmalloc@@Base>
   73af0:	aa1403e1 	mov	x1, x20
   73af4:	f9400a75 	ldr	x21, [x19, #16]
[31m   73af8:	97feee1a 	bl	2f360 <strcpy@plt>[0m
   73afc:	f9400a61 	ldr	x1, [x19, #16]
   73b00:	710002ff 	cmp	w23, #0x0
   73b04:	f9401bf7 	ldr	x23, [sp, #48]
   73b08:	f90002a0 	str	x0, [x21]
   73b0c:	52800042 	mov	w2, #0x2                   	// #2
   73b10:	1a8203e2 	csel	w2, wzr, w2, eq  // eq = none
   73b14:	b9000822 	str	w2, [x1, #8]
   73b18:	32000040 	orr	w0, w2, #0x1
   73b1c:	39400283 	ldrb	w3, [x20]
   73b20:	7100bc7f 	cmp	w3, #0x2f
   73b24:	1a821002 	csel	w2, w0, w2, ne  // ne = any
   73b28:	b9000822 	str	w2, [x1, #8]
   73b2c:	b9001e76 	str	w22, [x19, #28]
   73b30:	a94153f3 	ldp	x19, x20, [sp, #16]
   73b34:	a9425bf5 	ldp	x21, x22, [sp, #32]
   73b38:	a8c47bfd 	ldp	x29, x30, [sp], #64
   73b3c:	d65f03c0 	ret
   73b40:	aa1503e0 	mov	x0, x21
   73b44:	97feeb9f 	bl	2e9c0 <strlen@plt>
   73b48:	91000400 	add	x0, x0, #0x1
   73b4c:	940075fd 	bl	91340 <xmalloc@@Base>
   73b50:	aa1503e1 	mov	x1, x21
[31m   73b54:	97feee03 	bl	2f360 <strcpy@plt>[0m
   73b58:	f9000660 	str	x0, [x19, #8]
   73b5c:	d2800200 	mov	x0, #0x10                  	// #16
--
   73bc0:	f90013f5 	str	x21, [sp, #32]
   73bc4:	f9400015 	ldr	x21, [x0]
   73bc8:	f240043f 	tst	x1, #0x3
   73bcc:	54000340 	b.eq	73c34 <phash_search@@Base+0xb4>  // b.none
   73bd0:	f240003f 	tst	x1, #0x1
   73bd4:	9a950273 	csel	x19, x19, x21, eq  // eq = none
   73bd8:	aa1303e0 	mov	x0, x19
   73bdc:	97feeb79 	bl	2e9c0 <strlen@plt>
   73be0:	39400261 	ldrb	w1, [x19]
   73be4:	7100b83f 	cmp	w1, #0x2e
   73be8:	54000081 	b.ne	73bf8 <phash_search@@Base+0x78>  // b.any
   73bec:	39400661 	ldrb	w1, [x19, #1]
   73bf0:	7100bc3f 	cmp	w1, #0x2f
   73bf4:	54000660 	b.eq	73cc0 <phash_search@@Base+0x140>  // b.none
   73bf8:	91000c00 	add	x0, x0, #0x3
   73bfc:	940075d1 	bl	91340 <xmalloc@@Base>
   73c00:	5285e5c2 	mov	w2, #0x2f2e                	// #12078
   73c04:	aa0003f4 	mov	x20, x0
   73c08:	78002402 	strh	w2, [x0], #2
   73c0c:	aa1303e1 	mov	x1, x19
[31m   73c10:	97feedd4 	bl	2f360 <strcpy@plt>[0m
   73c14:	aa1403e0 	mov	x0, x20
   73c18:	94006142 	bl	8c120 <executable_file@@Base>
--
   73c7c:	911d8000 	add	x0, x0, #0x760
   73c80:	d2800002 	mov	x2, #0x0                   	// #0
   73c84:	97ff2deb 	bl	3f430 <same_file@@Base>
   73c88:	528005e1 	mov	w1, #0x2f                  	// #47
   73c8c:	39000261 	strb	w1, [x19]
   73c90:	34fffd20 	cbz	w0, 73c34 <phash_search@@Base+0xb4>
   73c94:	f94013f5 	ldr	x21, [sp, #32]
   73c98:	d2800014 	mov	x20, #0x0                   	// #0
   73c9c:	aa1403e0 	mov	x0, x20
   73ca0:	a94153f3 	ldp	x19, x20, [sp, #16]
   73ca4:	a8c37bfd 	ldp	x29, x30, [sp], #48
   73ca8:	d65f03c0 	ret
   73cac:	aa1403e0 	mov	x0, x20
   73cb0:	a94153f3 	ldp	x19, x20, [sp, #16]
   73cb4:	f94013f5 	ldr	x21, [sp, #32]
   73cb8:	a8c37bfd 	ldp	x29, x30, [sp], #48
   73cbc:	d65f03c0 	ret
   73cc0:	91000400 	add	x0, x0, #0x1
   73cc4:	9400759f 	bl	91340 <xmalloc@@Base>
   73cc8:	aa1303e1 	mov	x1, x19
[31m   73ccc:	97feeda5 	bl	2f360 <strcpy@plt>[0m
   73cd0:	aa0003f4 	mov	x20, x0
   73cd4:	17ffffd0 	b	73c14 <phash_search@@Base+0x94>
--
   73db4:	52800017 	mov	w23, #0x0                   	// #0
   73db8:	a90153f3 	stp	x19, x20, [sp, #16]
   73dbc:	a9025bf5 	stp	x21, x22, [sp, #32]
   73dc0:	d2800015 	mov	x21, #0x0                   	// #0
   73dc4:	f9002bfb 	str	x27, [sp, #80]
   73dc8:	f9400300 	ldr	x0, [x24]
   73dcc:	f9400356 	ldr	x22, [x26]
   73dd0:	f8756813 	ldr	x19, [x0, x21]
   73dd4:	8b1502d6 	add	x22, x22, x21
   73dd8:	b40006d3 	cbz	x19, 73eb0 <hash_copy@@Base+0x130>
   73ddc:	d280001b 	mov	x27, #0x0                   	// #0
   73de0:	14000017 	b	73e3c <hash_copy@@Base+0xbc>
   73de4:	94007557 	bl	91340 <xmalloc@@Base>
   73de8:	f9000360 	str	x0, [x27]
   73dec:	aa0003fb 	mov	x27, x0
   73df0:	f9400660 	ldr	x0, [x19, #8]
   73df4:	97feeaf3 	bl	2e9c0 <strlen@plt>
   73df8:	91000400 	add	x0, x0, #0x1
   73dfc:	94007551 	bl	91340 <xmalloc@@Base>
   73e00:	f9400661 	ldr	x1, [x19, #8]
[31m   73e04:	97feed57 	bl	2f360 <strcpy@plt>[0m
   73e08:	f9400a62 	ldr	x2, [x19, #16]
   73e0c:	f9000760 	str	x0, [x27, #8]
--
   73e54:	b9400b01 	ldr	w1, [x24, #8]
   73e58:	f90002d4 	str	x20, [x22]
   73e5c:	110006f7 	add	w23, w23, #0x1
   73e60:	6b17003f 	cmp	w1, w23
   73e64:	910022b5 	add	x21, x21, #0x8
   73e68:	54fffb0c 	b.gt	73dc8 <hash_copy@@Base+0x48>
   73e6c:	a94153f3 	ldp	x19, x20, [sp, #16]
   73e70:	a9425bf5 	ldp	x21, x22, [sp, #32]
   73e74:	f9402bfb 	ldr	x27, [sp, #80]
   73e78:	b9400f00 	ldr	w0, [x24, #12]
   73e7c:	a94363f7 	ldp	x23, x24, [sp, #48]
   73e80:	b9000f40 	str	w0, [x26, #12]
   73e84:	aa1a03e0 	mov	x0, x26
   73e88:	a9446bf9 	ldp	x25, x26, [sp, #64]
   73e8c:	a8c67bfd 	ldp	x29, x30, [sp], #96
   73e90:	d65f03c0 	ret
   73e94:	97feeacb 	bl	2e9c0 <strlen@plt>
   73e98:	91000400 	add	x0, x0, #0x1
   73e9c:	94007529 	bl	91340 <xmalloc@@Base>
   73ea0:	f9400a61 	ldr	x1, [x19, #16]
[31m   73ea4:	97feed2f 	bl	2f360 <strcpy@plt>[0m
   73ea8:	aa0003e2 	mov	x2, x0
   73eac:	17ffffde 	b	73e24 <hash_copy@@Base+0xa4>
--
   745f0:	f9402bfb 	ldr	x27, [sp, #80]
   745f4:	11000742 	add	w2, w26, #0x1
   745f8:	912b62a3 	add	x3, x21, #0xad8
   745fc:	aa1903e0 	mov	x0, x25
   74600:	937d7c41 	sbfiz	x1, x2, #3, #32
   74604:	d1002039 	sub	x25, x1, #0x8
   74608:	b9000862 	str	w2, [x3, #8]
   7460c:	94007361 	bl	91390 <xrealloc@@Base>
   74610:	aa0003f8 	mov	x24, x0
   74614:	d2800600 	mov	x0, #0x30                  	// #48
   74618:	f9056eb8 	str	x24, [x21, #2776]
   7461c:	94007349 	bl	91340 <xmalloc@@Base>
   74620:	f9000013 	str	x19, [x0]
   74624:	aa0003f7 	mov	x23, x0
   74628:	b4000114 	cbz	x20, 74648 <hash_walk@@Base+0x278>
   7462c:	aa1403e0 	mov	x0, x20
   74630:	97fee8e4 	bl	2e9c0 <strlen@plt>
   74634:	91000400 	add	x0, x0, #0x1
   74638:	94007342 	bl	91340 <xmalloc@@Base>
   7463c:	aa1403e1 	mov	x1, x20
[31m   74640:	97feeb48 	bl	2f360 <strcpy@plt>[0m
   74644:	aa0003f4 	mov	x20, x0
   74648:	912b62a0 	add	x0, x21, #0xad8
--
   74884:	910003fd 	mov	x29, sp
   74888:	a90153f3 	stp	x19, x20, [sp, #16]
   7488c:	b00005d4 	adrp	x20, 12d000 <o_options@@Base+0x2220>
   74890:	97fef55c 	bl	31e00 <get_current_user_info@@Base>
   74894:	f9444e94 	ldr	x20, [x20, #2200]
   74898:	f9400a80 	ldr	x0, [x20, #16]
   7489c:	97fee849 	bl	2e9c0 <strlen@plt>
   748a0:	91003000 	add	x0, x0, #0xc
   748a4:	940072a7 	bl	91340 <xmalloc@@Base>
   748a8:	aa0003f3 	mov	x19, x0
   748ac:	90000381 	adrp	x1, e4000 <_IO_stdin_used@@Base+0x3db8>
   748b0:	91056021 	add	x1, x1, #0x158
   748b4:	528005e2 	mov	w2, #0x2f                  	// #47
   748b8:	91002800 	add	x0, x0, #0xa
   748bc:	79401023 	ldrh	w3, [x1, #8]
   748c0:	79001263 	strh	w3, [x19, #8]
   748c4:	f9400021 	ldr	x1, [x1]
   748c8:	f9000261 	str	x1, [x19]
   748cc:	39002662 	strb	w2, [x19, #9]
   748d0:	f9400a81 	ldr	x1, [x20, #16]
[31m   748d4:	97feeaa3 	bl	2f360 <strcpy@plt>[0m
   748d8:	aa1303e0 	mov	x0, x19
   748dc:	a94153f3 	ldp	x19, x20, [sp, #16]
--
0000000000074a70 <check_mail@@Base>:
   74a70:	a9b07bfd 	stp	x29, x30, [sp, #-256]!
   74a74:	b00005c1 	adrp	x1, 12d000 <o_options@@Base+0x2220>
   74a78:	910003fd 	mov	x29, sp
   74a7c:	f9432821 	ldr	x1, [x1, #1616]
   74a80:	a90153f3 	stp	x19, x20, [sp, #16]
   74a84:	f9400022 	ldr	x2, [x1]
   74a88:	f9007fe2 	str	x2, [sp, #248]
   74a8c:	d2800002 	mov	x2, #0x0                   	// #0
   74a90:	a90363f7 	stp	x23, x24, [sp, #48]
   74a94:	90000377 	adrp	x23, e0000 <rl_insert_close@@Base+0x290>
   74a98:	913602e0 	add	x0, x23, #0xd80
   74a9c:	a90573fb 	stp	x27, x28, [sp, #80]
   74aa0:	97ff6b34 	bl	4f770 <get_string_value@@Base>
   74aa4:	aa0003f4 	mov	x20, x0
   74aa8:	b4001420 	cbz	x0, 74d2c <check_mail@@Base+0x2bc>
   74aac:	97fee7c5 	bl	2e9c0 <strlen@plt>
   74ab0:	91000400 	add	x0, x0, #0x1
   74ab4:	94007223 	bl	91340 <xmalloc@@Base>
   74ab8:	aa1403e1 	mov	x1, x20
[31m   74abc:	97feea29 	bl	2f360 <strcpy@plt>[0m
   74ac0:	9000063c 	adrp	x28, 138000 <running_in_background@@Base+0x610>
   74ac4:	912b6381 	add	x1, x28, #0xad8
--
   7512c:	37300ea0 	tbnz	w0, #6, 75300 <initialize_traps@@Base+0x420>
   75130:	900005c3 	adrp	x3, 12d000 <o_options@@Base+0x2220>
   75134:	f0ffffe1 	adrp	x1, 74000 <hash_search@@Base+0xb0>
   75138:	913b8021 	add	x1, x1, #0xee0
   7513c:	f944a863 	ldr	x3, [x3, #2384]
   75140:	f8647863 	ldr	x3, [x3, x4, lsl #3]
   75144:	f90027e3 	str	x3, [sp, #72]
   75148:	eb01007f 	cmp	x3, x1
   7514c:	54000dc0 	b.eq	75304 <initialize_traps@@Base+0x424>  // b.none
   75150:	37200da0 	tbnz	w0, #4, 75304 <initialize_traps@@Base+0x424>
   75154:	121a7801 	and	w1, w0, #0xffffffdf
   75158:	aa0303f3 	mov	x19, x3
   7515c:	321c0021 	orr	w1, w1, #0x10
   75160:	aa0303e0 	mov	x0, x3
   75164:	b8247841 	str	w1, [x2, x4, lsl #2]
   75168:	97fee616 	bl	2e9c0 <strlen@plt>
   7516c:	91000400 	add	x0, x0, #0x1
   75170:	94007074 	bl	91340 <xmalloc@@Base>
   75174:	f90037e0 	str	x0, [sp, #104]
   75178:	aa1303e1 	mov	x1, x19
[31m   7517c:	97fee879 	bl	2f360 <strcpy@plt>[0m
   75180:	900005c0 	adrp	x0, 12d000 <o_options@@Base+0x2220>
   75184:	f00005a1 	adrp	x1, 12c000 <o_options@@Base+0x1220>
--
   75a78:	f94002a9 	ldr	x9, [x21]
   75a7c:	900005d6 	adrp	x22, 12d000 <o_options@@Base+0x2220>
   75a80:	f94033e1 	ldr	x1, [sp, #96]
   75a84:	52800020 	mov	w0, #0x1                   	// #1
   75a88:	f90002bf 	str	xzr, [x21]
   75a8c:	f90037e9 	str	x9, [sp, #104]
   75a90:	f940003c 	ldr	x28, [x1]
   75a94:	f900003f 	str	xzr, [x1]
   75a98:	97ff94f2 	bl	5ae60 <save_pipeline@@Base>
   75a9c:	f9458761 	ldr	x1, [x27, #2824]
   75aa0:	f946d2d6 	ldr	x22, [x22, #3488]
   75aa4:	b838683f 	str	wzr, [x1, x24]
   75aa8:	f87a7a80 	ldr	x0, [x20, x26, lsl #3]
   75aac:	b94002c1 	ldr	w1, [x22]
   75ab0:	11000421 	add	w1, w1, #0x1
   75ab4:	b90002c1 	str	w1, [x22]
   75ab8:	97fee3c2 	bl	2e9c0 <strlen@plt>
   75abc:	91000400 	add	x0, x0, #0x1
   75ac0:	94006e20 	bl	91340 <xmalloc@@Base>
   75ac4:	f87a7a81 	ldr	x1, [x20, x26, lsl #3]
[31m   75ac8:	97fee626 	bl	2f360 <strcpy@plt>[0m
   75acc:	528002a2 	mov	w2, #0x15                  	// #21
   75ad0:	d0000361 	adrp	x1, e3000 <_IO_stdin_used@@Base+0x2db8>
--
   760a0:	54000440 	b.eq	76128 <set_signal@@Base+0x108>  // b.none
   760a4:	371808a1 	tbnz	w1, #3, 761b8 <set_signal@@Base+0x198>
   760a8:	910123f7 	add	x23, sp, #0x48
   760ac:	910323f5 	add	x21, sp, #0xc8
   760b0:	aa1703e0 	mov	x0, x23
   760b4:	97fee35b 	bl	2ee20 <sigemptyset@plt>
   760b8:	2a1303e1 	mov	w1, w19
   760bc:	aa1703e0 	mov	x0, x23
   760c0:	97fee530 	bl	2f580 <sigaddset@plt>
   760c4:	aa1503e0 	mov	x0, x21
   760c8:	97fee356 	bl	2ee20 <sigemptyset@plt>
   760cc:	aa1503e2 	mov	x2, x21
   760d0:	aa1703e1 	mov	x1, x23
   760d4:	52800000 	mov	w0, #0x0                   	// #0
   760d8:	97fee26e 	bl	2ea90 <sigprocmask@plt>
   760dc:	aa1403e0 	mov	x0, x20
   760e0:	97fee238 	bl	2e9c0 <strlen@plt>
   760e4:	91000400 	add	x0, x0, #0x1
   760e8:	94006c96 	bl	91340 <xmalloc@@Base>
   760ec:	aa1403e1 	mov	x1, x20
[31m   760f0:	97fee49c 	bl	2f360 <strcpy@plt>[0m
   760f4:	aa0003e1 	mov	x1, x0
   760f8:	2a1303e0 	mov	w0, w19
--
   76114:	d2800002 	mov	x2, #0x0                   	// #0
   76118:	52800040 	mov	w0, #0x2                   	// #2
   7611c:	97fee25d 	bl	2ea90 <sigprocmask@plt>
   76120:	a94363f7 	ldp	x23, x24, [sp, #48]
   76124:	14000002 	b	7612c <set_signal@@Base+0x10c>
   76128:	a94363f7 	ldp	x23, x24, [sp, #48]
   7612c:	f9432ac0 	ldr	x0, [x22, #1616]
   76130:	f940a7e1 	ldr	x1, [sp, #328]
   76134:	f9400000 	ldr	x0, [x0]
   76138:	ca000020 	eor	x0, x1, x0
   7613c:	b5000760 	cbnz	x0, 76228 <set_signal@@Base+0x208>
   76140:	a94153f3 	ldp	x19, x20, [sp, #16]
   76144:	a9425bf5 	ldp	x21, x22, [sp, #32]
   76148:	a8d57bfd 	ldp	x29, x30, [sp], #336
   7614c:	d65f03c0 	ret
   76150:	aa1403e0 	mov	x0, x20
   76154:	97fee21b 	bl	2e9c0 <strlen@plt>
   76158:	91000400 	add	x0, x0, #0x1
   7615c:	94006c79 	bl	91340 <xmalloc@@Base>
   76160:	aa1403e1 	mov	x1, x20
[31m   76164:	97fee47f 	bl	2f360 <strcpy@plt>[0m
   76168:	aa0003e1 	mov	x1, x0
   7616c:	2a1303e0 	mov	w0, w19
   76170:	97fffcac 	bl	75420 <initialize_traps@@Base+0x540>
   76174:	17ffffee 	b	7612c <set_signal@@Base+0x10c>
   76178:	aa1403e0 	mov	x0, x20
   7617c:	97fee211 	bl	2e9c0 <strlen@plt>
   76180:	91000400 	add	x0, x0, #0x1
   76184:	94006c6f 	bl	91340 <xmalloc@@Base>
   76188:	aa1403e1 	mov	x1, x20
[31m   7618c:	97fee475 	bl	2f360 <strcpy@plt>[0m
   76190:	aa0003e1 	mov	x1, x0
   76194:	2a1303e0 	mov	w0, w19
   76198:	97fffca2 	bl	75420 <initialize_traps@@Base+0x540>
   7619c:	f00005a0 	adrp	x0, 12d000 <o_options@@Base+0x2220>
   761a0:	f944dc00 	ldr	x0, [x0, #2488]
   761a4:	b9400000 	ldr	w0, [x0]
   761a8:	2a000273 	orr	w19, w19, w0
   761ac:	35fffc13 	cbnz	w19, 7612c <set_signal@@Base+0x10c>
   761b0:	94000c04 	bl	791c0 <initialize_terminating_signals@@Base>
   761b4:	17ffffde 	b	7612c <set_signal@@Base+0x10c>
   761b8:	aa1403e0 	mov	x0, x20
   761bc:	97fee201 	bl	2e9c0 <strlen@plt>
   761c0:	91000400 	add	x0, x0, #0x1
   761c4:	94006c5f 	bl	91340 <xmalloc@@Base>
   761c8:	aa1403e1 	mov	x1, x20
[31m   761cc:	97fee465 	bl	2f360 <strcpy@plt>[0m
   761d0:	aa0003e1 	mov	x1, x0
   761d4:	2a1303e0 	mov	w0, w19
--
   767dc:	52800a21 	mov	w1, #0x51                  	// #81
   767e0:	0a010294 	and	w20, w20, w1
   767e4:	7100069f 	cmp	w20, #0x1
   767e8:	54000120 	b.eq	7680c <run_exit_trap@@Base+0x6c>  // b.none
   767ec:	97ff7b11 	bl	55430 <restore_pipestatus_array@@Base>
   767f0:	b9400260 	ldr	w0, [x19]
   767f4:	b90037e0 	str	w0, [sp, #52]
   767f8:	a94153f3 	ldp	x19, x20, [sp, #16]
   767fc:	b94037e0 	ldr	w0, [sp, #52]
   76800:	a9425bf5 	ldp	x21, x22, [sp, #32]
   76804:	a8c57bfd 	ldp	x29, x30, [sp], #80
   76808:	d65f03c0 	ret
   7680c:	f00005b6 	adrp	x22, 12d000 <o_options@@Base+0x2220>
   76810:	f944aad6 	ldr	x22, [x22, #2384]
   76814:	f94002c0 	ldr	x0, [x22]
   76818:	97fee06a 	bl	2e9c0 <strlen@plt>
   7681c:	91000400 	add	x0, x0, #0x1
   76820:	94006ac8 	bl	91340 <xmalloc@@Base>
   76824:	f90027e0 	str	x0, [sp, #72]
   76828:	f94002c1 	ldr	x1, [x22]
[31m   7682c:	97fee2cd 	bl	2f360 <strcpy@plt>[0m
   76830:	d00005a2 	adrp	x2, 12c000 <o_options@@Base+0x1220>
   76834:	f00005a0 	adrp	x0, 12d000 <o_options@@Base+0x2220>
--
   78e08:	f94002a0 	ldr	x0, [x21]
   78e0c:	b40000a0 	cbz	x0, 78e20 <setup_ignore_patterns@@Base+0x60>
   78e10:	97fed8f8 	bl	2f1f0 <free@plt>
   78e14:	f8410ea0 	ldr	x0, [x21, #16]!
   78e18:	b5ffffc0 	cbnz	x0, 78e10 <setup_ignore_patterns@@Base+0x50>
   78e1c:	f9400675 	ldr	x21, [x19, #8]
   78e20:	aa1503e0 	mov	x0, x21
   78e24:	97fed8f3 	bl	2f1f0 <free@plt>
   78e28:	f900067f 	str	xzr, [x19, #8]
   78e2c:	f9400e60 	ldr	x0, [x19, #24]
   78e30:	b50007c0 	cbnz	x0, 78f28 <setup_ignore_patterns@@Base+0x168>
   78e34:	b4000814 	cbz	x20, 78f34 <setup_ignore_patterns@@Base+0x174>
   78e38:	39400280 	ldrb	w0, [x20]
   78e3c:	340007c0 	cbz	w0, 78f34 <setup_ignore_patterns@@Base+0x174>
   78e40:	aa1403e0 	mov	x0, x20
   78e44:	a90363f7 	stp	x23, x24, [sp, #48]
   78e48:	97fed6de 	bl	2e9c0 <strlen@plt>
   78e4c:	91000400 	add	x0, x0, #0x1
   78e50:	9400613c 	bl	91340 <xmalloc@@Base>
   78e54:	aa1403e1 	mov	x1, x20
[31m   78e58:	97fed942 	bl	2f360 <strcpy@plt>[0m
   78e5c:	f9000e60 	str	x0, [x19, #24]
   78e60:	39400280 	ldrb	w0, [x20]
--
000000000007b480 <add_alias@@Base>:
   7b480:	a9bd7bfd 	stp	x29, x30, [sp, #-48]!
   7b484:	910003fd 	mov	x29, sp
   7b488:	a9025bf5 	stp	x21, x22, [sp, #32]
   7b48c:	b00005f6 	adrp	x22, 138000 <running_in_background@@Base+0x610>
   7b490:	f9472ec2 	ldr	x2, [x22, #3672]
   7b494:	a90153f3 	stp	x19, x20, [sp, #16]
   7b498:	aa0103f3 	mov	x19, x1
   7b49c:	aa0003f4 	mov	x20, x0
   7b4a0:	b40003a2 	cbz	x2, 7b514 <add_alias@@Base+0x94>
   7b4a4:	97ffffd7 	bl	7b400 <find_alias@@Base>
   7b4a8:	aa0003f5 	mov	x21, x0
   7b4ac:	b40003a0 	cbz	x0, 7b520 <add_alias@@Base+0xa0>
   7b4b0:	f9400400 	ldr	x0, [x0, #8]
   7b4b4:	97fecf4f 	bl	2f1f0 <free@plt>
   7b4b8:	aa1303e0 	mov	x0, x19
   7b4bc:	97fecd41 	bl	2e9c0 <strlen@plt>
   7b4c0:	91000400 	add	x0, x0, #0x1
   7b4c4:	9400579f 	bl	91340 <xmalloc@@Base>
   7b4c8:	aa1303e1 	mov	x1, x19
[31m   7b4cc:	97fecfa5 	bl	2f360 <strcpy@plt>[0m
   7b4d0:	394042b4 	ldrb	w20, [x21, #16]
   7b4d4:	f90006a0 	str	x0, [x21, #8]
--
   7b4f0:	7100801f 	cmp	w0, #0x20
   7b4f4:	7a491804 	ccmp	w0, #0x9, #0x4, ne  // ne = any
   7b4f8:	54000061 	b.ne	7b504 <add_alias@@Base+0x84>  // b.any
   7b4fc:	32000294 	orr	w20, w20, #0x1
   7b500:	390042b4 	strb	w20, [x21, #16]
   7b504:	a94153f3 	ldp	x19, x20, [sp, #16]
   7b508:	a9425bf5 	ldp	x21, x22, [sp, #32]
   7b50c:	a8c37bfd 	ldp	x29, x30, [sp], #48
   7b510:	d65f03c0 	ret
   7b514:	52800800 	mov	w0, #0x40                  	// #64
   7b518:	97ffe1f2 	bl	73ce0 <hash_create@@Base>
   7b51c:	f9072ec0 	str	x0, [x22, #3672]
   7b520:	d2800300 	mov	x0, #0x18                  	// #24
   7b524:	94005787 	bl	91340 <xmalloc@@Base>
   7b528:	aa0003f5 	mov	x21, x0
   7b52c:	aa1403e0 	mov	x0, x20
   7b530:	97fecd24 	bl	2e9c0 <strlen@plt>
   7b534:	91000400 	add	x0, x0, #0x1
   7b538:	94005782 	bl	91340 <xmalloc@@Base>
   7b53c:	aa1403e1 	mov	x1, x20
[31m   7b540:	97fecf88 	bl	2f360 <strcpy@plt>[0m
   7b544:	f90002a0 	str	x0, [x21]
   7b548:	aa1303e0 	mov	x0, x19
   7b54c:	97fecd1d 	bl	2e9c0 <strlen@plt>
   7b550:	91000400 	add	x0, x0, #0x1
   7b554:	9400577b 	bl	91340 <xmalloc@@Base>
   7b558:	aa1303e1 	mov	x1, x19
[31m   7b55c:	97fecf81 	bl	2f360 <strcpy@plt>[0m
   7b560:	f90006a0 	str	x0, [x21, #8]
   7b564:	aa1303e0 	mov	x0, x19
   7b568:	390042bf 	strb	wzr, [x21, #16]
   7b56c:	97fecd15 	bl	2e9c0 <strlen@plt>
   7b570:	8b000273 	add	x19, x19, x0
   7b574:	385ff260 	ldurb	w0, [x19, #-1]
   7b578:	7100801f 	cmp	w0, #0x20
   7b57c:	7a491804 	ccmp	w0, #0x9, #0x4, ne  // ne = any
   7b580:	54000061 	b.ne	7b58c <add_alias@@Base+0x10c>  // b.any
   7b584:	52800020 	mov	w0, #0x1                   	// #1
   7b588:	390042a0 	strb	w0, [x21, #16]
   7b58c:	aa1403e0 	mov	x0, x20
   7b590:	97fecd0c 	bl	2e9c0 <strlen@plt>
   7b594:	91000400 	add	x0, x0, #0x1
   7b598:	9400576a 	bl	91340 <xmalloc@@Base>
   7b59c:	aa1403e1 	mov	x1, x20
[31m   7b5a0:	97fecf70 	bl	2f360 <strcpy@plt>[0m
   7b5a4:	f9472ec1 	ldr	x1, [x22, #3672]
   7b5a8:	52800022 	mov	w2, #0x1                   	// #1
--
   7b9b4:	91396000 	add	x0, x0, #0xe58
   7b9b8:	b9400c00 	ldr	w0, [x0, #12]
   7b9bc:	34000ee0 	cbz	w0, 7bb98 <alias_expand@@Base+0x3f8>
   7b9c0:	aa1803e0 	mov	x0, x24
   7b9c4:	5280001b 	mov	w27, #0x0                   	// #0
   7b9c8:	97fffe8e 	bl	7b400 <find_alias@@Base>
   7b9cc:	b4000e60 	cbz	x0, 7bb98 <alias_expand@@Base+0x3f8>
   7b9d0:	f940041c 	ldr	x28, [x0, #8]
   7b9d4:	aa1c03e0 	mov	x0, x28
   7b9d8:	97fecbfa 	bl	2e9c0 <strlen@plt>
   7b9dc:	aa0003f6 	mov	x22, x0
   7b9e0:	aa1703e0 	mov	x0, x23
   7b9e4:	97fecbf7 	bl	2e9c0 <strlen@plt>
   7b9e8:	aa0003fa 	mov	x26, x0
   7b9ec:	11000ec1 	add	w1, w22, #0x3
   7b9f0:	0b000021 	add	w1, w1, w0
   7b9f4:	6b15003f 	cmp	w1, w21
   7b9f8:	54001a0a 	b.ge	7bd38 <alias_expand@@Base+0x598>  // b.tcont
   7b9fc:	8b3ac2e0 	add	x0, x23, w26, sxtw
   7ba00:	aa1c03e1 	mov	x1, x28
[31m   7ba04:	97fece57 	bl	2f360 <strcpy@plt>[0m
   7ba08:	710002df 	cmp	w22, #0x0
   7ba0c:	7a401b64 	ccmp	w27, #0x0, #0x4, ne  // ne = any
--
   7c0c8:	d503201f 	nop
   7c0cc:	d503201f 	nop

000000000007c0d0 <array_create_element@@Base>:
   7c0d0:	a9bd7bfd 	stp	x29, x30, [sp, #-48]!
   7c0d4:	910003fd 	mov	x29, sp
   7c0d8:	a90153f3 	stp	x19, x20, [sp, #16]
   7c0dc:	aa0103f4 	mov	x20, x1
   7c0e0:	f90013f5 	str	x21, [sp, #32]
   7c0e4:	aa0003f5 	mov	x21, x0
   7c0e8:	d2800400 	mov	x0, #0x20                  	// #32
   7c0ec:	94005495 	bl	91340 <xmalloc@@Base>
   7c0f0:	f9000015 	str	x21, [x0]
   7c0f4:	aa0003f3 	mov	x19, x0
   7c0f8:	b4000114 	cbz	x20, 7c118 <array_create_element@@Base+0x48>
   7c0fc:	aa1403e0 	mov	x0, x20
   7c100:	97feca30 	bl	2e9c0 <strlen@plt>
   7c104:	91000400 	add	x0, x0, #0x1
   7c108:	9400548e 	bl	91340 <xmalloc@@Base>
   7c10c:	aa1403e1 	mov	x1, x20
[31m   7c110:	97fecc94 	bl	2f360 <strcpy@plt>[0m
   7c114:	aa0003f4 	mov	x20, x0
   7c118:	f94013f5 	ldr	x21, [sp, #32]
--
   7cfcc:	d2800018 	mov	x24, #0x0                   	// #0
   7cfd0:	34000480 	cbz	w0, 7d060 <array_to_argv@@Base+0xb0>
   7cfd4:	11000400 	add	w0, w0, #0x1
   7cfd8:	a90153f3 	stp	x19, x20, [sp, #16]
   7cfdc:	9400d9f9 	bl	b37c0 <strvec_create@@Base>
   7cfe0:	f94012c1 	ldr	x1, [x22, #32]
   7cfe4:	aa0003f8 	mov	x24, x0
   7cfe8:	f9400834 	ldr	x20, [x1, #16]
   7cfec:	eb14003f 	cmp	x1, x20
   7cff0:	54000460 	b.eq	7d07c <array_to_argv@@Base+0xcc>  // b.none
   7cff4:	d1002017 	sub	x23, x0, #0x8
   7cff8:	d2800035 	mov	x21, #0x1                   	// #1
   7cffc:	d503201f 	nop
   7d000:	f9400693 	ldr	x19, [x20, #8]
   7d004:	aa1303e0 	mov	x0, x19
   7d008:	b4000113 	cbz	x19, 7d028 <array_to_argv@@Base+0x78>
   7d00c:	97fec66d 	bl	2e9c0 <strlen@plt>
   7d010:	91000400 	add	x0, x0, #0x1
   7d014:	940050cb 	bl	91340 <xmalloc@@Base>
   7d018:	aa1303e1 	mov	x1, x19
[31m   7d01c:	97fec8d1 	bl	2f360 <strcpy@plt>[0m
   7d020:	f94012c1 	ldr	x1, [x22, #32]
   7d024:	aa0003f3 	mov	x19, x0
--
   7d160:	5280013c 	mov	w28, #0x9                   	// #9
   7d164:	35000e80 	cbnz	w0, 7d334 <array_to_assign@@Base+0x2a4>
   7d168:	b4001134 	cbz	x20, 7d38c <array_to_assign@@Base+0x2fc>
   7d16c:	39400280 	ldrb	w0, [x20]
   7d170:	11000782 	add	w2, w28, #0x1
   7d174:	340000e0 	cbz	w0, 7d190 <array_to_assign@@Base+0x100>
   7d178:	39400680 	ldrb	w0, [x20, #1]
   7d17c:	11000b82 	add	w2, w28, #0x2
   7d180:	34000080 	cbz	w0, 7d190 <array_to_assign@@Base+0x100>
   7d184:	39400a80 	ldrb	w0, [x20, #2]
   7d188:	11000f82 	add	w2, w28, #0x3
   7d18c:	35001100 	cbnz	w0, 7d3ac <array_to_assign@@Base+0x31c>
   7d190:	0b020362 	add	w2, w27, w2
   7d194:	6b13005f 	cmp	w2, w19
   7d198:	54000b2a 	b.ge	7d2fc <array_to_assign@@Base+0x26c>  // b.tcont
   7d19c:	52800b60 	mov	w0, #0x5b                  	// #91
   7d1a0:	1100077b 	add	w27, w27, #0x1
   7d1a4:	38376aa0 	strb	w0, [x21, x23]
   7d1a8:	aa1a03e1 	mov	x1, x26
   7d1ac:	8b3bc2a0 	add	x0, x21, w27, sxtw
[31m   7d1b0:	97fec86c 	bl	2f360 <strcpy@plt>[0m
   7d1b4:	39400341 	ldrb	w1, [x26]
   7d1b8:	52800000 	mov	w0, #0x0                   	// #0
   7d1bc:	34000121 	cbz	w1, 7d1e0 <array_to_assign@@Base+0x150>
   7d1c0:	39400741 	ldrb	w1, [x26, #1]
   7d1c4:	52800020 	mov	w0, #0x1                   	// #1
   7d1c8:	340000c1 	cbz	w1, 7d1e0 <array_to_assign@@Base+0x150>
   7d1cc:	39400b41 	ldrb	w1, [x26, #2]
   7d1d0:	52800040 	mov	w0, #0x2                   	// #2
   7d1d4:	34000061 	cbz	w1, 7d1e0 <array_to_assign@@Base+0x150>
   7d1d8:	aa1a03e0 	mov	x0, x26
   7d1dc:	97fec5f9 	bl	2e9c0 <strlen@plt>
   7d1e0:	0b000360 	add	w0, w27, w0
   7d1e4:	52800ba4 	mov	w4, #0x5d                  	// #93
   7d1e8:	11000401 	add	w1, w0, #0x1
   7d1ec:	1100081b 	add	w27, w0, #0x2
   7d1f0:	528007a2 	mov	w2, #0x3d                  	// #61
   7d1f4:	3820caa4 	strb	w4, [x21, w0, sxtw]
   7d1f8:	93407f7c 	sxtw	x28, w27
   7d1fc:	3821caa2 	strb	w2, [x21, w1, sxtw]
   7d200:	b4000a94 	cbz	x20, 7d350 <array_to_assign@@Base+0x2c0>
   7d204:	aa1403e1 	mov	x1, x20
   7d208:	8b1c02a0 	add	x0, x21, x28
[31m   7d20c:	97fec855 	bl	2f360 <strcpy@plt>[0m
   7d210:	39400281 	ldrb	w1, [x20]
   7d214:	52800000 	mov	w0, #0x0                   	// #0
--
   7d474:	93407e9b 	sxtw	x27, w20
   7d478:	aa1c03e0 	mov	x0, x28
   7d47c:	350005f7 	cbnz	w23, 7d538 <array_to_string@@Base+0x128>
   7d480:	97fec550 	bl	2e9c0 <strlen@plt>
   7d484:	0b000303 	add	w3, w24, w0
   7d488:	11000863 	add	w3, w3, #0x2
   7d48c:	0b140063 	add	w3, w3, w20
   7d490:	0b000294 	add	w20, w20, w0
   7d494:	6b0302bf 	cmp	w21, w3
   7d498:	5400034d 	b.le	7d500 <array_to_string@@Base+0xf0>
   7d49c:	91000402 	add	x2, x0, #0x1
   7d4a0:	aa1c03e1 	mov	x1, x28
   7d4a4:	8b1b0260 	add	x0, x19, x27
   7d4a8:	97fec526 	bl	2e940 <memcpy@plt>
   7d4ac:	f9400ac0 	ldr	x0, [x22, #16]
   7d4b0:	eb00035f 	cmp	x26, x0
   7d4b4:	54000120 	b.eq	7d4d8 <array_to_string@@Base+0xc8>  // b.none
   7d4b8:	8b34c260 	add	x0, x19, w20, sxtw
   7d4bc:	aa1903e1 	mov	x1, x25
   7d4c0:	0b180294 	add	w20, w20, w24
[31m   7d4c4:	97fec7a7 	bl	2f360 <strcpy@plt>[0m
   7d4c8:	f9400ad6 	ldr	x22, [x22, #16]
   7d4cc:	eb16035f 	cmp	x26, x22
--
   7d4d4:	d503201f 	nop
   7d4d8:	b40006d3 	cbz	x19, 7d5b0 <array_to_string@@Base+0x1a0>
   7d4dc:	3834ca7f 	strb	wzr, [x19, w20, sxtw]
   7d4e0:	a9425bf5 	ldp	x21, x22, [sp, #32]
   7d4e4:	a94363f7 	ldp	x23, x24, [sp, #48]
   7d4e8:	a9446bf9 	ldp	x25, x26, [sp, #64]
   7d4ec:	a94573fb 	ldp	x27, x28, [sp, #80]
   7d4f0:	aa1303e0 	mov	x0, x19
   7d4f4:	a94153f3 	ldp	x19, x20, [sp, #16]
   7d4f8:	a8c67bfd 	ldp	x29, x30, [sp], #96
   7d4fc:	d65f03c0 	ret
   7d500:	0b1502b5 	add	w21, w21, w21
   7d504:	6b0302bf 	cmp	w21, w3
   7d508:	54ffffcd 	b.le	7d500 <array_to_string@@Base+0xf0>
   7d50c:	aa1303e0 	mov	x0, x19
   7d510:	93407ea1 	sxtw	x1, w21
   7d514:	94004f9f 	bl	91390 <xrealloc@@Base>
   7d518:	aa0003f3 	mov	x19, x0
   7d51c:	aa1c03e1 	mov	x1, x28
   7d520:	8b1b0000 	add	x0, x0, x27
[31m   7d524:	97fec78f 	bl	2f360 <strcpy@plt>[0m
   7d528:	34fffc37 	cbz	w23, 7d4ac <array_to_string@@Base+0x9c>
   7d52c:	aa1c03e0 	mov	x0, x28
--
000000000007d740 <make_array_variable_value@@Base>:
   7d740:	a9bc7bfd 	stp	x29, x30, [sp, #-64]!
   7d744:	910003fd 	mov	x29, sp
   7d748:	a90153f3 	stp	x19, x20, [sp, #16]
   7d74c:	2a0403f4 	mov	w20, w4
   7d750:	a9025bf5 	stp	x21, x22, [sp, #32]
   7d754:	aa0303f6 	mov	x22, x3
   7d758:	360005f4 	tbz	w20, #0, 7d814 <make_array_variable_value@@Base+0xd4>
   7d75c:	aa0003f3 	mov	x19, x0
   7d760:	d2800600 	mov	x0, #0x30                  	// #48
   7d764:	a90363f7 	stp	x23, x24, [sp, #48]
   7d768:	aa0103f7 	mov	x23, x1
   7d76c:	aa0203f8 	mov	x24, x2
   7d770:	94004ef4 	bl	91340 <xmalloc@@Base>
   7d774:	aa0003f5 	mov	x21, x0
   7d778:	f9400260 	ldr	x0, [x19]
   7d77c:	97fec491 	bl	2e9c0 <strlen@plt>
   7d780:	91000400 	add	x0, x0, #0x1
   7d784:	94004eef 	bl	91340 <xmalloc@@Base>
   7d788:	f9400261 	ldr	x1, [x19]
[31m   7d78c:	97fec6f5 	bl	2f360 <strcpy@plt>[0m
   7d790:	b9402a61 	ldr	w1, [x19, #40]
   7d794:	f90002a0 	str	x0, [x21]
   7d798:	f9400660 	ldr	x0, [x19, #8]
   7d79c:	36300481 	tbz	w1, #6, 7d82c <make_array_variable_value@@Base+0xec>
   7d7a0:	aa1803e1 	mov	x1, x24
   7d7a4:	940007cf 	bl	7f6e0 <assoc_reference@@Base>
   7d7a8:	aa0003f7 	mov	x23, x0
   7d7ac:	b4000497 	cbz	x23, 7d83c <make_array_variable_value@@Base+0xfc>
   7d7b0:	aa1703e0 	mov	x0, x23
   7d7b4:	97fec483 	bl	2e9c0 <strlen@plt>
   7d7b8:	91000400 	add	x0, x0, #0x1
   7d7bc:	94004ee1 	bl	91340 <xmalloc@@Base>
   7d7c0:	aa1703e1 	mov	x1, x23
[31m   7d7c4:	97fec6e7 	bl	2f360 <strcpy@plt>[0m
   7d7c8:	f90006a0 	str	x0, [x21, #8]
   7d7cc:	b9402a60 	ldr	w0, [x19, #40]
--
   7df74:	aa0803f7 	mov	x23, x8
   7df78:	17ffffcc 	b	7dea8 <expand_compound_array_assignment@@Base+0x218>
   7df7c:	cb180343 	sub	x3, x26, x24
   7df80:	52800002 	mov	w2, #0x0                   	// #0
   7df84:	2a0303e1 	mov	w1, w3
   7df88:	aa1803e0 	mov	x0, x24
   7df8c:	f90043e3 	str	x3, [sp, #128]
   7df90:	97ff9904 	bl	643a0 <skipsubscript@@Base>
   7df94:	2a0003e2 	mov	w2, w0
   7df98:	f94043e3 	ldr	x3, [sp, #128]
   7df9c:	aa1a03e0 	mov	x0, x26
   7dfa0:	b90083e2 	str	w2, [sp, #128]
   7dfa4:	2a0303e1 	mov	w1, w3
   7dfa8:	f90047e3 	str	x3, [sp, #136]
   7dfac:	94003185 	bl	8a5c0 <substring@@Base>
   7dfb0:	52800b81 	mov	w1, #0x5c                  	// #92
   7dfb4:	390002e1 	strb	w1, [x23]
   7dfb8:	aa0003f7 	mov	x23, x0
   7dfbc:	aa0003e1 	mov	x1, x0
   7dfc0:	aa1c03e0 	mov	x0, x28
[31m   7dfc4:	97fec4e7 	bl	2f360 <strcpy@plt>[0m
   7dfc8:	f94047e3 	ldr	x3, [sp, #136]
   7dfcc:	528bab81 	mov	w1, #0x5d5c                	// #23900
--
   7ebf0:	aa0003f3 	mov	x19, x0
   7ebf4:	f90023f9 	str	x25, [sp, #64]
   7ebf8:	cb140279 	sub	x25, x19, x20
   7ebfc:	2a1803e2 	mov	w2, w24
   7ec00:	aa1403e0 	mov	x0, x20
   7ec04:	2a1903e1 	mov	w1, w25
   7ec08:	97ff95e6 	bl	643a0 <skipsubscript@@Base>
   7ec0c:	2a0003f5 	mov	w21, w0
   7ec10:	11000720 	add	w0, w25, #0x1
   7ec14:	6b15001f 	cmp	w0, w21
   7ec18:	5400032a 	b.ge	7ec7c <array_variable_name@@Base+0xbc>  // b.tcont
   7ec1c:	3875ca80 	ldrb	w0, [x20, w21, sxtw]
   7ec20:	7101741f 	cmp	w0, #0x5d
   7ec24:	540002c1 	b.ne	7ec7c <array_variable_name@@Base+0xbc>  // b.any
   7ec28:	3900027f 	strb	wzr, [x19]
   7ec2c:	aa1403e0 	mov	x0, x20
   7ec30:	97febf64 	bl	2e9c0 <strlen@plt>
   7ec34:	91000400 	add	x0, x0, #0x1
   7ec38:	940049c2 	bl	91340 <xmalloc@@Base>
   7ec3c:	aa1403e1 	mov	x1, x20
[31m   7ec40:	97fec1c8 	bl	2f360 <strcpy@plt>[0m
   7ec44:	52800b61 	mov	w1, #0x5b                  	// #91
   7ec48:	39000261 	strb	w1, [x19]
--
   7ee18:	aa1b03e0 	mov	x0, x27
   7ee1c:	97fec0f5 	bl	2f1f0 <free@plt>
   7ee20:	aa1703e0 	mov	x0, x23
   7ee24:	d2800013 	mov	x19, #0x0                   	// #0
   7ee28:	97ff5ea2 	bl	568b0 <err_badarraysub@@Base>
   7ee2c:	a94573fb 	ldp	x27, x28, [sp, #80]
   7ee30:	17ffffeb 	b	7eddc <assign_array_element@@Base+0xfc>
   7ee34:	b9406fe0 	ldr	w0, [sp, #108]
   7ee38:	7100041f 	cmp	w0, #0x1
   7ee3c:	54fffeed 	b.le	7ee18 <assign_array_element@@Base+0x138>
   7ee40:	93407c00 	sxtw	x0, w0
   7ee44:	f9403bf8 	ldr	x24, [sp, #112]
   7ee48:	d1000400 	sub	x0, x0, #0x1
   7ee4c:	8b00031c 	add	x28, x24, x0
   7ee50:	38206b1f 	strb	wzr, [x24, x0]
   7ee54:	aa1803e0 	mov	x0, x24
   7ee58:	97febeda 	bl	2e9c0 <strlen@plt>
   7ee5c:	91000400 	add	x0, x0, #0x1
   7ee60:	94004938 	bl	91340 <xmalloc@@Base>
   7ee64:	aa1803e1 	mov	x1, x24
[31m   7ee68:	97fec13e 	bl	2f360 <strcpy@plt>[0m
   7ee6c:	aa0003f8 	mov	x24, x0
   7ee70:	52800ba1 	mov	w1, #0x5d                  	// #93
--
   7f0a0:	f94037e1 	ldr	x1, [sp, #104]
   7f0a4:	f9400280 	ldr	x0, [x20]
   7f0a8:	ca000020 	eor	x0, x1, x0
   7f0ac:	b50010e0 	cbnz	x0, 7f2c8 <array_variable_part@@Base+0x398>
   7f0b0:	aa1503e0 	mov	x0, x21
   7f0b4:	a94153f3 	ldp	x19, x20, [sp, #16]
   7f0b8:	a9425bf5 	ldp	x21, x22, [sp, #32]
   7f0bc:	a94363f7 	ldp	x23, x24, [sp, #48]
   7f0c0:	a9446bf9 	ldp	x25, x26, [sp, #64]
   7f0c4:	a8c77bfd 	ldp	x29, x30, [sp], #112
   7f0c8:	d65f03c0 	ret
   7f0cc:	36300963 	tbz	w3, #6, 7f1f8 <array_variable_part@@Base+0x2c8>
   7f0d0:	8b22c021 	add	x1, x1, w2, sxtw
   7f0d4:	381ff03f 	sturb	wzr, [x1, #-1]
   7f0d8:	f94033e0 	ldr	x0, [sp, #96]
   7f0dc:	3628097a 	tbz	w26, #5, 7f208 <array_variable_part@@Base+0x2d8>
   7f0e0:	97febe38 	bl	2e9c0 <strlen@plt>
   7f0e4:	91000400 	add	x0, x0, #0x1
   7f0e8:	94004896 	bl	91340 <xmalloc@@Base>
   7f0ec:	f94033e1 	ldr	x1, [sp, #96]
[31m   7f0f0:	97fec09c 	bl	2f360 <strcpy@plt>[0m
   7f0f4:	aa0003f6 	mov	x22, x0
   7f0f8:	f94033e1 	ldr	x1, [sp, #96]
--
   7f588:	a90153f3 	stp	x19, x20, [sp, #16]
   7f58c:	aa0203f3 	mov	x19, x2
   7f590:	52800042 	mov	w2, #0x2                   	// #2
   7f594:	97ffd26f 	bl	73f50 <hash_search@@Base>
   7f598:	b4000300 	cbz	x0, 7f5f8 <assoc_insert@@Base+0x88>
   7f59c:	aa0003f4 	mov	x20, x0
   7f5a0:	f9400400 	ldr	x0, [x0, #8]
   7f5a4:	eb15001f 	cmp	x0, x21
   7f5a8:	54000060 	b.eq	7f5b4 <assoc_insert@@Base+0x44>  // b.none
   7f5ac:	aa1503e0 	mov	x0, x21
   7f5b0:	97febf10 	bl	2f1f0 <free@plt>
   7f5b4:	f9400a80 	ldr	x0, [x20, #16]
   7f5b8:	b4000040 	cbz	x0, 7f5c0 <assoc_insert@@Base+0x50>
   7f5bc:	97febf0d 	bl	2f1f0 <free@plt>
   7f5c0:	b4000113 	cbz	x19, 7f5e0 <assoc_insert@@Base+0x70>
   7f5c4:	aa1303e0 	mov	x0, x19
   7f5c8:	97febcfe 	bl	2e9c0 <strlen@plt>
   7f5cc:	91000400 	add	x0, x0, #0x1
   7f5d0:	9400475c 	bl	91340 <xmalloc@@Base>
   7f5d4:	aa1303e1 	mov	x1, x19
[31m   7f5d8:	97febf62 	bl	2f360 <strcpy@plt>[0m
   7f5dc:	aa0003f3 	mov	x19, x0
   7f5e0:	52800000 	mov	w0, #0x0                   	// #0
--
   7f610:	aa0003e1 	mov	x1, x0
   7f614:	aa1503e0 	mov	x0, x21
   7f618:	a90153f3 	stp	x19, x20, [sp, #16]
   7f61c:	aa0203f3 	mov	x19, x2
   7f620:	52800042 	mov	w2, #0x2                   	// #2
   7f624:	97ffd24b 	bl	73f50 <hash_search@@Base>
   7f628:	b40002c0 	cbz	x0, 7f680 <assoc_replace@@Base+0x80>
   7f62c:	aa0003f4 	mov	x20, x0
   7f630:	f9400400 	ldr	x0, [x0, #8]
   7f634:	eb15001f 	cmp	x0, x21
   7f638:	54000060 	b.eq	7f644 <assoc_replace@@Base+0x44>  // b.none
   7f63c:	aa1503e0 	mov	x0, x21
   7f640:	97febeec 	bl	2f1f0 <free@plt>
   7f644:	f9400a95 	ldr	x21, [x20, #16]
   7f648:	b4000113 	cbz	x19, 7f668 <assoc_replace@@Base+0x68>
   7f64c:	aa1303e0 	mov	x0, x19
   7f650:	97febcdc 	bl	2e9c0 <strlen@plt>
   7f654:	91000400 	add	x0, x0, #0x1
   7f658:	9400473a 	bl	91340 <xmalloc@@Base>
   7f65c:	aa1303e1 	mov	x1, x19
[31m   7f660:	97febf40 	bl	2f360 <strcpy@plt>[0m
   7f664:	aa0003f3 	mov	x19, x0
   7f668:	f9000a93 	str	x19, [x20, #16]
--
   7fea4:	f9400aa0 	ldr	x0, [x21, #16]
   7fea8:	d2800002 	mov	x2, #0x0                   	// #0
   7feac:	52800001 	mov	w1, #0x0                   	// #0
   7feb0:	9400d3bc 	bl	b4da0 <ansic_quote@@Base>
   7feb4:	aa0003fc 	mov	x28, x0
   7feb8:	5280011b 	mov	w27, #0x8                   	// #8
   7febc:	b400007a 	cbz	x26, 7fec8 <assoc_to_assign@@Base+0xd8>
   7fec0:	39400340 	ldrb	w0, [x26]
   7fec4:	35000c80 	cbnz	w0, 80054 <assoc_to_assign@@Base+0x264>
   7fec8:	b400147c 	cbz	x28, 80154 <assoc_to_assign@@Base+0x364>
   7fecc:	39400380 	ldrb	w0, [x28]
   7fed0:	350010e0 	cbnz	w0, 800ec <assoc_to_assign@@Base+0x2fc>
   7fed4:	11000760 	add	w0, w27, #0x1
   7fed8:	0b000273 	add	w19, w19, w0
   7fedc:	6b14027f 	cmp	w19, w20
   7fee0:	54000aaa 	b.ge	80034 <assoc_to_assign@@Base+0x244>  // b.tcont
   7fee4:	52800b60 	mov	w0, #0x5b                  	// #91
   7fee8:	38386ac0 	strb	w0, [x22, x24]
   7feec:	aa1a03e1 	mov	x1, x26
   7fef0:	8b37c2c0 	add	x0, x22, w23, sxtw
[31m   7fef4:	97febd1b 	bl	2f360 <strcpy@plt>[0m
   7fef8:	52800013 	mov	w19, #0x0                   	// #0
   7fefc:	39400340 	ldrb	w0, [x26]
   7ff00:	34000140 	cbz	w0, 7ff28 <assoc_to_assign@@Base+0x138>
   7ff04:	39400740 	ldrb	w0, [x26, #1]
   7ff08:	52800033 	mov	w19, #0x1                   	// #1
   7ff0c:	340000e0 	cbz	w0, 7ff28 <assoc_to_assign@@Base+0x138>
   7ff10:	39400b40 	ldrb	w0, [x26, #2]
   7ff14:	52800053 	mov	w19, #0x2                   	// #2
   7ff18:	34000080 	cbz	w0, 7ff28 <assoc_to_assign@@Base+0x138>
   7ff1c:	aa1a03e0 	mov	x0, x26
   7ff20:	97febaa8 	bl	2e9c0 <strlen@plt>
   7ff24:	2a0003f3 	mov	w19, w0
   7ff28:	0b1302f7 	add	w23, w23, w19
   7ff2c:	52800ba4 	mov	w4, #0x5d                  	// #93
   7ff30:	110006e0 	add	w0, w23, #0x1
   7ff34:	11000af3 	add	w19, w23, #0x2
   7ff38:	528007a1 	mov	w1, #0x3d                  	// #61
   7ff3c:	3837cac4 	strb	w4, [x22, w23, sxtw]
   7ff40:	3820cac1 	strb	w1, [x22, w0, sxtw]
   7ff44:	8b33c2c0 	add	x0, x22, w19, sxtw
   7ff48:	b4000c1c 	cbz	x28, 800c8 <assoc_to_assign@@Base+0x2d8>
   7ff4c:	aa1c03e1 	mov	x1, x28
[31m   7ff50:	97febd04 	bl	2f360 <strcpy@plt>[0m
   7ff54:	39400381 	ldrb	w1, [x28]
   7ff58:	52800000 	mov	w0, #0x0                   	// #0
--
   802ac:	f8786833 	ldr	x19, [x1, x24]
   802b0:	b5000173 	cbnz	x19, 802dc <assoc_to_string@@Base+0x7c>
   802b4:	1400001d 	b	80328 <assoc_to_string@@Base+0xc8>
   802b8:	97ff9c32 	bl	67380 <quote_string@@Base>
   802bc:	aa0003f4 	mov	x20, x0
   802c0:	97ff00e0 	bl	40640 <make_bare_word@@Base>
   802c4:	aa1503e1 	mov	x1, x21
   802c8:	97ff017e 	bl	408c0 <make_word_list@@Base>
   802cc:	aa0003f5 	mov	x21, x0
   802d0:	b5000234 	cbnz	x20, 80314 <assoc_to_string@@Base+0xb4>
   802d4:	f9400273 	ldr	x19, [x19]
   802d8:	b4000273 	cbz	x19, 80324 <assoc_to_string@@Base+0xc4>
   802dc:	f9400a74 	ldr	x20, [x19, #16]
   802e0:	aa1403e0 	mov	x0, x20
   802e4:	b4ffff94 	cbz	x20, 802d4 <assoc_to_string@@Base+0x74>
   802e8:	35fffe96 	cbnz	w22, 802b8 <assoc_to_string@@Base+0x58>
   802ec:	97feb9b5 	bl	2e9c0 <strlen@plt>
   802f0:	91000400 	add	x0, x0, #0x1
   802f4:	94004413 	bl	91340 <xmalloc@@Base>
   802f8:	aa1403e1 	mov	x1, x20
[31m   802fc:	97febc19 	bl	2f360 <strcpy@plt>[0m
   80300:	aa0003f4 	mov	x20, x0
   80304:	97ff00cf 	bl	40640 <make_bare_word@@Base>
--
   80940:	8b374c17 	add	x23, x0, w23, uxtw #3
   80944:	8b334c21 	add	x1, x1, w19, uxtw #3
   80948:	52800018 	mov	w24, #0x0                   	// #0
   8094c:	f90033e1 	str	x1, [sp, #96]
   80950:	f94002b3 	ldr	x19, [x21]
   80954:	aa1303e0 	mov	x0, x19
   80958:	97feb81a 	bl	2e9c0 <strlen@plt>
   8095c:	7100033f 	cmp	w25, #0x0
   80960:	540002ad 	b.le	809b4 <assoc_to_string@@Base+0x754>
   80964:	11000416 	add	w22, w0, #0x1
   80968:	93407c14 	sxtw	x20, w0
   8096c:	8b38cf73 	add	x19, x27, w24, sxtw #3
   80970:	aa1a03fc 	mov	x28, x26
   80974:	93407ed6 	sxtw	x22, w22
   80978:	f9400380 	ldr	x0, [x28]
   8097c:	97feb811 	bl	2e9c0 <strlen@plt>
   80980:	8b160000 	add	x0, x0, x22
   80984:	9400426f 	bl	91340 <xmalloc@@Base>
   80988:	f9000260 	str	x0, [x19]
   8098c:	f94002a1 	ldr	x1, [x21]
[31m   80990:	97feba74 	bl	2f360 <strcpy@plt>[0m
   80994:	f8408781 	ldr	x1, [x28], #8
   80998:	f8408660 	ldr	x0, [x19], #8
   8099c:	8b140000 	add	x0, x0, x20
[31m   809a0:	97feba70 	bl	2f360 <strcpy@plt>[0m
   809a4:	eb1c02ff 	cmp	x23, x28
   809a8:	54fffe81 	b.ne	80978 <assoc_to_string@@Base+0x718>  // b.any
--
   81114:	710000ff 	cmp	w7, #0x0
   81118:	9a9f07e0 	cset	x0, ne  // ne = any
   8111c:	b50000a0 	cbnz	x0, 81130 <brace_expand@@Base+0x6d0>
   81120:	11000480 	add	w0, w4, #0x1
   81124:	b900b7e0 	str	w0, [sp, #180]
   81128:	17fffec8 	b	80c48 <brace_expand@@Base+0x1e8>
   8112c:	52800020 	mov	w0, #0x1                   	// #1
   81130:	0b000080 	add	w0, w4, w0
   81134:	b900b7e0 	str	w0, [sp, #180]
   81138:	17fffec4 	b	80c48 <brace_expand@@Base+0x1e8>
   8113c:	11000800 	add	w0, w0, #0x2
   81140:	b900b7e0 	str	w0, [sp, #180]
   81144:	17fffec1 	b	80c48 <brace_expand@@Base+0x1e8>
   81148:	aa1703e0 	mov	x0, x23
   8114c:	97feb829 	bl	2f1f0 <free@plt>
   81150:	aa1403e0 	mov	x0, x20
   81154:	97feb61b 	bl	2e9c0 <strlen@plt>
   81158:	91000400 	add	x0, x0, #0x1
   8115c:	94004079 	bl	91340 <xmalloc@@Base>
   81160:	aa1403e1 	mov	x1, x20
[31m   81164:	97feb87f 	bl	2f360 <strcpy@plt>[0m
   81168:	f90002a0 	str	x0, [x21]
   8116c:	17fffe72 	b	80b34 <brace_expand@@Base+0xd4>
--
   813bc:	54ffce01 	b.ne	80d7c <brace_expand@@Base+0x31c>  // b.any
   813c0:	f94043e0 	ldr	x0, [sp, #128]
   813c4:	97feb78b 	bl	2f1f0 <free@plt>
   813c8:	f9403fe0 	ldr	x0, [sp, #120]
   813cc:	97feb789 	bl	2f1f0 <free@plt>
   813d0:	b980b3e0 	ldrsw	x0, [sp, #176]
   813d4:	8b000280 	add	x0, x20, x0
   813d8:	39400400 	ldrb	w0, [x0, #1]
   813dc:	34000420 	cbz	w0, 81460 <brace_expand@@Base+0xa00>
   813e0:	93407f17 	sxtw	x23, w24
   813e4:	52800040 	mov	w0, #0x2                   	// #2
   813e8:	d10006f7 	sub	x23, x23, #0x1
   813ec:	9400c8f5 	bl	b37c0 <strvec_create@@Base>
   813f0:	8b170297 	add	x23, x20, x23
   813f4:	aa0003f6 	mov	x22, x0
   813f8:	aa1703e0 	mov	x0, x23
   813fc:	97feb571 	bl	2e9c0 <strlen@plt>
   81400:	91000400 	add	x0, x0, #0x1
   81404:	94003fcf 	bl	91340 <xmalloc@@Base>
   81408:	aa1703e1 	mov	x1, x23
[31m   8140c:	97feb7d5 	bl	2f360 <strcpy@plt>[0m
   81410:	b940b3e1 	ldr	w1, [sp, #176]
   81414:	f90002c0 	str	x0, [x22]
--
   81434:	f94043e3 	ldr	x3, [sp, #128]
   81438:	f9400001 	ldr	x1, [x0]
   8143c:	39400062 	ldrb	w2, [x3]
   81440:	78627820 	ldrh	w0, [x1, x2, lsl #1]
   81444:	3657c4a0 	tbz	w0, #10, 80cd8 <brace_expand@@Base+0x278>
   81448:	39400460 	ldrb	w0, [x3, #1]
   8144c:	5280005a 	mov	w26, #0x2                   	// #2
   81450:	7100001f 	cmp	w0, #0x0
   81454:	1a9a13e0 	csel	w0, wzr, w26, ne  // ne = any
   81458:	b90063e0 	str	w0, [sp, #96]
   8145c:	17fffe1f 	b	80cd8 <brace_expand@@Base+0x278>
   81460:	aa1303e0 	mov	x0, x19
   81464:	97feb763 	bl	2f1f0 <free@plt>
   81468:	aa1703e0 	mov	x0, x23
   8146c:	97feb761 	bl	2f1f0 <free@plt>
   81470:	aa1403e0 	mov	x0, x20
   81474:	97feb553 	bl	2e9c0 <strlen@plt>
   81478:	91000400 	add	x0, x0, #0x1
   8147c:	94003fb1 	bl	91340 <xmalloc@@Base>
   81480:	aa1403e1 	mov	x1, x20
[31m   81484:	97feb7b7 	bl	2f360 <strcpy@plt>[0m
   81488:	a94573fb 	ldp	x27, x28, [sp, #80]
   8148c:	f90002a0 	str	x0, [x21]
--
   81978:	6b1a033f 	cmp	w25, w26
   8197c:	54fff20c 	b.gt	817bc <brace_expand@@Base+0xd5c>
   81980:	3400061c 	cbz	w28, 81a40 <brace_expand@@Base+0xfe0>
   81984:	a94363f7 	ldp	x23, x24, [sp, #48]
   81988:	aa1303e0 	mov	x0, x19
   8198c:	a94153f3 	ldp	x19, x20, [sp, #16]
   81990:	a9425bf5 	ldp	x21, x22, [sp, #32]
   81994:	a9446bf9 	ldp	x25, x26, [sp, #64]
   81998:	a94573fb 	ldp	x27, x28, [sp, #80]
   8199c:	a8c87bfd 	ldp	x29, x30, [sp], #128
   819a0:	d65f03c0 	ret
   819a4:	f8767b78 	ldr	x24, [x27, x22, lsl #3]
   819a8:	2a1a03f5 	mov	w21, w26
   819ac:	f9403bf7 	ldr	x23, [sp, #112]
   819b0:	8b170300 	add	x0, x24, x23
   819b4:	97feb403 	bl	2e9c0 <strlen@plt>
   819b8:	91000400 	add	x0, x0, #0x1
   819bc:	94003e61 	bl	91340 <xmalloc@@Base>
   819c0:	f8767b61 	ldr	x1, [x27, x22, lsl #3]
   819c4:	8b170021 	add	x1, x1, x23
[31m   819c8:	97feb666 	bl	2f360 <strcpy@plt>[0m
   819cc:	52800002 	mov	w2, #0x0                   	// #0
   819d0:	d2800001 	mov	x1, #0x0                   	// #0
--
   828e4:	d65f03c0 	ret
   828e8:	94015c2a 	bl	d9990 <using_history@@Base>
   828ec:	94015c79 	bl	d9ad0 <previous_history@@Base>
   828f0:	b4000140 	cbz	x0, 82918 <check_add_history@@Base+0x1d8>
   828f4:	f9400000 	ldr	x0, [x0]
   828f8:	394002a1 	ldrb	w1, [x21]
   828fc:	39400002 	ldrb	w2, [x0]
   82900:	6b01005f 	cmp	w2, w1
   82904:	540000a1 	b.ne	82918 <check_add_history@@Base+0x1d8>  // b.any
   82908:	aa1503e1 	mov	x1, x21
   8290c:	97feb215 	bl	2f160 <strcmp@plt>
   82910:	2a0003f3 	mov	w19, w0
   82914:	340004c0 	cbz	w0, 829ac <check_add_history@@Base+0x26c>
   82918:	a90573fb 	stp	x27, x28, [sp, #80]
   8291c:	94015c1d 	bl	d9990 <using_history@@Base>
   82920:	17ffff99 	b	82784 <check_add_history@@Base+0x44>
   82924:	97feb027 	bl	2e9c0 <strlen@plt>
   82928:	91000400 	add	x0, x0, #0x1
   8292c:	94003a85 	bl	91340 <xmalloc@@Base>
   82930:	aa1303e1 	mov	x1, x19
[31m   82934:	97feb28b 	bl	2f360 <strcpy@plt>[0m
   82938:	aa0003f3 	mov	x19, x0
   8293c:	17ffffbb 	b	82828 <check_add_history@@Base+0xe8>
--
   83020:	54000fa0 	b.eq	83214 <last_history_line@@Base+0x3c4>  // b.none
   83024:	aa1403f7 	mov	x23, x20
   83028:	aa1703e0 	mov	x0, x23
   8302c:	9400c3fd 	bl	b4020 <sh_single_quote@@Base>
   83030:	aa0003f3 	mov	x19, x0
   83034:	71000abf 	cmp	w21, #0x2
   83038:	1a9f17f6 	cset	w22, eq  // eq = none
   8303c:	eb17029f 	cmp	x20, x23
   83040:	54000060 	b.eq	8304c <last_history_line@@Base+0x1fc>  // b.none
   83044:	aa1703e0 	mov	x0, x23
   83048:	97feb06a 	bl	2f1f0 <free@plt>
   8304c:	b4000893 	cbz	x19, 8315c <last_history_line@@Base+0x30c>
   83050:	aa1303e0 	mov	x0, x19
   83054:	97feae5b 	bl	2e9c0 <strlen@plt>
   83058:	11000401 	add	w1, w0, #0x1
   8305c:	2a0003f4 	mov	w20, w0
   83060:	93407c20 	sxtw	x0, w1
   83064:	940038b7 	bl	91340 <xmalloc@@Base>
   83068:	aa0003f5 	mov	x21, x0
   8306c:	aa1303e1 	mov	x1, x19
[31m   83070:	97feb0bc 	bl	2f360 <strcpy@plt>[0m
   83074:	34000076 	cbz	w22, 83080 <last_history_line@@Base+0x230>
   83078:	8b34c2b4 	add	x20, x21, w20, sxtw
--
   832e4:	390087e1 	strb	w1, [sp, #33]
   832e8:	39008bff 	strb	wzr, [sp, #34]
   832ec:	97ffe055 	bl	7b440 <get_alias_value@@Base>
   832f0:	b4000080 	cbz	x0, 83300 <last_history_line@@Base+0x4b0>
   832f4:	39400001 	ldrb	w1, [x0]
   832f8:	aa0003f4 	mov	x20, x0
   832fc:	35000141 	cbnz	w1, 83324 <last_history_line@@Base+0x4d4>
   83300:	f9432a73 	ldr	x19, [x19, #1616]
   83304:	f94017e1 	ldr	x1, [sp, #40]
   83308:	f9400260 	ldr	x0, [x19]
   8330c:	ca000020 	eor	x0, x1, x0
   83310:	b5000180 	cbnz	x0, 83340 <last_history_line@@Base+0x4f0>
   83314:	52800000 	mov	w0, #0x0                   	// #0
   83318:	a94153f3 	ldp	x19, x20, [sp, #16]
   8331c:	a8c37bfd 	ldp	x29, x30, [sp], #48
   83320:	d65f03c0 	ret
   83324:	97feada7 	bl	2e9c0 <strlen@plt>
   83328:	91000400 	add	x0, x0, #0x1
   8332c:	94003805 	bl	91340 <xmalloc@@Base>
   83330:	aa1403e1 	mov	x1, x20
[31m   83334:	97feb00b 	bl	2f360 <strcpy@plt>[0m
   83338:	940140ee 	bl	d36f0 <rl_push_macro_input@@Base>
   8333c:	17fffff1 	b	83300 <last_history_line@@Base+0x4b0>
--
   834e4:	f9418721 	ldr	x1, [x25, #776]
   834e8:	11000400 	add	w0, w0, #0x1
   834ec:	b9000360 	str	w0, [x27]
   834f0:	f9400020 	ldr	x0, [x1]
   834f4:	97fffbef 	bl	824b0 <bash_add_history@@Base>
   834f8:	b900037f 	str	wzr, [x27]
   834fc:	f00002e0 	adrp	x0, e2000 <_IO_stdin_used@@Base+0x1db8>
   83500:	91206000 	add	x0, x0, #0x818
   83504:	97fffbeb 	bl	824b0 <bash_add_history@@Base>
   83508:	d0000540 	adrp	x0, 12d000 <o_options@@Base+0x2220>
   8350c:	f941ac00 	ldr	x0, [x0, #856]
   83510:	b9400001 	ldr	w1, [x0]
   83514:	11000421 	add	w1, w1, #0x1
   83518:	b9000001 	str	w1, [x0]
   8351c:	9401591d 	bl	d9990 <using_history@@Base>
   83520:	aa1403e0 	mov	x0, x20
   83524:	97fead27 	bl	2e9c0 <strlen@plt>
   83528:	91000400 	add	x0, x0, #0x1
   8352c:	94003785 	bl	91340 <xmalloc@@Base>
   83530:	aa1403e1 	mov	x1, x20
[31m   83534:	97feaf8b 	bl	2f360 <strcpy@plt>[0m
   83538:	aa0003f4 	mov	x20, x0
   8353c:	b0000300 	adrp	x0, e4000 <_IO_stdin_used@@Base+0x3db8>
--
   83710:	aa0103fc 	mov	x28, x1
   83714:	35000b82 	cbnz	w2, 83884 <last_history_line@@Base+0xa34>
   83718:	d000055a 	adrp	x26, 12d000 <o_options@@Base+0x2220>
   8371c:	f9463b40 	ldr	x0, [x26, #3184]
   83720:	f940001b 	ldr	x27, [x0]
   83724:	f900001f 	str	xzr, [x0]
   83728:	aa1503e0 	mov	x0, x21
   8372c:	d2800014 	mov	x20, #0x0                   	// #0
   83730:	97feaca4 	bl	2e9c0 <strlen@plt>
   83734:	aa0003f3 	mov	x19, x0
   83738:	b40000bc 	cbz	x28, 8374c <last_history_line@@Base+0x8fc>
   8373c:	aa1c03e0 	mov	x0, x28
   83740:	52800001 	mov	w1, #0x0                   	// #0
   83744:	97fffde3 	bl	82ed0 <last_history_line@@Base+0x80>
   83748:	aa0003f4 	mov	x20, x0
   8374c:	aa1403e0 	mov	x0, x20
   83750:	97feac9c 	bl	2e9c0 <strlen@plt>
   83754:	91000400 	add	x0, x0, #0x1
   83758:	940036fa 	bl	91340 <xmalloc@@Base>
   8375c:	aa1403e1 	mov	x1, x20
[31m   83760:	97feaf00 	bl	2f360 <strcpy@plt>[0m
   83764:	f9003be0 	str	x0, [sp, #112]
   83768:	f9463b40 	ldr	x0, [x26, #3184]
--
   837cc:	39400381 	ldrb	w1, [x28]
   837d0:	aa0003f7 	mov	x23, x0
   837d4:	7101f83f 	cmp	w1, #0x7e
   837d8:	54000081 	b.ne	837e8 <last_history_line@@Base+0x998>  // b.any
   837dc:	39400300 	ldrb	w0, [x24]
   837e0:	7101f81f 	cmp	w0, #0x7e
   837e4:	54000900 	b.eq	83904 <last_history_line@@Base+0xab4>  // b.none
   837e8:	aa1803e0 	mov	x0, x24
   837ec:	97feae81 	bl	2f1f0 <free@plt>
   837f0:	4b170261 	sub	w1, w19, w23
   837f4:	11000421 	add	w1, w1, #0x1
   837f8:	7100003f 	cmp	w1, #0x0
   837fc:	5400058d 	b.le	838ac <last_history_line@@Base+0xa5c>
   83800:	f94037f8 	ldr	x24, [sp, #104]
   83804:	11000b00 	add	w0, w24, #0x2
   83808:	0b010000 	add	w0, w0, w1
   8380c:	93407c00 	sxtw	x0, w0
   83810:	940036cc 	bl	91340 <xmalloc@@Base>
   83814:	aa1403e1 	mov	x1, x20
   83818:	aa0003f3 	mov	x19, x0
[31m   8381c:	97feaed1 	bl	2f360 <strcpy@plt>[0m
   83820:	8b37c2a1 	add	x1, x21, w23, sxtw
   83824:	8b38c260 	add	x0, x19, w24, sxtw
[31m   83828:	97feaece 	bl	2f360 <strcpy@plt>[0m
   8382c:	aa1403e0 	mov	x0, x20
   83830:	97feae70 	bl	2f1f0 <free@plt>
--
   83878:	a94573fb 	ldp	x27, x28, [sp, #80]
   8387c:	a8c87bfd 	ldp	x29, x30, [sp], #128
   83880:	d65f03c0 	ret
   83884:	d280001b 	mov	x27, #0x0                   	// #0
   83888:	d000055a 	adrp	x26, 12d000 <o_options@@Base+0x2220>
   8388c:	17ffffa7 	b	83728 <last_history_line@@Base+0x8d8>
   83890:	f9463b5a 	ldr	x26, [x26, #3184]
   83894:	f900035b 	str	x27, [x26]
   83898:	17ffffee 	b	83850 <last_history_line@@Base+0xa00>
   8389c:	aa1403e0 	mov	x0, x20
   838a0:	97feae54 	bl	2f1f0 <free@plt>
   838a4:	f9403bf4 	ldr	x20, [sp, #112]
   838a8:	17ffffc1 	b	837ac <last_history_line@@Base+0x95c>
   838ac:	aa1403e0 	mov	x0, x20
   838b0:	97feae50 	bl	2f1f0 <free@plt>
   838b4:	aa1503e0 	mov	x0, x21
   838b8:	97feac42 	bl	2e9c0 <strlen@plt>
   838bc:	91000400 	add	x0, x0, #0x1
   838c0:	940036a0 	bl	91340 <xmalloc@@Base>
   838c4:	aa1503e1 	mov	x1, x21
[31m   838c8:	97feaea6 	bl	2f360 <strcpy@plt>[0m
   838cc:	aa0003f3 	mov	x19, x0
   838d0:	17ffffd9 	b	83834 <last_history_line@@Base+0x9e4>
--
   83904:	aa1803e1 	mov	x1, x24
   83908:	aa1c03e0 	mov	x0, x28
   8390c:	97feae15 	bl	2f160 <strcmp@plt>
   83910:	35fff6c0 	cbnz	w0, 837e8 <last_history_line@@Base+0x998>
   83914:	aa1503e0 	mov	x0, x21
   83918:	528005e1 	mov	w1, #0x2f                  	// #47
   8391c:	9400d035 	bl	b79f0 <mbschr@@Base>
   83920:	aa0003f5 	mov	x21, x0
   83924:	b4000280 	cbz	x0, 83974 <last_history_line@@Base+0xb24>
   83928:	39400003 	ldrb	w3, [x0]
   8392c:	2a1703e1 	mov	w1, w23
   83930:	34000083 	cbz	w3, 83940 <last_history_line@@Base+0xaf0>
   83934:	39400401 	ldrb	w1, [x0, #1]
   83938:	35000341 	cbnz	w1, 839a0 <last_history_line@@Base+0xb50>
   8393c:	110006e1 	add	w1, w23, #0x1
   83940:	11000820 	add	w0, w1, #0x2
   83944:	93407c00 	sxtw	x0, w0
   83948:	9400367e 	bl	91340 <xmalloc@@Base>
   8394c:	aa1c03e1 	mov	x1, x28
   83950:	aa0003f3 	mov	x19, x0
[31m   83954:	97feae83 	bl	2f360 <strcpy@plt>[0m
   83958:	394002a0 	ldrb	w0, [x21]
   8395c:	350001a0 	cbnz	w0, 83990 <last_history_line@@Base+0xb40>
   83960:	aa1403e0 	mov	x0, x20
   83964:	97feae23 	bl	2f1f0 <free@plt>
   83968:	aa1803e0 	mov	x0, x24
   8396c:	97feae21 	bl	2f1f0 <free@plt>
   83970:	17ffffb1 	b	83834 <last_history_line@@Base+0x9e4>
   83974:	11000ae0 	add	w0, w23, #0x2
   83978:	93407c00 	sxtw	x0, w0
   8397c:	94003671 	bl	91340 <xmalloc@@Base>
   83980:	aa1c03e1 	mov	x1, x28
   83984:	aa0003f3 	mov	x19, x0
[31m   83988:	97feae76 	bl	2f360 <strcpy@plt>[0m
   8398c:	17fffff5 	b	83960 <last_history_line@@Base+0xb10>
   83990:	aa1503e1 	mov	x1, x21
   83994:	8b37c260 	add	x0, x19, w23, sxtw
[31m   83998:	97feae72 	bl	2f360 <strcpy@plt>[0m
   8399c:	17fffff1 	b	83960 <last_history_line@@Base+0xb10>
   839a0:	39400801 	ldrb	w1, [x0, #2]
--
   83c80:	f9432a82 	ldr	x2, [x20, #1616]
   83c84:	f9400043 	ldr	x3, [x2]
   83c88:	f90057e3 	str	x3, [sp, #168]
   83c8c:	d2800003 	mov	x3, #0x0                   	// #0
   83c90:	34000161 	cbz	w1, 83cbc <last_history_line@@Base+0xe6c>
   83c94:	d0000541 	adrp	x1, 12d000 <o_options@@Base+0x2220>
   83c98:	f9411821 	ldr	x1, [x1, #560]
   83c9c:	b9400021 	ldr	w1, [x1]
   83ca0:	97fffc8c 	bl	82ed0 <last_history_line@@Base+0x80>
   83ca4:	aa0003f3 	mov	x19, x0
   83ca8:	b5000180 	cbnz	x0, 83cd8 <last_history_line@@Base+0xe88>
   83cac:	92800000 	mov	x0, #0xffffffffffffffff    	// #-1
   83cb0:	aa0003e1 	mov	x1, x0
   83cb4:	39400000 	ldrb	w0, [x0]
   83cb8:	1400000c 	b	83ce8 <last_history_line@@Base+0xe98>
   83cbc:	aa0003f3 	mov	x19, x0
   83cc0:	97feab40 	bl	2e9c0 <strlen@plt>
   83cc4:	91000400 	add	x0, x0, #0x1
   83cc8:	9400359e 	bl	91340 <xmalloc@@Base>
   83ccc:	aa1303e1 	mov	x1, x19
[31m   83cd0:	97feada4 	bl	2f360 <strcpy@plt>[0m
   83cd4:	aa0003f3 	mov	x19, x0
   83cd8:	39400260 	ldrb	w0, [x19]
--
   83e14:	aa0003f6 	mov	x22, x0
   83e18:	b4000080 	cbz	x0, 83e28 <last_history_line@@Base+0xfd8>
   83e1c:	aa1303e0 	mov	x0, x19
   83e20:	97feacf4 	bl	2f1f0 <free@plt>
   83e24:	f9000296 	str	x22, [x20]
   83e28:	aa1503e0 	mov	x0, x21
   83e2c:	97feacf1 	bl	2f1f0 <free@plt>
   83e30:	a9425bf5 	ldp	x21, x22, [sp, #32]
   83e34:	52800000 	mov	w0, #0x0                   	// #0
   83e38:	a94153f3 	ldp	x19, x20, [sp, #16]
   83e3c:	a8c47bfd 	ldp	x29, x30, [sp], #64
   83e40:	d65f03c0 	ret
   83e44:	a9025bf5 	stp	x21, x22, [sp, #32]
   83e48:	d0000555 	adrp	x21, 12d000 <o_options@@Base+0x2220>
   83e4c:	aa1303e0 	mov	x0, x19
   83e50:	f9001bf7 	str	x23, [sp, #48]
   83e54:	97feaadb 	bl	2e9c0 <strlen@plt>
   83e58:	91000400 	add	x0, x0, #0x1
   83e5c:	94003539 	bl	91340 <xmalloc@@Base>
   83e60:	aa1303e1 	mov	x1, x19
[31m   83e64:	97fead3f 	bl	2f360 <strcpy@plt>[0m
   83e68:	f946deb5 	ldr	x21, [x21, #3512]
   83e6c:	aa0003f6 	mov	x22, x0
--
   83fd0:	b4000f80 	cbz	x0, 841c0 <last_history_line@@Base+0x1370>
   83fd4:	97feaa7b 	bl	2e9c0 <strlen@plt>
   83fd8:	b9413281 	ldr	w1, [x20, #304]
   83fdc:	11000421 	add	w1, w1, #0x1
   83fe0:	8b21c000 	add	x0, x0, w1, sxtw
   83fe4:	940034d7 	bl	91340 <xmalloc@@Base>
   83fe8:	aa0003f3 	mov	x19, x0
   83fec:	b9413282 	ldr	w2, [x20, #304]
   83ff0:	7100045f 	cmp	w2, #0x1
   83ff4:	54000d01 	b.ne	84194 <last_history_line@@Base+0x1344>  // b.any
   83ff8:	f9409680 	ldr	x0, [x20, #296]
   83ffc:	d2800034 	mov	x20, #0x1                   	// #1
   84000:	39400000 	ldrb	w0, [x0]
   84004:	39000260 	strb	w0, [x19]
   84008:	913a22b5 	add	x21, x21, #0xe88
   8400c:	8b140260 	add	x0, x19, x20
   84010:	b94136b4 	ldr	w20, [x21, #308]
   84014:	f9408ea1 	ldr	x1, [x21, #280]
   84018:	f874d821 	ldr	x1, [x1, w20, sxtw #3]
   8401c:	11000694 	add	w20, w20, #0x1
[31m   84020:	97feacd0 	bl	2f360 <strcpy@plt>[0m
   84024:	b90136b4 	str	w20, [x21, #308]
   84028:	aa1303e0 	mov	x0, x19
--
   84050:	b4000040 	cbz	x0, 84058 <last_history_line@@Base+0x1208>
   84054:	97feac67 	bl	2f1f0 <free@plt>
   84058:	913a22a0 	add	x0, x21, #0xe88
   8405c:	39400261 	ldrb	w1, [x19]
   84060:	7101803f 	cmp	w1, #0x60
   84064:	f9009413 	str	x19, [x0, #296]
   84068:	54000ce0 	b.eq	84204 <last_history_line@@Base+0x13b4>  // b.none
   8406c:	7100903f 	cmp	w1, #0x24
   84070:	54000f20 	b.eq	84254 <last_history_line@@Base+0x1404>  // b.none
   84074:	b0000541 	adrp	x1, 12d000 <o_options@@Base+0x2220>
   84078:	913a22b6 	add	x22, x21, #0xe88
   8407c:	52800022 	mov	w2, #0x1                   	// #1
   84080:	aa1303e0 	mov	x0, x19
   84084:	f9414821 	ldr	x1, [x1, #656]
   84088:	b90132d4 	str	w20, [x22, #304]
   8408c:	b9000022 	str	w2, [x1]
   84090:	97feaa4c 	bl	2e9c0 <strlen@plt>
   84094:	91000400 	add	x0, x0, #0x1
   84098:	940034aa 	bl	91340 <xmalloc@@Base>
   8409c:	aa1303e1 	mov	x1, x19
[31m   840a0:	97feacb0 	bl	2f360 <strcpy@plt>[0m
   840a4:	f9408ec1 	ldr	x1, [x22, #280]
   840a8:	f90092c0 	str	x0, [x22, #288]
--
   84ac4:	f100001f 	cmp	x0, #0x0
   84ac8:	fa561004 	ccmp	x0, x22, #0x4, ne  // ne = any
   84acc:	540007a1 	b.ne	84bc0 <last_history_line@@Base+0x1d70>  // b.any
   84ad0:	b4000076 	cbz	x22, 84adc <last_history_line@@Base+0x1c8c>
   84ad4:	aa1603e0 	mov	x0, x22
   84ad8:	97fea9c6 	bl	2f1f0 <free@plt>
   84adc:	52800001 	mov	w1, #0x0                   	// #0
   84ae0:	aa1503e0 	mov	x0, x21
   84ae4:	97feed23 	bl	3ff70 <bash_tilde_expand@@Base>
   84ae8:	aa0003f6 	mov	x22, x0
   84aec:	b0000541 	adrp	x1, 12d000 <o_options@@Base+0x2220>
   84af0:	f946c021 	ldr	x1, [x1, #3456]
   84af4:	b9400021 	ldr	w1, [x1]
   84af8:	34000521 	cbz	w1, 84b9c <last_history_line@@Base+0x1d4c>
   84afc:	f90023f9 	str	x25, [sp, #64]
   84b00:	97fea7b0 	bl	2e9c0 <strlen@plt>
   84b04:	91000400 	add	x0, x0, #0x1
   84b08:	9400320e 	bl	91340 <xmalloc@@Base>
   84b0c:	aa1603e1 	mov	x1, x22
   84b10:	913a2279 	add	x25, x19, #0xe88
[31m   84b14:	97feaa13 	bl	2f360 <strcpy@plt>[0m
   84b18:	aa0003e1 	mov	x1, x0
   84b1c:	aa1603e0 	mov	x0, x22
   84b20:	f900bf21 	str	x1, [x25, #376]
   84b24:	97fea7a7 	bl	2e9c0 <strlen@plt>
   84b28:	aa0003f8 	mov	x24, x0
   84b2c:	11000800 	add	w0, w0, #0x2
   84b30:	93407f18 	sxtw	x24, w24
   84b34:	93407c00 	sxtw	x0, w0
   84b38:	94003202 	bl	91340 <xmalloc@@Base>
   84b3c:	aa1603e1 	mov	x1, x22
   84b40:	aa0003f7 	mov	x23, x0
   84b44:	f900c320 	str	x0, [x25, #384]
[31m   84b48:	97feaa06 	bl	2f360 <strcpy@plt>[0m
   84b4c:	8b1802e0 	add	x0, x23, x24
   84b50:	52800541 	mov	w1, #0x2a                  	// #42
--
   84b5c:	f94023f9 	ldr	x25, [sp, #64]
   84b60:	eb1602bf 	cmp	x21, x22
   84b64:	54000060 	b.eq	84b70 <last_history_line@@Base+0x1d20>  // b.none
   84b68:	aa1603e0 	mov	x0, x22
   84b6c:	97fea9a1 	bl	2f1f0 <free@plt>
   84b70:	aa1703e0 	mov	x0, x23
   84b74:	97ffd053 	bl	78cc0 <shell_glob_filename@@Base>
   84b78:	b0000541 	adrp	x1, 12d000 <o_options@@Base+0x2220>
   84b7c:	913a2262 	add	x2, x19, #0xe88
   84b80:	f944d821 	ldr	x1, [x1, #2480]
   84b84:	eb01001f 	cmp	x0, x1
   84b88:	52800021 	mov	w1, #0x1                   	// #1
   84b8c:	540001e0 	b.eq	84bc8 <last_history_line@@Base+0x1d78>  // b.none
   84b90:	a94363f7 	ldp	x23, x24, [sp, #48]
   84b94:	f900b440 	str	x0, [x2, #360]
   84b98:	17ffffb9 	b	84a7c <last_history_line@@Base+0x1c2c>
   84b9c:	97fea789 	bl	2e9c0 <strlen@plt>
   84ba0:	91000400 	add	x0, x0, #0x1
   84ba4:	940031e7 	bl	91340 <xmalloc@@Base>
   84ba8:	aa1603e1 	mov	x1, x22
[31m   84bac:	97fea9ed 	bl	2f360 <strcpy@plt>[0m
   84bb0:	913a2261 	add	x1, x19, #0xe88
   84bb4:	aa0003f7 	mov	x23, x0
--
   84d2c:	f8607a73 	ldr	x19, [x19, x0, lsl #3]
   84d30:	b40002b3 	cbz	x19, 84d84 <last_history_line@@Base+0x1f34>
   84d34:	aa1303e0 	mov	x0, x19
   84d38:	97fea722 	bl	2e9c0 <strlen@plt>
   84d3c:	91001000 	add	x0, x0, #0x4
   84d40:	94003180 	bl	91340 <xmalloc@@Base>
   84d44:	b9419aa1 	ldr	w1, [x21, #408]
   84d48:	aa0003f3 	mov	x19, x0
   84d4c:	34000261 	cbz	w1, 84d98 <last_history_line@@Base+0x1f48>
   84d50:	b9419ea2 	ldr	w2, [x21, #412]
   84d54:	7100083f 	cmp	w1, #0x2
   84d58:	b941a2b6 	ldr	w22, [x21, #416]
   84d5c:	8b21c000 	add	x0, x0, w1, sxtw
   84d60:	39000262 	strb	w2, [x19]
   84d64:	f940c6a1 	ldr	x1, [x21, #392]
   84d68:	93407ec2 	sxtw	x2, w22
   84d6c:	54000860 	b.eq	84e78 <last_history_line@@Base+0x2028>  // b.none
   84d70:	f8627821 	ldr	x1, [x1, x2, lsl #3]
   84d74:	913a2294 	add	x20, x20, #0xe88
   84d78:	110006d6 	add	w22, w22, #0x1
[31m   84d7c:	97fea979 	bl	2f360 <strcpy@plt>[0m
   84d80:	b901a296 	str	w22, [x20, #416]
   84d84:	aa1303e0 	mov	x0, x19
   84d88:	a94153f3 	ldp	x19, x20, [sp, #16]
   84d8c:	a9425bf5 	ldp	x21, x22, [sp, #32]
   84d90:	a8c37bfd 	ldp	x29, x30, [sp], #48
   84d94:	d65f03c0 	ret
   84d98:	b941a2b6 	ldr	w22, [x21, #416]
   84d9c:	f940c6a1 	ldr	x1, [x21, #392]
   84da0:	f876d821 	ldr	x1, [x1, w22, sxtw #3]
[31m   84da4:	97fea96f 	bl	2f360 <strcpy@plt>[0m
   84da8:	913a2294 	add	x20, x20, #0xe88
   84dac:	110006d6 	add	w22, w22, #0x1
--
   84df4:	b901985f 	str	wzr, [x2, #408]
   84df8:	b9019c41 	str	w1, [x2, #412]
   84dfc:	540000c1 	b.ne	84e14 <last_history_line@@Base+0x1fc4>  // b.any
   84e00:	39400661 	ldrb	w1, [x19, #1]
   84e04:	52800023 	mov	w3, #0x1                   	// #1
   84e08:	91000660 	add	x0, x19, #0x1
   84e0c:	2a0303f5 	mov	w21, w3
   84e10:	b9019843 	str	w3, [x2, #408]
   84e14:	7101ec3f 	cmp	w1, #0x7b
   84e18:	540000a1 	b.ne	84e2c <last_history_line@@Base+0x1fdc>  // b.any
   84e1c:	110006b5 	add	w21, w21, #0x1
   84e20:	913a2281 	add	x1, x20, #0xe88
   84e24:	8b35c260 	add	x0, x19, w21, sxtw
   84e28:	b9019835 	str	w21, [x1, #408]
   84e2c:	913a2295 	add	x21, x20, #0xe88
   84e30:	97fea6e4 	bl	2e9c0 <strlen@plt>
   84e34:	91000400 	add	x0, x0, #0x1
   84e38:	94003142 	bl	91340 <xmalloc@@Base>
   84e3c:	b9819aa1 	ldrsw	x1, [x21, #408]
   84e40:	8b010261 	add	x1, x19, x1
[31m   84e44:	97fea947 	bl	2f360 <strcpy@plt>[0m
   84e48:	f940c6a1 	ldr	x1, [x21, #392]
   84e4c:	f900caa0 	str	x0, [x21, #400]
   84e50:	b4000081 	cbz	x1, 84e60 <last_history_line@@Base+0x2010>
   84e54:	aa0103e0 	mov	x0, x1
   84e58:	9400ba7a 	bl	b3840 <strvec_dispose@@Base>
   84e5c:	f940caa0 	ldr	x0, [x21, #400]
   84e60:	97ff2eb8 	bl	50940 <all_variables_matching_prefix@@Base>
   84e64:	913a2281 	add	x1, x20, #0xe88
   84e68:	aa0003f3 	mov	x19, x0
   84e6c:	f900c420 	str	x0, [x1, #392]
   84e70:	b901a03f 	str	wzr, [x1, #416]
   84e74:	17ffffab 	b	84d20 <last_history_line@@Base+0x1ed0>
   84e78:	52800f63 	mov	w3, #0x7b                  	// #123
   84e7c:	39000663 	strb	w3, [x19, #1]
   84e80:	f8627821 	ldr	x1, [x1, x2, lsl #3]
[31m   84e84:	97fea937 	bl	2f360 <strcpy@plt>[0m
   84e88:	aa1303e0 	mov	x0, x19
   84e8c:	97fea6cd 	bl	2e9c0 <strlen@plt>
--
   8533c:	f900e013 	str	x19, [x0, #448]
   85340:	b901d01f 	str	wzr, [x0, #464]
   85344:	b4000293 	cbz	x19, 85394 <last_history_line@@Base+0x2544>
   85348:	913a2294 	add	x20, x20, #0xe88
   8534c:	b981d280 	ldrsw	x0, [x20, #464]
   85350:	f8607a73 	ldr	x19, [x19, x0, lsl #3]
   85354:	b4000213 	cbz	x19, 85394 <last_history_line@@Base+0x2544>
   85358:	aa1303e0 	mov	x0, x19
   8535c:	97fea599 	bl	2e9c0 <strlen@plt>
   85360:	91000800 	add	x0, x0, #0x2
   85364:	94002ff7 	bl	91340 <xmalloc@@Base>
   85368:	aa0003f3 	mov	x19, x0
   8536c:	b941d295 	ldr	w21, [x20, #464]
   85370:	f940e281 	ldr	x1, [x20, #448]
   85374:	b941ce80 	ldr	w0, [x20, #460]
   85378:	39000260 	strb	w0, [x19]
   8537c:	b981ca80 	ldrsw	x0, [x20, #456]
   85380:	f875d821 	ldr	x1, [x1, w21, sxtw #3]
   85384:	8b000260 	add	x0, x19, x0
   85388:	110006b5 	add	w21, w21, #0x1
[31m   8538c:	97fea7f5 	bl	2f360 <strcpy@plt>[0m
   85390:	b901d295 	str	w21, [x20, #464]
   85394:	aa1303e0 	mov	x0, x19
--
   8596c:	aa0003f4 	mov	x20, x0
   85970:	7100a37f 	cmp	w27, #0x28
   85974:	540009a0 	b.eq	85aa8 <last_history_line@@Base+0x2c58>  // b.none
   85978:	52800fa5 	mov	w5, #0x7d                  	// #125
   8597c:	7101ef7f 	cmp	w27, #0x7b
   85980:	2a0503fa 	mov	w26, w5
   85984:	54000960 	b.eq	85ab0 <last_history_line@@Base+0x2c60>  // b.none
   85988:	5280001a 	mov	w26, #0x0                   	// #0
   8598c:	5280001b 	mov	w27, #0x0                   	// #0
   85990:	52800499 	mov	w25, #0x24                  	// #36
   85994:	aa1303e0 	mov	x0, x19
   85998:	52800021 	mov	w1, #0x1                   	// #1
   8599c:	97fff8b5 	bl	83c70 <last_history_line@@Base+0xe20>
   859a0:	2a0003f8 	mov	w24, w0
   859a4:	350009a0 	cbnz	w0, 85ad8 <last_history_line@@Base+0x2c88>
   859a8:	aa1303e0 	mov	x0, x19
   859ac:	97fea405 	bl	2e9c0 <strlen@plt>
   859b0:	91000400 	add	x0, x0, #0x1
   859b4:	94002e63 	bl	91340 <xmalloc@@Base>
   859b8:	aa1303e1 	mov	x1, x19
[31m   859bc:	97fea669 	bl	2f360 <strcpy@plt>[0m
   859c0:	52808002 	mov	w2, #0x400                 	// #1024
   859c4:	72a10202 	movk	w2, #0x810, lsl #16
--
   861ac:	b9022261 	str	w1, [x19, #544]
   861b0:	b4000060 	cbz	x0, 861bc <command_word_completion_function@@Base+0xdc>
   861b4:	97fea40f 	bl	2f1f0 <free@plt>
   861b8:	f901167f 	str	xzr, [x19, #552]
   861bc:	913a22b3 	add	x19, x21, #0xe88
   861c0:	aa1603e0 	mov	x0, x22
   861c4:	97fffeef 	bl	85d80 <last_history_line@@Base+0x2f30>
   861c8:	b9023260 	str	w0, [x19, #560]
   861cc:	34000980 	cbz	w0, 862fc <command_word_completion_function@@Base+0x21c>
   861d0:	394002c0 	ldrb	w0, [x22]
   861d4:	7101f81f 	cmp	w0, #0x7e
   861d8:	54004cc0 	b.eq	86b70 <command_word_completion_function@@Base+0xa90>  // b.none
   861dc:	913a22b3 	add	x19, x21, #0xe88
   861e0:	aa1603e0 	mov	x0, x22
   861e4:	97fea1f7 	bl	2e9c0 <strlen@plt>
   861e8:	91000400 	add	x0, x0, #0x1
   861ec:	b9411261 	ldr	w1, [x19, #272]
   861f0:	34003281 	cbz	w1, 86840 <command_word_completion_function@@Base+0x760>
   861f4:	94002c53 	bl	91340 <xmalloc@@Base>
   861f8:	aa1603e1 	mov	x1, x22
[31m   861fc:	97fea459 	bl	2f360 <strcpy@plt>[0m
   86200:	aa0003e1 	mov	x1, x0
   86204:	91080260 	add	x0, x19, #0x200
--
   86228:	340000a0 	cbz	w0, 8623c <command_word_completion_function@@Base+0x15c>
   8622c:	f0000520 	adrp	x0, 12d000 <o_options@@Base+0x2220>
   86230:	f9411800 	ldr	x0, [x0, #560]
   86234:	b9400000 	ldr	w0, [x0]
   86238:	34004e20 	cbz	w0, 86bfc <command_word_completion_function@@Base+0xb1c>
   8623c:	913a22b3 	add	x19, x21, #0xe88
   86240:	aa1403e0 	mov	x0, x20
   86244:	97fea1df 	bl	2e9c0 <strlen@plt>
   86248:	f9412661 	ldr	x1, [x19, #584]
   8624c:	b9024260 	str	w0, [x19, #576]
   86250:	b4000081 	cbz	x1, 86260 <command_word_completion_function@@Base+0x180>
   86254:	aa0103e0 	mov	x0, x1
   86258:	97fea3e6 	bl	2f1f0 <free@plt>
   8625c:	f9410274 	ldr	x20, [x19, #512]
   86260:	913a22b3 	add	x19, x21, #0xe88
   86264:	aa1403e0 	mov	x0, x20
   86268:	97fea1d6 	bl	2e9c0 <strlen@plt>
   8626c:	91000400 	add	x0, x0, #0x1
   86270:	94002c34 	bl	91340 <xmalloc@@Base>
   86274:	f9410261 	ldr	x1, [x19, #512]
[31m   86278:	97fea43a 	bl	2f360 <strcpy@plt>[0m
   8627c:	f9012660 	str	x0, [x19, #584]
   86280:	b9423261 	ldr	w1, [x19, #560]
--
   862cc:	fa411004 	ccmp	x0, x1, #0x4, ne  // ne = any
   862d0:	540051a0 	b.eq	86d04 <command_word_completion_function@@Base+0xc24>  // b.none
   862d4:	f9400401 	ldr	x1, [x0, #8]
   862d8:	b902727f 	str	wzr, [x19, #624]
   862dc:	b40000c1 	cbz	x1, 862f4 <command_word_completion_function@@Base+0x214>
   862e0:	f0000521 	adrp	x1, 12d000 <o_options@@Base+0x2220>
   862e4:	f942f021 	ldr	x1, [x1, #1504]
   862e8:	b9400021 	ldr	w1, [x1]
   862ec:	7100243f 	cmp	w1, #0x9
   862f0:	54002540 	b.eq	86798 <command_word_completion_function@@Base+0x6b8>  // b.none
   862f4:	52800022 	mov	w2, #0x1                   	// #1
   862f8:	140000a3 	b	86584 <command_word_completion_function@@Base+0x4a4>
   862fc:	aa1603e0 	mov	x0, x22
   86300:	97fee588 	bl	3f920 <absolute_program@@Base>
   86304:	35fff660 	cbnz	w0, 861d0 <command_word_completion_function@@Base+0xf0>
   86308:	aa1603e0 	mov	x0, x22
   8630c:	97fea1ad 	bl	2e9c0 <strlen@plt>
   86310:	91000400 	add	x0, x0, #0x1
   86314:	94002c0b 	bl	91340 <xmalloc@@Base>
   86318:	aa1603e1 	mov	x1, x22
[31m   8631c:	97fea411 	bl	2f360 <strcpy@plt>[0m
   86320:	aa0003f4 	mov	x20, x0
   86324:	a91f8260 	stp	x0, x0, [x19, #504]
--
   86410:	14000004 	b	86420 <command_word_completion_function@@Base+0x340>
   86414:	f8410f33 	ldr	x19, [x25, #16]!
   86418:	91000694 	add	x20, x20, #0x1
   8641c:	b4002353 	cbz	x19, 86884 <command_word_completion_function@@Base+0x7a4>
   86420:	b9027394 	str	w20, [x28, #624]
   86424:	3400015b 	cbz	w27, 8644c <command_word_completion_function@@Base+0x36c>
   86428:	39400263 	ldrb	w3, [x19]
   8642c:	39400340 	ldrb	w0, [x26]
   86430:	6b00007f 	cmp	w3, w0
   86434:	54ffff01 	b.ne	86414 <command_word_completion_function@@Base+0x334>  // b.any
   86438:	aa1803e2 	mov	x2, x24
   8643c:	aa1a03e1 	mov	x1, x26
   86440:	aa1303e0 	mov	x0, x19
   86444:	97fea27b 	bl	2ee30 <strncmp@plt>
   86448:	35fffe60 	cbnz	w0, 86414 <command_word_completion_function@@Base+0x334>
   8644c:	aa1303e0 	mov	x0, x19
   86450:	97fea15c 	bl	2e9c0 <strlen@plt>
   86454:	91000400 	add	x0, x0, #0x1
   86458:	94002bba 	bl	91340 <xmalloc@@Base>
   8645c:	aa1303e1 	mov	x1, x19
[31m   86460:	97fea3c0 	bl	2f360 <strcpy@plt>[0m
   86464:	aa0003fb 	mov	x27, x0
   86468:	1400005e 	b	865e0 <command_word_completion_function@@Base+0x500>
--
   864f0:	39400020 	ldrb	w0, [x1]
   864f4:	6b00007f 	cmp	w3, w0
   864f8:	54fffe21 	b.ne	864bc <command_word_completion_function@@Base+0x3dc>  // b.any
   864fc:	aa1a03e0 	mov	x0, x26
   86500:	a9068be1 	stp	x1, x2, [sp, #104]
   86504:	b9007be4 	str	w4, [sp, #120]
   86508:	97fea24a 	bl	2ee30 <strncmp@plt>
   8650c:	b9407be4 	ldr	w4, [sp, #120]
   86510:	a9468be1 	ldp	x1, x2, [sp, #104]
   86514:	35fffd40 	cbnz	w0, 864bc <command_word_completion_function@@Base+0x3dc>
   86518:	913a22b5 	add	x21, x21, #0xe88
   8651c:	11000694 	add	w20, w20, #0x1
   86520:	aa1a03e0 	mov	x0, x26
   86524:	b90272b4 	str	w20, [x21, #624]
   86528:	97fea126 	bl	2e9c0 <strlen@plt>
   8652c:	91000400 	add	x0, x0, #0x1
   86530:	94002b84 	bl	91340 <xmalloc@@Base>
   86534:	f947df01 	ldr	x1, [x24, #4024]
   86538:	f9400021 	ldr	x1, [x1]
   8653c:	f8796821 	ldr	x1, [x1, x25]
[31m   86540:	97fea388 	bl	2f360 <strcpy@plt>[0m
   86544:	aa0003fb 	mov	x27, x0
   86548:	14000026 	b	865e0 <command_word_completion_function@@Base+0x500>
--
   86678:	97fee4aa 	bl	3f920 <absolute_program@@Base>
   8667c:	34001520 	cbz	w0, 86920 <command_word_completion_function@@Base+0x840>
   86680:	b9422260 	ldr	w0, [x19, #544]
   86684:	b9824262 	ldrsw	x2, [x19, #576]
   86688:	f9410261 	ldr	x1, [x19, #512]
   8668c:	f9410e79 	ldr	x25, [x19, #536]
   86690:	35001860 	cbnz	w0, 8699c <command_word_completion_function@@Base+0x8bc>
   86694:	aa1903e0 	mov	x0, x25
   86698:	97fea1e6 	bl	2ee30 <strncmp@plt>
   8669c:	7100001f 	cmp	w0, #0x0
   866a0:	394002c0 	ldrb	w0, [x22]
   866a4:	1a9f17fa 	cset	w26, eq  // eq = none
   866a8:	7101f81f 	cmp	w0, #0x7e
   866ac:	54001860 	b.eq	869b8 <command_word_completion_function@@Base+0x8d8>  // b.none
   866b0:	aa1903e0 	mov	x0, x25
   866b4:	97fea0c3 	bl	2e9c0 <strlen@plt>
   866b8:	91000400 	add	x0, x0, #0x1
   866bc:	94002b21 	bl	91340 <xmalloc@@Base>
   866c0:	f9410e79 	ldr	x25, [x19, #536]
   866c4:	aa1903e1 	mov	x1, x25
[31m   866c8:	97fea326 	bl	2f360 <strcpy@plt>[0m
   866cc:	aa0003fb 	mov	x27, x0
   866d0:	3400181a 	cbz	w26, 869d0 <command_word_completion_function@@Base+0x8f0>
   866d4:	aa1903e0 	mov	x0, x25
   866d8:	97fea0ba 	bl	2e9c0 <strlen@plt>
   866dc:	b9420a7a 	ldr	w26, [x19, #520]
   866e0:	91000400 	add	x0, x0, #0x1
   866e4:	94002b17 	bl	91340 <xmalloc@@Base>
   866e8:	aa1903e1 	mov	x1, x25
[31m   866ec:	97fea31d 	bl	2f360 <strcpy@plt>[0m
   866f0:	aa0003e1 	mov	x1, x0
   866f4:	910203e0 	add	x0, sp, #0x80
--
   867e4:	3500121c 	cbnz	w28, 86a24 <command_word_completion_function@@Base+0x944>
   867e8:	b94073e0 	ldr	w0, [sp, #112]
   867ec:	340001a0 	cbz	w0, 86820 <command_word_completion_function@@Base+0x740>
   867f0:	39400304 	ldrb	w4, [x24]
   867f4:	39400340 	ldrb	w0, [x26]
   867f8:	6b00009f 	cmp	w4, w0
   867fc:	54000060 	b.eq	86808 <command_word_completion_function@@Base+0x728>  // b.none
   86800:	91000673 	add	x19, x19, #0x1
   86804:	17fffff3 	b	867d0 <command_word_completion_function@@Base+0x6f0>
   86808:	aa1b03e2 	mov	x2, x27
   8680c:	aa1a03e1 	mov	x1, x26
   86810:	aa1803e0 	mov	x0, x24
   86814:	97fea187 	bl	2ee30 <strncmp@plt>
   86818:	35ffff40 	cbnz	w0, 86800 <command_word_completion_function@@Base+0x720>
   8681c:	d503201f 	nop
   86820:	aa1803e0 	mov	x0, x24
   86824:	97fea067 	bl	2e9c0 <strlen@plt>
   86828:	91000400 	add	x0, x0, #0x1
   8682c:	94002ac5 	bl	91340 <xmalloc@@Base>
   86830:	aa1803e1 	mov	x1, x24
[31m   86834:	97fea2cb 	bl	2f360 <strcpy@plt>[0m
   86838:	aa0003fb 	mov	x27, x0
   8683c:	17ffff69 	b	865e0 <command_word_completion_function@@Base+0x500>
   86840:	94002ac0 	bl	91340 <xmalloc@@Base>
   86844:	aa1603e1 	mov	x1, x22
[31m   86848:	97fea2c6 	bl	2f360 <strcpy@plt>[0m
   8684c:	aa0003f4 	mov	x20, x0
   86850:	f9010260 	str	x0, [x19, #512]
--
   86920:	f9410e7a 	ldr	x26, [x19, #536]
   86924:	528005e1 	mov	w1, #0x2f                  	// #47
   86928:	aa1a03e0 	mov	x0, x26
   8692c:	97fea1cd 	bl	2f060 <strrchr@plt>
   86930:	b4fff040 	cbz	x0, 86738 <command_word_completion_function@@Base+0x658>
   86934:	b9422263 	ldr	w3, [x19, #544]
   86938:	91000419 	add	x25, x0, #0x1
   8693c:	b9824262 	ldrsw	x2, [x19, #576]
   86940:	aa1903e0 	mov	x0, x25
   86944:	f9410261 	ldr	x1, [x19, #512]
   86948:	350007c3 	cbnz	w3, 86a40 <command_word_completion_function@@Base+0x960>
   8694c:	97fea139 	bl	2ee30 <strncmp@plt>
   86950:	7100001f 	cmp	w0, #0x0
   86954:	1a9f17e0 	cset	w0, eq  // eq = none
   86958:	34ffef00 	cbz	w0, 86738 <command_word_completion_function@@Base+0x658>
   8695c:	aa1903e0 	mov	x0, x25
   86960:	97fea018 	bl	2e9c0 <strlen@plt>
   86964:	91000400 	add	x0, x0, #0x1
   86968:	94002a76 	bl	91340 <xmalloc@@Base>
   8696c:	aa1903e1 	mov	x1, x25
[31m   86970:	97fea27c 	bl	2f360 <strcpy@plt>[0m
   86974:	aa0003fb 	mov	x27, x0
   86978:	f9410e79 	ldr	x25, [x19, #536]
--
   86b4c:	52800002 	mov	w2, #0x0                   	// #0
   86b50:	9400b5e0 	bl	b42d0 <sh_backslash_quote@@Base>
   86b54:	aa0003f9 	mov	x25, x0
   86b58:	f9012a60 	str	x0, [x19, #592]
   86b5c:	aa1403e0 	mov	x0, x20
   86b60:	97fea1a4 	bl	2f1f0 <free@plt>
   86b64:	913a22a0 	add	x0, x21, #0xe88
   86b68:	b9425801 	ldr	w1, [x0, #600]
   86b6c:	17fffeb3 	b	86638 <command_word_completion_function@@Base+0x558>
   86b70:	52800001 	mov	w1, #0x0                   	// #0
   86b74:	913a22b3 	add	x19, x21, #0xe88
   86b78:	aa1603e0 	mov	x0, x22
   86b7c:	97fee4fd 	bl	3ff70 <bash_tilde_expand@@Base>
   86b80:	aa0003e1 	mov	x1, x0
   86b84:	aa1603e0 	mov	x0, x22
   86b88:	f9010261 	str	x1, [x19, #512]
   86b8c:	97fe9f8d 	bl	2e9c0 <strlen@plt>
   86b90:	91000400 	add	x0, x0, #0x1
   86b94:	940029eb 	bl	91340 <xmalloc@@Base>
   86b98:	aa1603e1 	mov	x1, x22
[31m   86b9c:	97fea1f1 	bl	2f360 <strcpy@plt>[0m
   86ba0:	528005e1 	mov	w1, #0x2f                  	// #47
   86ba4:	aa0003f4 	mov	x20, x0
--
   86bf8:	17ffff98 	b	86a58 <command_word_completion_function@@Base+0x978>
   86bfc:	aa1403e0 	mov	x0, x20
   86c00:	52800001 	mov	w1, #0x0                   	// #0
   86c04:	97fff0b3 	bl	82ed0 <last_history_line@@Base+0x80>
   86c08:	aa0003f4 	mov	x20, x0
   86c0c:	f9410260 	ldr	x0, [x19, #512]
   86c10:	f900fe74 	str	x20, [x19, #504]
   86c14:	97fea177 	bl	2f1f0 <free@plt>
   86c18:	f9010274 	str	x20, [x19, #512]
   86c1c:	17fffd88 	b	8623c <command_word_completion_function@@Base+0x15c>
   86c20:	913a22a0 	add	x0, x21, #0xe88
   86c24:	52800021 	mov	w1, #0x1                   	// #1
   86c28:	b9020c01 	str	w1, [x0, #524]
   86c2c:	17fffdec 	b	863dc <command_word_completion_function@@Base+0x2fc>
   86c30:	aa1603e0 	mov	x0, x22
   86c34:	b902103f 	str	wzr, [x1, #528]
   86c38:	97fe9f62 	bl	2e9c0 <strlen@plt>
   86c3c:	91000400 	add	x0, x0, #0x1
   86c40:	940029c0 	bl	91340 <xmalloc@@Base>
   86c44:	aa1603e1 	mov	x1, x22
[31m   86c48:	97fea1c6 	bl	2f360 <strcpy@plt>[0m
   86c4c:	aa0003fb 	mov	x27, x0
   86c50:	17fffe64 	b	865e0 <command_word_completion_function@@Base+0x500>
--
   878a8:	97fe9e52 	bl	2f1f0 <free@plt>
   878ac:	b4000bd4 	cbz	x20, 87a24 <command_word_completion_function@@Base+0x1944>
   878b0:	d0000538 	adrp	x24, 12d000 <o_options@@Base+0x2220>
   878b4:	d0000535 	adrp	x21, 12d000 <o_options@@Base+0x2220>
   878b8:	aa1403e0 	mov	x0, x20
   878bc:	a9046bf9 	stp	x25, x26, [sp, #64]
   878c0:	f9457302 	ldr	x2, [x24, #2784]
   878c4:	f9424aa1 	ldr	x1, [x21, #1168]
   878c8:	b9400059 	ldr	w25, [x2]
   878cc:	b940003a 	ldr	w26, [x1]
   878d0:	97ffffbc 	bl	877c0 <command_word_completion_function@@Base+0x16e0>
   878d4:	aa1403e0 	mov	x0, x20
   878d8:	97fe9e46 	bl	2f1f0 <free@plt>
   878dc:	97fee345 	bl	405f0 <alloc_word_desc@@Base>
   878e0:	aa0003f3 	mov	x19, x0
   878e4:	f94002c0 	ldr	x0, [x22]
   878e8:	97fe9c36 	bl	2e9c0 <strlen@plt>
   878ec:	91000400 	add	x0, x0, #0x1
   878f0:	94002694 	bl	91340 <xmalloc@@Base>
   878f4:	f94002c1 	ldr	x1, [x22]
[31m   878f8:	97fe9e9a 	bl	2f360 <strcpy@plt>[0m
   878fc:	d0000521 	adrp	x1, 12d000 <o_options@@Base+0x2220>
   87900:	f946c021 	ldr	x1, [x1, #3456]
--
   87b80:	aa0003e1 	mov	x1, x0
   87b84:	52800002 	mov	w2, #0x0                   	// #0
   87b88:	912a82c0 	add	x0, x22, #0xaa0
   87b8c:	97ff2ad5 	bl	526e0 <bind_int_variable@@Base>
   87b90:	b4000080 	cbz	x0, 87ba0 <command_word_completion_function@@Base+0x1ac0>
   87b94:	b9402801 	ldr	w1, [x0, #40]
   87b98:	32000021 	orr	w1, w1, #0x1
   87b9c:	b9002801 	str	w1, [x0, #40]
   87ba0:	d000053a 	adrp	x26, 12d000 <o_options@@Base+0x2220>
   87ba4:	52800022 	mov	w2, #0x1                   	// #1
   87ba8:	9101c3fb 	add	x27, sp, #0x70
   87bac:	f9462341 	ldr	x1, [x26, #3136]
   87bb0:	aa1b03e0 	mov	x0, x27
   87bb4:	b9000022 	str	w2, [x1]
   87bb8:	97fed90a 	bl	3dfe0 <save_parser_state@@Base>
   87bbc:	aa1403e0 	mov	x0, x20
   87bc0:	97fe9b80 	bl	2e9c0 <strlen@plt>
   87bc4:	91000400 	add	x0, x0, #0x1
   87bc8:	940025de 	bl	91340 <xmalloc@@Base>
   87bcc:	aa1403e1 	mov	x1, x20
[31m   87bd0:	97fe9de4 	bl	2f360 <strcpy@plt>[0m
   87bd4:	b00002e1 	adrp	x1, e4000 <_IO_stdin_used@@Base+0x3db8>
   87bd8:	912ac021 	add	x1, x1, #0xab0
--
   883fc:	d65f03c0 	ret
   88400:	d28001c0 	mov	x0, #0xe                   	// #14
   88404:	940023cf 	bl	91340 <xmalloc@@Base>
   88408:	900002e1 	adrp	x1, e4000 <_IO_stdin_used@@Base+0x3db8>
   8840c:	912bc021 	add	x1, x1, #0xaf0
   88410:	f942e694 	ldr	x20, [x20, #1480]
   88414:	f9400022 	ldr	x2, [x1]
   88418:	f9000002 	str	x2, [x0]
   8841c:	f8406021 	ldur	x1, [x1, #6]
   88420:	f8006001 	stur	x1, [x0, #6]
   88424:	f9000280 	str	x0, [x20]
   88428:	2a1603e0 	mov	w0, w22
   8842c:	a94153f3 	ldp	x19, x20, [sp, #16]
   88430:	a9425bf5 	ldp	x21, x22, [sp, #32]
   88434:	a8c37bfd 	ldp	x29, x30, [sp], #48
   88438:	d65f03c0 	ret
   8843c:	f942e681 	ldr	x1, [x20, #1480]
   88440:	52800802 	mov	w2, #0x40                  	// #64
   88444:	38001402 	strb	w2, [x0], #1
   88448:	f9400021 	ldr	x1, [x1]
[31m   8844c:	97fe9bc5 	bl	2f360 <strcpy@plt>[0m
   88450:	17ffffd3 	b	8839c <enable_hostname_completion@@Base+0x11c>
   88454:	d503201f 	nop
--
   88d20:	f940b000 	ldr	x0, [x0, #352]
   88d24:	f9000022 	str	x2, [x1]
   88d28:	f900001f 	str	xzr, [x0]
   88d2c:	17ffffea 	b	88cd4 <bashline_reset@@Base+0x84>

0000000000088d30 <bash_re_edit@@Base>:
   88d30:	a9be7bfd 	stp	x29, x30, [sp, #-32]!
   88d34:	910003fd 	mov	x29, sp
   88d38:	a90153f3 	stp	x19, x20, [sp, #16]
   88d3c:	90000593 	adrp	x19, 138000 <running_in_background@@Base+0x610>
   88d40:	913a2261 	add	x1, x19, #0xe88
   88d44:	aa0003f4 	mov	x20, x0
   88d48:	f940f020 	ldr	x0, [x1, #480]
   88d4c:	b4000040 	cbz	x0, 88d54 <bash_re_edit@@Base+0x24>
   88d50:	97fe9928 	bl	2f1f0 <free@plt>
   88d54:	aa1403e0 	mov	x0, x20
   88d58:	97fe971a 	bl	2e9c0 <strlen@plt>
   88d5c:	91000400 	add	x0, x0, #0x1
   88d60:	94002178 	bl	91340 <xmalloc@@Base>
   88d64:	aa1403e1 	mov	x1, x20
[31m   88d68:	97fe997e 	bl	2f360 <strcpy@plt>[0m
   88d6c:	b0000521 	adrp	x1, 12d000 <o_options@@Base+0x2220>
   88d70:	913a2273 	add	x19, x19, #0xe88
--
   88fe8:	17ffffea 	b	88f90 <bash_default_completion@@Base+0x120>
   88fec:	71009c7f 	cmp	w3, #0x27
   88ff0:	54000080 	b.eq	89000 <bash_default_completion@@Base+0x190>  // b.none
   88ff4:	39400401 	ldrb	w1, [x0, #1]
   88ff8:	7100a03f 	cmp	w1, #0x28
   88ffc:	540006a0 	b.eq	890d0 <bash_default_completion@@Base+0x260>  // b.none
   89000:	aa1803e0 	mov	x0, x24
   89004:	f0ffffc1 	adrp	x1, 84000 <last_history_line@@Base+0x11b0>
   89008:	91340021 	add	x1, x1, #0xd00
   8900c:	9400e8a9 	bl	c32b0 <rl_completion_matches@@Base>
   89010:	aa0003f3 	mov	x19, x0
   89014:	b40006a0 	cbz	x0, 890e8 <bash_default_completion@@Base+0x278>
   89018:	f9400000 	ldr	x0, [x0]
   8901c:	b4fffc20 	cbz	x0, 88fa0 <bash_default_completion@@Base+0x130>
   89020:	f9400661 	ldr	x1, [x19, #8]
   89024:	b5fffbe1 	cbnz	x1, 88fa0 <bash_default_completion@@Base+0x130>
   89028:	97fe9666 	bl	2e9c0 <strlen@plt>
   8902c:	91000400 	add	x0, x0, #0x1
   89030:	940020c4 	bl	91340 <xmalloc@@Base>
   89034:	f9400261 	ldr	x1, [x19]
[31m   89038:	97fe98ca 	bl	2f360 <strcpy@plt>[0m
   8903c:	aa0003e1 	mov	x1, x0
   89040:	910103e0 	add	x0, sp, #0x40
--
0000000000089e30 <bash_servicename_completion_function@@Base>:
   89e30:	a9bb7bfd 	stp	x29, x30, [sp, #-80]!
   89e34:	910003fd 	mov	x29, sp
   89e38:	a90153f3 	stp	x19, x20, [sp, #16]
   89e3c:	a9025bf5 	stp	x21, x22, [sp, #32]
   89e40:	a90363f7 	stp	x23, x24, [sp, #48]
   89e44:	f0000578 	adrp	x24, 138000 <running_in_background@@Base+0x610>
   89e48:	f90023f9 	str	x25, [sp, #64]
   89e4c:	35000261 	cbnz	w1, 89e98 <bash_servicename_completion_function@@Base+0x68>
   89e50:	aa0003f3 	mov	x19, x0
   89e54:	913a2300 	add	x0, x24, #0xe88
   89e58:	f9414c00 	ldr	x0, [x0, #664]
   89e5c:	b4000040 	cbz	x0, 89e64 <bash_servicename_completion_function@@Base+0x34>
   89e60:	97fe94e4 	bl	2f1f0 <free@plt>
   89e64:	aa1303e0 	mov	x0, x19
   89e68:	97fe92d6 	bl	2e9c0 <strlen@plt>
   89e6c:	91000400 	add	x0, x0, #0x1
   89e70:	94001d34 	bl	91340 <xmalloc@@Base>
   89e74:	aa1303e1 	mov	x1, x19
   89e78:	913a2314 	add	x20, x24, #0xe88
[31m   89e7c:	97fe9539 	bl	2f360 <strcpy@plt>[0m
   89e80:	f9014e80 	str	x0, [x20, #664]
   89e84:	97fe92cf 	bl	2e9c0 <strlen@plt>
--
   89f9c:	d65f03c0 	ret

0000000000089fa0 <bash_groupname_completion_function@@Base>:
   89fa0:	a9bd7bfd 	stp	x29, x30, [sp, #-48]!
   89fa4:	910003fd 	mov	x29, sp
   89fa8:	a90153f3 	stp	x19, x20, [sp, #16]
   89fac:	f90013f5 	str	x21, [sp, #32]
   89fb0:	f0000575 	adrp	x21, 138000 <running_in_background@@Base+0x610>
   89fb4:	35000221 	cbnz	w1, 89ff8 <bash_groupname_completion_function@@Base+0x58>
   89fb8:	aa0003f3 	mov	x19, x0
   89fbc:	913a22a0 	add	x0, x21, #0xe88
   89fc0:	f9415800 	ldr	x0, [x0, #688]
   89fc4:	b4000040 	cbz	x0, 89fcc <bash_groupname_completion_function@@Base+0x2c>
   89fc8:	97fe948a 	bl	2f1f0 <free@plt>
   89fcc:	aa1303e0 	mov	x0, x19
   89fd0:	97fe927c 	bl	2e9c0 <strlen@plt>
   89fd4:	91000400 	add	x0, x0, #0x1
   89fd8:	94001cda 	bl	91340 <xmalloc@@Base>
   89fdc:	913a22b4 	add	x20, x21, #0xe88
   89fe0:	aa1303e1 	mov	x1, x19
[31m   89fe4:	97fe94df 	bl	2f360 <strcpy@plt>[0m
   89fe8:	f9015a80 	str	x0, [x20, #688]
   89fec:	97fe9275 	bl	2e9c0 <strlen@plt>
--
   8a8d8:	aa0003fa 	mov	x26, x0
   8a8dc:	54fffd4b 	b.lt	8a884 <strcreplace@@Base+0x84>  // b.tstop
   8a8e0:	0b130273 	add	w19, w19, w19
   8a8e4:	6b13005f 	cmp	w2, w19
   8a8e8:	54ffffca 	b.ge	8a8e0 <strcreplace@@Base+0xe0>  // b.tcont
   8a8ec:	aa1503e0 	mov	x0, x21
   8a8f0:	93407e61 	sxtw	x1, w19
   8a8f4:	94001aa7 	bl	91390 <xrealloc@@Base>
   8a8f8:	aa0003f5 	mov	x21, x0
   8a8fc:	17ffffe2 	b	8a884 <strcreplace@@Base+0x84>
   8a900:	34000178 	cbz	w24, 8a92c <strcreplace@@Base+0x12c>
   8a904:	cb1502d4 	sub	x20, x22, x21
   8a908:	35000579 	cbnz	w25, 8a9b4 <strcreplace@@Base+0x1b4>
   8a90c:	0b140300 	add	w0, w24, w20
   8a910:	6b13001f 	cmp	w0, w19
   8a914:	5400024a 	b.ge	8a95c <strcreplace@@Base+0x15c>  // b.tcont
   8a918:	f94037e2 	ldr	x2, [sp, #104]
   8a91c:	8b34c2a0 	add	x0, x21, w20, sxtw
   8a920:	aa1703e1 	mov	x1, x23
   8a924:	8b020016 	add	x22, x0, x2
[31m   8a928:	97fe928e 	bl	2f360 <strcpy@plt>[0m
   8a92c:	aa1a03fb 	mov	x27, x26
   8a930:	39400344 	ldrb	w4, [x26]
--
   8a938:	390002df 	strb	wzr, [x22]
   8a93c:	aa1503e0 	mov	x0, x21
   8a940:	a94153f3 	ldp	x19, x20, [sp, #16]
   8a944:	a9425bf5 	ldp	x21, x22, [sp, #32]
   8a948:	a94363f7 	ldp	x23, x24, [sp, #48]
   8a94c:	a9446bf9 	ldp	x25, x26, [sp, #64]
   8a950:	a94573fb 	ldp	x27, x28, [sp, #80]
   8a954:	a8c77bfd 	ldp	x29, x30, [sp], #112
   8a958:	d65f03c0 	ret
   8a95c:	0b130273 	add	w19, w19, w19
   8a960:	6b13001f 	cmp	w0, w19
   8a964:	54ffffca 	b.ge	8a95c <strcreplace@@Base+0x15c>  // b.tcont
   8a968:	93407e61 	sxtw	x1, w19
   8a96c:	aa1503e0 	mov	x0, x21
   8a970:	94001a88 	bl	91390 <xrealloc@@Base>
   8a974:	aa0003f5 	mov	x21, x0
   8a978:	f94037e2 	ldr	x2, [sp, #104]
   8a97c:	8b34c2a0 	add	x0, x21, w20, sxtw
   8a980:	aa1703e1 	mov	x1, x23
   8a984:	8b020016 	add	x22, x0, x2
[31m   8a988:	97fe9276 	bl	2f360 <strcpy@plt>[0m
   8a98c:	17ffffe8 	b	8a92c <strcreplace@@Base+0x12c>
   8a990:	39400440 	ldrb	w0, [x2, #1]
--
   8a9ac:	2a0003f8 	mov	w24, w0
   8a9b0:	17ffffa4 	b	8a840 <strcreplace@@Base+0x40>
   8a9b4:	aa1703e0 	mov	x0, x23
   8a9b8:	94008246 	bl	ab2d0 <glob_pattern_p@@Base>
   8a9bc:	350000a0 	cbnz	w0, 8a9d0 <strcreplace@@Base+0x1d0>
   8a9c0:	aa1703e0 	mov	x0, x23
   8a9c4:	52800b81 	mov	w1, #0x5c                  	// #92
   8a9c8:	97fe922a 	bl	2f270 <strchr@plt>
   8a9cc:	b4fffa00 	cbz	x0, 8a90c <strcreplace@@Base+0x10c>
   8a9d0:	aa1703e0 	mov	x0, x23
   8a9d4:	97ffb837 	bl	78ab0 <quote_globbing_chars@@Base>
   8a9d8:	aa0003fb 	mov	x27, x0
   8a9dc:	97fe8ff9 	bl	2e9c0 <strlen@plt>
   8a9e0:	aa0003f6 	mov	x22, x0
   8a9e4:	0b140000 	add	w0, w0, w20
   8a9e8:	6b13001f 	cmp	w0, w19
   8a9ec:	5400014a 	b.ge	8aa14 <strcreplace@@Base+0x214>  // b.tcont
   8a9f0:	aa1b03e1 	mov	x1, x27
   8a9f4:	8b34c2b4 	add	x20, x21, w20, sxtw
   8a9f8:	aa1403e0 	mov	x0, x20
[31m   8a9fc:	97fe9259 	bl	2f360 <strcpy@plt>[0m
   8aa00:	aa1b03e0 	mov	x0, x27
   8aa04:	8b36c296 	add	x22, x20, w22, sxtw
--
   8ac30:	d65f03c0 	ret
   8ac34:	d503201f 	nop
   8ac38:	d503201f 	nop
   8ac3c:	d503201f 	nop

000000000008ac40 <set_default_locale@@Base>:
   8ac40:	a9be7bfd 	stp	x29, x30, [sp, #-32]!
   8ac44:	900002c1 	adrp	x1, e2000 <_IO_stdin_used@@Base+0x1db8>
   8ac48:	91206021 	add	x1, x1, #0x818
   8ac4c:	910003fd 	mov	x29, sp
   8ac50:	f9000bf3 	str	x19, [sp, #16]
   8ac54:	f0000573 	adrp	x19, 139000 <dircomplete_expand@@Base+0x68>
   8ac58:	528000c0 	mov	w0, #0x6                   	// #6
   8ac5c:	97fe929d 	bl	2f6d0 <setlocale@plt>
   8ac60:	f900aa60 	str	x0, [x19, #336]
   8ac64:	b40000e0 	cbz	x0, 8ac80 <set_default_locale@@Base+0x40>
   8ac68:	97fe8f56 	bl	2e9c0 <strlen@plt>
   8ac6c:	91000400 	add	x0, x0, #0x1
   8ac70:	940019b4 	bl	91340 <xmalloc@@Base>
   8ac74:	f940aa61 	ldr	x1, [x19, #336]
[31m   8ac78:	97fe91ba 	bl	2f360 <strcpy@plt>[0m
   8ac7c:	f900aa60 	str	x0, [x19, #336]
   8ac80:	d00002c1 	adrp	x1, e4000 <_IO_stdin_used@@Base+0x3db8>
--
   8ad60:	39400000 	ldrb	w0, [x0]
   8ad64:	350003a0 	cbnz	w0, 8add8 <set_default_locale_vars@@Base+0xe8>
   8ad68:	b00002c0 	adrp	x0, e3000 <_IO_stdin_used@@Base+0x2db8>
   8ad6c:	91140000 	add	x0, x0, #0x500
   8ad70:	97ff1280 	bl	4f770 <get_string_value@@Base>
   8ad74:	aa0003f3 	mov	x19, x0
   8ad78:	b40002a0 	cbz	x0, 8adcc <set_default_locale_vars@@Base+0xdc>
   8ad7c:	39400000 	ldrb	w0, [x0]
   8ad80:	34000260 	cbz	w0, 8adcc <set_default_locale_vars@@Base+0xdc>
   8ad84:	f0000574 	adrp	x20, 139000 <dircomplete_expand@@Base+0x68>
   8ad88:	91054280 	add	x0, x20, #0x150
   8ad8c:	f9400c00 	ldr	x0, [x0, #24]
   8ad90:	b4000040 	cbz	x0, 8ad98 <set_default_locale_vars@@Base+0xa8>
   8ad94:	97fe9117 	bl	2f1f0 <free@plt>
   8ad98:	91054294 	add	x20, x20, #0x150
   8ad9c:	aa1303e0 	mov	x0, x19
   8ada0:	97fe8f08 	bl	2e9c0 <strlen@plt>
   8ada4:	91000400 	add	x0, x0, #0x1
   8ada8:	94001966 	bl	91340 <xmalloc@@Base>
   8adac:	aa1303e1 	mov	x1, x19
[31m   8adb0:	97fe916c 	bl	2f360 <strcpy@plt>[0m
   8adb4:	aa0003e1 	mov	x1, x0
   8adb8:	f9000e81 	str	x1, [x20, #24]
   8adbc:	f9400a80 	ldr	x0, [x20, #16]
   8adc0:	b4000060 	cbz	x0, 8adcc <set_default_locale_vars@@Base+0xdc>
   8adc4:	39400002 	ldrb	w2, [x0]
   8adc8:	35000a02 	cbnz	w2, 8af08 <set_default_locale_vars@@Base+0x218>
   8adcc:	a94153f3 	ldp	x19, x20, [sp, #16]
   8add0:	a8c27bfd 	ldp	x29, x30, [sp], #32
   8add4:	d65f03c0 	ret
   8add8:	f0000574 	adrp	x20, 139000 <dircomplete_expand@@Base+0x68>
   8addc:	91054280 	add	x0, x20, #0x150
   8ade0:	f9400800 	ldr	x0, [x0, #16]
   8ade4:	b4000040 	cbz	x0, 8adec <set_default_locale_vars@@Base+0xfc>
   8ade8:	97fe9102 	bl	2f1f0 <free@plt>
   8adec:	91054294 	add	x20, x20, #0x150
   8adf0:	aa1303e0 	mov	x0, x19
   8adf4:	97fe8ef3 	bl	2e9c0 <strlen@plt>
   8adf8:	91000400 	add	x0, x0, #0x1
   8adfc:	94001951 	bl	91340 <xmalloc@@Base>
   8ae00:	aa1303e1 	mov	x1, x19
[31m   8ae04:	97fe9157 	bl	2f360 <strcpy@plt>[0m
   8ae08:	f9400e81 	ldr	x1, [x20, #24]
   8ae0c:	f9000a80 	str	x0, [x20, #16]
--
   8b0c4:	17ffffc0 	b	8afc4 <get_locale_var@@Base+0xa4>
   8b0c8:	d503201f 	nop
   8b0cc:	d503201f 	nop

000000000008b0d0 <set_lang@@Base>:
   8b0d0:	a9be7bfd 	stp	x29, x30, [sp, #-32]!
   8b0d4:	910003fd 	mov	x29, sp
   8b0d8:	a90153f3 	stp	x19, x20, [sp, #16]
   8b0dc:	d0000573 	adrp	x19, 139000 <dircomplete_expand@@Base+0x68>
   8b0e0:	91054260 	add	x0, x19, #0x150
   8b0e4:	aa0103f4 	mov	x20, x1
   8b0e8:	f9401000 	ldr	x0, [x0, #32]
   8b0ec:	b4000040 	cbz	x0, 8b0f4 <set_lang@@Base+0x24>
   8b0f0:	97fe9040 	bl	2f1f0 <free@plt>
   8b0f4:	b40002b4 	cbz	x20, 8b148 <set_lang@@Base+0x78>
   8b0f8:	aa1403e0 	mov	x0, x20
   8b0fc:	97fe8e31 	bl	2e9c0 <strlen@plt>
   8b100:	91000400 	add	x0, x0, #0x1
   8b104:	9400188f 	bl	91340 <xmalloc@@Base>
   8b108:	aa1403e1 	mov	x1, x20
[31m   8b10c:	97fe9095 	bl	2f360 <strcpy@plt>[0m
   8b110:	91054261 	add	x1, x19, #0x150
   8b114:	f9001020 	str	x0, [x1, #32]
--
   8b1c0:	54001c40 	b.eq	8b548 <set_locale_var@@Base+0x3e8>  // b.none
   8b1c4:	d503201f 	nop
   8b1c8:	a9425bf5 	ldp	x21, x22, [sp, #32]
   8b1cc:	2a1403e0 	mov	w0, w20
   8b1d0:	a94153f3 	ldp	x19, x20, [sp, #16]
   8b1d4:	a8c37bfd 	ldp	x29, x30, [sp], #48
   8b1d8:	d65f03c0 	ret
   8b1dc:	39402a60 	ldrb	w0, [x19, #10]
   8b1e0:	d0000573 	adrp	x19, 139000 <dircomplete_expand@@Base+0x68>
   8b1e4:	34001480 	cbz	w0, 8b474 <set_locale_var@@Base+0x314>
   8b1e8:	91054260 	add	x0, x19, #0x150
   8b1ec:	f9400c00 	ldr	x0, [x0, #24]
   8b1f0:	b4000040 	cbz	x0, 8b1f8 <set_locale_var@@Base+0x98>
   8b1f4:	97fe8fff 	bl	2f1f0 <free@plt>
   8b1f8:	b4000114 	cbz	x20, 8b218 <set_locale_var@@Base+0xb8>
   8b1fc:	aa1403e0 	mov	x0, x20
   8b200:	97fe8df0 	bl	2e9c0 <strlen@plt>
   8b204:	91000400 	add	x0, x0, #0x1
   8b208:	9400184e 	bl	91340 <xmalloc@@Base>
   8b20c:	aa1403e1 	mov	x1, x20
[31m   8b210:	97fe9054 	bl	2f360 <strcpy@plt>[0m
   8b214:	aa0003f4 	mov	x20, x0
   8b218:	91054273 	add	x19, x19, #0x150
--
   8b33c:	35fff460 	cbnz	w0, 8b1c8 <set_locale_var@@Base+0x68>
   8b340:	900002c0 	adrp	x0, e3000 <_IO_stdin_used@@Base+0x2db8>
   8b344:	91126000 	add	x0, x0, #0x498
   8b348:	97fffef6 	bl	8af20 <get_locale_var@@Base>
   8b34c:	aa0003e1 	mov	x1, x0
   8b350:	528000a0 	mov	w0, #0x5                   	// #5
   8b354:	97fe90df 	bl	2f6d0 <setlocale@plt>
   8b358:	aa0003f4 	mov	x20, x0
   8b35c:	17ffffcc 	b	8b28c <set_locale_var@@Base+0x12c>
   8b360:	d0000573 	adrp	x19, 139000 <dircomplete_expand@@Base+0x68>
   8b364:	91054260 	add	x0, x19, #0x150
   8b368:	f9400400 	ldr	x0, [x0, #8]
   8b36c:	b4000040 	cbz	x0, 8b374 <set_locale_var@@Base+0x214>
   8b370:	97fe8fa0 	bl	2f1f0 <free@plt>
   8b374:	b4000574 	cbz	x20, 8b420 <set_locale_var@@Base+0x2c0>
   8b378:	aa1403e0 	mov	x0, x20
   8b37c:	97fe8d91 	bl	2e9c0 <strlen@plt>
   8b380:	91000400 	add	x0, x0, #0x1
   8b384:	940017ef 	bl	91340 <xmalloc@@Base>
   8b388:	aa1403e1 	mov	x1, x20
[31m   8b38c:	97fe8ff5 	bl	2f360 <strcpy@plt>[0m
   8b390:	91054261 	add	x1, x19, #0x150
   8b394:	aa0003f6 	mov	x22, x0
--
   8b44c:	f9400662 	ldr	x2, [x19, #8]
   8b450:	f9408021 	ldr	x1, [x1, #256]
   8b454:	b9000020 	str	w0, [x1]
   8b458:	39400040 	ldrb	w0, [x2]
   8b45c:	34fffca0 	cbz	w0, 8b3f0 <set_locale_var@@Base+0x290>
   8b460:	97fffdd8 	bl	8abc0 <xbcopy@@Base+0x110>
   8b464:	d0000501 	adrp	x1, 12d000 <o_options@@Base+0x2220>
   8b468:	f9465421 	ldr	x1, [x1, #3240]
   8b46c:	b9000020 	str	w0, [x1]
   8b470:	17ffffe0 	b	8b3f0 <set_locale_var@@Base+0x290>
   8b474:	91054260 	add	x0, x19, #0x150
   8b478:	f9400800 	ldr	x0, [x0, #16]
   8b47c:	b4000040 	cbz	x0, 8b484 <set_locale_var@@Base+0x324>
   8b480:	97fe8f5c 	bl	2f1f0 <free@plt>
   8b484:	b4000114 	cbz	x20, 8b4a4 <set_locale_var@@Base+0x344>
   8b488:	aa1403e0 	mov	x0, x20
   8b48c:	97fe8d4d 	bl	2e9c0 <strlen@plt>
   8b490:	91000400 	add	x0, x0, #0x1
   8b494:	940017ab 	bl	91340 <xmalloc@@Base>
   8b498:	aa1403e1 	mov	x1, x20
[31m   8b49c:	97fe8fb1 	bl	2f360 <strcpy@plt>[0m
   8b4a0:	aa0003f4 	mov	x20, x0
   8b4a4:	91054273 	add	x19, x19, #0x150
--
   8b68c:	a9025bf5 	stp	x21, x22, [sp, #32]
   8b690:	2a0103f5 	mov	w21, w1
   8b694:	97fffe23 	bl	8af20 <get_locale_var@@Base>
   8b698:	b4000180 	cbz	x0, 8b6c8 <set_default_lang@@Base+0xa8>
   8b69c:	39400001 	ldrb	w1, [x0]
   8b6a0:	34000141 	cbz	w1, 8b6c8 <set_default_lang@@Base+0xa8>
   8b6a4:	71010c3f 	cmp	w1, #0x43
   8b6a8:	540002a0 	b.eq	8b6fc <set_default_lang@@Base+0xdc>  // b.none
   8b6ac:	7101403f 	cmp	w1, #0x50
   8b6b0:	540004c0 	b.eq	8b748 <set_default_lang@@Base+0x128>  // b.none
   8b6b4:	d0000560 	adrp	x0, 139000 <dircomplete_expand@@Base+0x68>
   8b6b8:	f940b000 	ldr	x0, [x0, #352]
   8b6bc:	b4000060 	cbz	x0, 8b6c8 <set_default_lang@@Base+0xa8>
   8b6c0:	39400001 	ldrb	w1, [x0]
   8b6c4:	35000221 	cbnz	w1, 8b708 <set_default_lang@@Base+0xe8>
   8b6c8:	110006a0 	add	w0, w21, #0x1
   8b6cc:	93407c00 	sxtw	x0, w0
   8b6d0:	9400171c 	bl	91340 <xmalloc@@Base>
   8b6d4:	aa1403e1 	mov	x1, x20
   8b6d8:	aa0003f4 	mov	x20, x0
[31m   8b6dc:	97fe8f21 	bl	2f360 <strcpy@plt>[0m
   8b6e0:	b4000053 	cbz	x19, 8b6e8 <set_default_lang@@Base+0xc8>
   8b6e4:	b9000275 	str	w21, [x19]
--
   8b6ec:	a94153f3 	ldp	x19, x20, [sp, #16]
   8b6f0:	a9425bf5 	ldp	x21, x22, [sp, #32]
   8b6f4:	a8c37bfd 	ldp	x29, x30, [sp], #48
   8b6f8:	d65f03c0 	ret
   8b6fc:	39400400 	ldrb	w0, [x0, #1]
   8b700:	35fffda0 	cbnz	w0, 8b6b4 <set_default_lang@@Base+0x94>
   8b704:	17fffff1 	b	8b6c8 <set_default_lang@@Base+0xa8>
   8b708:	aa1403e1 	mov	x1, x20
   8b70c:	528000a2 	mov	w2, #0x5                   	// #5
   8b710:	97fe8f78 	bl	2f4f0 <dcgettext@plt>
   8b714:	aa0003f6 	mov	x22, x0
   8b718:	eb00029f 	cmp	x20, x0
   8b71c:	54fffd60 	b.eq	8b6c8 <set_default_lang@@Base+0xa8>  // b.none
   8b720:	97fe8ca8 	bl	2e9c0 <strlen@plt>
   8b724:	aa0003f5 	mov	x21, x0
   8b728:	11000400 	add	w0, w0, #0x1
   8b72c:	93407c00 	sxtw	x0, w0
   8b730:	94001704 	bl	91340 <xmalloc@@Base>
   8b734:	aa1603e1 	mov	x1, x22
   8b738:	aa0003f4 	mov	x20, x0
[31m   8b73c:	97fe8f09 	bl	2f360 <strcpy@plt>[0m
   8b740:	b5fffd33 	cbnz	x19, 8b6e4 <set_default_lang@@Base+0xc4>
   8b744:	17ffffe9 	b	8b6e8 <set_default_lang@@Base+0xc8>
--
   8be60:	39400000 	ldrb	w0, [x0]
   8be64:	f94027e3 	ldr	x3, [sp, #72]
   8be68:	7100b81f 	cmp	w0, #0x2e
   8be6c:	54fff741 	b.ne	8bd54 <file_status@@Base+0x194>  // b.any
   8be70:	17ffffb2 	b	8bd38 <file_status@@Base+0x178>
   8be74:	9105e2c0 	add	x0, x22, #0x178
   8be78:	f9400400 	ldr	x0, [x0, #8]
   8be7c:	b4000040 	cbz	x0, 8be84 <file_status@@Base+0x2c4>
   8be80:	97fe8cdc 	bl	2f1f0 <free@plt>
   8be84:	9105e2d6 	add	x22, x22, #0x178
   8be88:	f90006df 	str	xzr, [x22, #8]
   8be8c:	17ffffcc 	b	8bdbc <file_status@@Base+0x1fc>
   8be90:	aa1503e0 	mov	x0, x21
   8be94:	97ffff0f 	bl	8bad0 <locale_decpoint@@Base+0x40>
   8be98:	35fffb60 	cbnz	w0, 8be04 <file_status@@Base+0x244>
   8be9c:	aa1503e0 	mov	x0, x21
   8bea0:	97fe8ac8 	bl	2e9c0 <strlen@plt>
   8bea4:	91000400 	add	x0, x0, #0x1
   8bea8:	94001526 	bl	91340 <xmalloc@@Base>
   8beac:	aa1503e1 	mov	x1, x21
[31m   8beb0:	97fe8d2c 	bl	2f360 <strcpy@plt>[0m
   8beb4:	f90006c0 	str	x0, [x22, #8]
   8beb8:	34fffa97 	cbz	w23, 8be08 <file_status@@Base+0x248>
--
   8bed8:	f9400061 	ldr	x1, [x3]
   8bedc:	f90077e1 	str	x1, [sp, #232]
   8bee0:	d2800001 	mov	x1, #0x0                   	// #0
   8bee4:	a9046bf9 	stp	x25, x26, [sp, #64]
   8bee8:	d000057a 	adrp	x26, 139000 <dircomplete_expand@@Base+0x68>
   8beec:	a9025bf5 	stp	x21, x22, [sp, #32]
   8bef0:	2a0203f6 	mov	w22, w2
   8bef4:	aa0003f5 	mov	x21, x0
   8bef8:	b9017b5f 	str	wzr, [x26, #376]
   8befc:	a90363f7 	stp	x23, x24, [sp, #48]
   8bf00:	97fece88 	bl	3f920 <absolute_program@@Base>
   8bf04:	35000ac0 	cbnz	w0, 8c05c <file_status@@Base+0x49c>
   8bf08:	b4000074 	cbz	x20, 8bf14 <file_status@@Base+0x354>
   8bf0c:	39400281 	ldrb	w1, [x20]
   8bf10:	350002a1 	cbnz	w1, 8bf64 <file_status@@Base+0x3a4>
   8bf14:	aa1503e0 	mov	x0, x21
   8bf18:	97fe8aaa 	bl	2e9c0 <strlen@plt>
   8bf1c:	91000400 	add	x0, x0, #0x1
   8bf20:	94001508 	bl	91340 <xmalloc@@Base>
   8bf24:	aa1503e1 	mov	x1, x21
[31m   8bf28:	97fe8d0e 	bl	2f360 <strcpy@plt>[0m
   8bf2c:	aa0003f8 	mov	x24, x0
   8bf30:	d0000500 	adrp	x0, 12d000 <o_options@@Base+0x2220>
--
   8cee4:	d2800000 	mov	x0, #0x0                   	// #0
   8cee8:	91004021 	add	x1, x1, #0x10
   8ceec:	97fe8981 	bl	2f4f0 <dcgettext@plt>
   8cef0:	aa1503e1 	mov	x1, x21
   8cef4:	97ff24b7 	bl	561d0 <internal_error@@Base>
   8cef8:	17ffffde 	b	8ce70 <redirection_error@@Base+0x180>
   8cefc:	b0000502 	adrp	x2, 12d000 <o_options@@Base+0x2220>
   8cf00:	321b02c1 	orr	w1, w22, #0x20
   8cf04:	f943c042 	ldr	x2, [x2, #1920]
   8cf08:	b9400042 	ldr	w2, [x2]
   8cf0c:	7100005f 	cmp	w2, #0x0
   8cf10:	1a960021 	csel	w1, w1, w22, eq  // eq = none
   8cf14:	17ffffb0 	b	8cdd4 <redirection_error@@Base+0xe4>
   8cf18:	f9400680 	ldr	x0, [x20, #8]
   8cf1c:	f9400000 	ldr	x0, [x0]
   8cf20:	97fe86a8 	bl	2e9c0 <strlen@plt>
   8cf24:	91000400 	add	x0, x0, #0x1
   8cf28:	94001106 	bl	91340 <xmalloc@@Base>
   8cf2c:	f9400681 	ldr	x1, [x20, #8]
   8cf30:	f9400021 	ldr	x1, [x1]
[31m   8cf34:	97fe890b 	bl	2f360 <strcpy@plt>[0m
   8cf38:	aa0003f5 	mov	x21, x0
   8cf3c:	aa0003f4 	mov	x20, x0
--
   8d620:	aa1803e0 	mov	x0, x24
   8d624:	52800201 	mov	w1, #0x10                  	// #16
   8d628:	97fecf8a 	bl	41450 <make_redirection@@Base>
   8d62c:	aa0003f6 	mov	x22, x0
   8d630:	17fffea6 	b	8d0c8 <redirection_error@@Base+0x3d8>
   8d634:	f94012c0 	ldr	x0, [x22, #32]
   8d638:	d10043ff 	sub	sp, sp, #0x10
   8d63c:	910003fb 	mov	x27, sp
   8d640:	52800202 	mov	w2, #0x10                  	// #16
   8d644:	aa1b03e1 	mov	x1, x27
   8d648:	97fff51a 	bl	8aab0 <xbcopy@@Base>
   8d64c:	f94012d3 	ldr	x19, [x22, #32]
   8d650:	f9400260 	ldr	x0, [x19]
   8d654:	97fe84db 	bl	2e9c0 <strlen@plt>
   8d658:	91004000 	add	x0, x0, #0x10
   8d65c:	927cec00 	and	x0, x0, #0xfffffffffffffff0
   8d660:	cb2063ff 	sub	sp, sp, x0
   8d664:	910003e0 	mov	x0, sp
   8d668:	f9000360 	str	x0, [x27]
   8d66c:	f9400261 	ldr	x1, [x19]
[31m   8d670:	97fe873c 	bl	2f360 <strcpy@plt>[0m
   8d674:	b9401ad3 	ldr	w19, [x22, #24]
   8d678:	17fffe9a 	b	8d0e0 <redirection_error@@Base+0x3f0>
--
   8e550:	aa0103f8 	mov	x24, x1
   8e554:	91002021 	add	x1, x1, #0x8
   8e558:	93407e95 	sxtw	x21, w20
   8e55c:	11000694 	add	w20, w20, #0x1
   8e560:	f8616840 	ldr	x0, [x2, x1]
   8e564:	b5ffff60 	cbnz	x0, 8e550 <stdin_redirects@@Base+0x480>
   8e568:	11000aa0 	add	w0, w21, #0x2
   8e56c:	910006b5 	add	x21, x21, #0x1
   8e570:	9400920c 	bl	b2da0 <strlist_create@@Base>
   8e574:	aa0003f9 	mov	x25, x0
   8e578:	d37df2b5 	lsl	x21, x21, #3
   8e57c:	d2800013 	mov	x19, #0x0                   	// #0
   8e580:	f8736ae1 	ldr	x1, [x23, x19]
   8e584:	f9400020 	ldr	x0, [x1]
   8e588:	b40000e0 	cbz	x0, 8e5a4 <stdin_redirects@@Base+0x4d4>
   8e58c:	97fe810d 	bl	2e9c0 <strlen@plt>
   8e590:	91000400 	add	x0, x0, #0x1
   8e594:	94000b6b 	bl	91340 <xmalloc@@Base>
   8e598:	f8736ae1 	ldr	x1, [x23, x19]
   8e59c:	f9400021 	ldr	x1, [x1]
[31m   8e5a0:	97fe8370 	bl	2f360 <strcpy@plt>[0m
   8e5a4:	f9400321 	ldr	x1, [x25]
   8e5a8:	f8336820 	str	x0, [x1, x19]
--
   8ecac:	39400001 	ldrb	w1, [x0]
   8ecb0:	f100029f 	cmp	x20, #0x0
   8ecb4:	f9469ec2 	ldr	x2, [x22, #3384]
   8ecb8:	7a401820 	ccmp	w1, #0x0, #0x0, ne  // ne = any
   8ecbc:	f9400042 	ldr	x2, [x2]
   8ecc0:	540002c0 	b.eq	8ed18 <stdin_redirects@@Base+0xc48>  // b.none
   8ecc4:	b4000122 	cbz	x2, 8ece8 <stdin_redirects@@Base+0xc18>
   8ecc8:	b4000114 	cbz	x20, 8ece8 <stdin_redirects@@Base+0xc18>
   8eccc:	39400283 	ldrb	w3, [x20]
   8ecd0:	6b03003f 	cmp	w1, w3
   8ecd4:	54000560 	b.eq	8ed80 <stdin_redirects@@Base+0xcb0>  // b.none
   8ecd8:	f00004e0 	adrp	x0, 12d000 <o_options@@Base+0x2220>
   8ecdc:	f9429c00 	ldr	x0, [x0, #1336]
   8ece0:	b9400000 	ldr	w0, [x0]
   8ece4:	35000320 	cbnz	w0, 8ed48 <stdin_redirects@@Base+0xc78>
   8ece8:	aa1403e0 	mov	x0, x20
   8ecec:	97fe7f35 	bl	2e9c0 <strlen@plt>
   8ecf0:	91000400 	add	x0, x0, #0x1
   8ecf4:	94000993 	bl	91340 <xmalloc@@Base>
   8ecf8:	aa1403e1 	mov	x1, x20
[31m   8ecfc:	97fe8199 	bl	2f360 <strcpy@plt>[0m
   8ed00:	2a1303e1 	mov	w1, w19
   8ed04:	f900daa0 	str	x0, [x21, #432]
--
   8edd0:	aa0103f7 	mov	x23, x1
   8edd4:	91002021 	add	x1, x1, #0x8
   8edd8:	93407e96 	sxtw	x22, w20
   8eddc:	11000694 	add	w20, w20, #0x1
   8ede0:	f8616840 	ldr	x0, [x2, x1]
   8ede4:	b5ffff60 	cbnz	x0, 8edd0 <stdin_redirects@@Base+0xd00>
   8ede8:	11000ac0 	add	w0, w22, #0x2
   8edec:	910006d6 	add	x22, x22, #0x1
   8edf0:	94008fec 	bl	b2da0 <strlist_create@@Base>
   8edf4:	aa0003fa 	mov	x26, x0
   8edf8:	d37df2d6 	lsl	x22, x22, #3
   8edfc:	d2800013 	mov	x19, #0x0                   	// #0
   8ee00:	f8736aa0 	ldr	x0, [x21, x19]
   8ee04:	f9400000 	ldr	x0, [x0]
   8ee08:	97fe7eee 	bl	2e9c0 <strlen@plt>
   8ee0c:	91000400 	add	x0, x0, #0x1
   8ee10:	9400094c 	bl	91340 <xmalloc@@Base>
   8ee14:	f8736aa1 	ldr	x1, [x21, x19]
   8ee18:	f9400358 	ldr	x24, [x26]
   8ee1c:	f9400021 	ldr	x1, [x1]
[31m   8ee20:	97fe8150 	bl	2f360 <strcpy@plt>[0m
   8ee24:	f8336b00 	str	x0, [x24, x19]
   8ee28:	91002273 	add	x19, x19, #0x8
--
   8efc4:	f9464b7b 	ldr	x27, [x27, #3216]
   8efc8:	d1004294 	sub	x20, x20, #0x10
   8efcc:	14000003 	b	8efd8 <stdin_redirects@@Base+0xf08>
   8efd0:	eb13029f 	cmp	x20, x19
   8efd4:	540003a0 	b.eq	8f048 <stdin_redirects@@Base+0xf78>  // b.none
   8efd8:	f9400362 	ldr	x2, [x27]
   8efdc:	3100075f 	cmn	w26, #0x1
   8efe0:	f8736842 	ldr	x2, [x2, x19]
   8efe4:	d1002273 	sub	x19, x19, #0x8
   8efe8:	b4ffff42 	cbz	x2, 8efd0 <stdin_redirects@@Base+0xf00>
   8efec:	54000080 	b.eq	8effc <stdin_redirects@@Base+0xf2c>  // b.none
   8eff0:	b9401440 	ldr	w0, [x2, #20]
   8eff4:	6b15001f 	cmp	w0, w21
   8eff8:	54fffec1 	b.ne	8efd0 <stdin_redirects@@Base+0xf00>  // b.any
   8effc:	f9400459 	ldr	x25, [x2, #8]
   8f000:	f9400f20 	ldr	x0, [x25, #24]
   8f004:	97fe7e6f 	bl	2e9c0 <strlen@plt>
   8f008:	91000400 	add	x0, x0, #0x1
   8f00c:	940008cd 	bl	91340 <xmalloc@@Base>
   8f010:	f9400f21 	ldr	x1, [x25, #24]
[31m   8f014:	97fe80d3 	bl	2f360 <strcpy@plt>[0m
   8f018:	aa0003f9 	mov	x25, x0
   8f01c:	aa1803e1 	mov	x1, x24
--
   8f4c4:	a94363f7 	ldp	x23, x24, [sp, #48]
   8f4c8:	a9446bf9 	ldp	x25, x26, [sp, #64]
   8f4cc:	a94573fb 	ldp	x27, x28, [sp, #80]
   8f4d0:	a8c67bfd 	ldp	x29, x30, [sp], #96
   8f4d4:	d65f03c0 	ret
   8f4d8:	97ffff82 	bl	8f2e0 <clean_itemlist@@Base>
   8f4dc:	b9400260 	ldr	w0, [x19]
   8f4e0:	3717f540 	tbnz	w0, #2, 8f388 <clean_itemlist@@Base+0xa8>
   8f4e4:	17ffffdf 	b	8f460 <clean_itemlist@@Base+0x180>
   8f4e8:	aa1a03e2 	mov	x2, x26
   8f4ec:	aa1903e1 	mov	x1, x25
   8f4f0:	aa1403e0 	mov	x0, x20
   8f4f4:	97fe7e4f 	bl	2ee30 <strncmp@plt>
   8f4f8:	35fff800 	cbnz	w0, 8f3f8 <clean_itemlist@@Base+0x118>
   8f4fc:	aa1403e0 	mov	x0, x20
   8f500:	97fe7d30 	bl	2e9c0 <strlen@plt>
   8f504:	91000400 	add	x0, x0, #0x1
   8f508:	9400078e 	bl	91340 <xmalloc@@Base>
   8f50c:	f94002c1 	ldr	x1, [x22]
   8f510:	f87b6821 	ldr	x1, [x1, x27]
[31m   8f514:	97fe7f93 	bl	2f360 <strcpy@plt>[0m
   8f518:	b9400ed8 	ldr	w24, [x22, #12]
   8f51c:	aa0003f4 	mov	x20, x0
--
   8f5b8:	94008dfa 	bl	b2da0 <strlist_create@@Base>
   8f5bc:	aa0003f5 	mov	x21, x0
   8f5c0:	f9400281 	ldr	x1, [x20]
   8f5c4:	b4000361 	cbz	x1, 8f630 <completions_to_stringlist@@Base+0xa0>
   8f5c8:	f9400680 	ldr	x0, [x20, #8]
   8f5cc:	b4000480 	cbz	x0, 8f65c <completions_to_stringlist@@Base+0xcc>
   8f5d0:	710006ff 	cmp	w23, #0x1
   8f5d4:	540003ed 	b.le	8f650 <completions_to_stringlist@@Base+0xc0>
   8f5d8:	51000af6 	sub	w22, w23, #0x2
   8f5dc:	91002294 	add	x20, x20, #0x8
   8f5e0:	910006d6 	add	x22, x22, #0x1
   8f5e4:	d2800013 	mov	x19, #0x0                   	// #0
   8f5e8:	d37df2d6 	lsl	x22, x22, #3
   8f5ec:	d503201f 	nop
   8f5f0:	f8736a80 	ldr	x0, [x20, x19]
   8f5f4:	b40000c0 	cbz	x0, 8f60c <completions_to_stringlist@@Base+0x7c>
   8f5f8:	97fe7cf2 	bl	2e9c0 <strlen@plt>
   8f5fc:	91000400 	add	x0, x0, #0x1
   8f600:	94000750 	bl	91340 <xmalloc@@Base>
   8f604:	f8736a81 	ldr	x1, [x20, x19]
[31m   8f608:	97fe7f56 	bl	2f360 <strcpy@plt>[0m
   8f60c:	f94002a1 	ldr	x1, [x21]
   8f610:	f8336820 	str	x0, [x1, x19]
--
   8f620:	510006f7 	sub	w23, w23, #0x1
   8f624:	8b374c21 	add	x1, x1, w23, uxtw #3
   8f628:	b9000eb7 	str	w23, [x21, #12]
   8f62c:	f900003f 	str	xzr, [x1]
   8f630:	aa1503e0 	mov	x0, x21
   8f634:	a94153f3 	ldp	x19, x20, [sp, #16]
   8f638:	a9425bf5 	ldp	x21, x22, [sp, #32]
   8f63c:	f9401bf7 	ldr	x23, [sp, #48]
   8f640:	a8c47bfd 	ldp	x29, x30, [sp], #64
   8f644:	d65f03c0 	ret
   8f648:	52800020 	mov	w0, #0x1                   	// #1
   8f64c:	14008dd5 	b	b2da0 <strlist_create@@Base>
   8f650:	52800017 	mov	w23, #0x0                   	// #0
   8f654:	f94002a1 	ldr	x1, [x21]
   8f658:	17fffff4 	b	8f628 <completions_to_stringlist@@Base+0x98>
   8f65c:	aa0103e0 	mov	x0, x1
   8f660:	97fe7cd8 	bl	2e9c0 <strlen@plt>
   8f664:	91000400 	add	x0, x0, #0x1
   8f668:	94000736 	bl	91340 <xmalloc@@Base>
   8f66c:	f9400281 	ldr	x1, [x20]
[31m   8f670:	97fe7f3c 	bl	2f360 <strcpy@plt>[0m
   8f674:	f94002a1 	ldr	x1, [x21]
   8f678:	52800022 	mov	w2, #0x1                   	// #1
--
   9014c:	b4000160 	cbz	x0, 90178 <gen_compspec_completions@@Base+0x448>
   90150:	39400002 	ldrb	w2, [x0]
   90154:	34000122 	cbz	w2, 90178 <gen_compspec_completions@@Base+0x448>
   90158:	39400402 	ldrb	w2, [x0, #1]
   9015c:	52800081 	mov	w1, #0x4                   	// #4
   90160:	340000c2 	cbz	w2, 90178 <gen_compspec_completions@@Base+0x448>
   90164:	39400802 	ldrb	w2, [x0, #2]
   90168:	528000a1 	mov	w1, #0x5                   	// #5
   9016c:	34000062 	cbz	w2, 90178 <gen_compspec_completions@@Base+0x448>
   90170:	97fe7a14 	bl	2e9c0 <strlen@plt>
   90174:	11000c01 	add	w1, w0, #0x3
   90178:	f94002d6 	ldr	x22, [x22]
   9017c:	0b0102b5 	add	w21, w21, w1
   90180:	b5fffe16 	cbnz	x22, 90140 <gen_compspec_completions@@Base+0x410>
   90184:	11000ea0 	add	w0, w21, #0x3
   90188:	11000ab5 	add	w21, w21, #0x2
   9018c:	93407c00 	sxtw	x0, w0
   90190:	9400046c 	bl	91340 <xmalloc@@Base>
   90194:	f9402281 	ldr	x1, [x20, #64]
   90198:	aa0003f6 	mov	x22, x0
[31m   9019c:	97fe7c71 	bl	2f360 <strcpy@plt>[0m
   901a0:	f94047e1 	ldr	x1, [sp, #136]
   901a4:	52800400 	mov	w0, #0x20                  	// #32
   901a8:	383bcac0 	strb	w0, [x22, w27, sxtw]
   901ac:	f940003b 	ldr	x27, [x1]
   901b0:	b400063b 	cbz	x27, 90274 <gen_compspec_completions@@Base+0x544>
   901b4:	93407efc 	sxtw	x28, w23
   901b8:	39027fe0 	strb	w0, [sp, #159]
   901bc:	d0000280 	adrp	x0, e2000 <_IO_stdin_used@@Base+0x1db8>
   901c0:	91206000 	add	x0, x0, #0x818
   901c4:	f9004be0 	str	x0, [sp, #144]
   901c8:	14000015 	b	9021c <gen_compspec_completions@@Base+0x4ec>
   901cc:	f94037e1 	ldr	x1, [sp, #104]
   901d0:	8b1c02c0 	add	x0, x22, x28
[31m   901d4:	97fe7c63 	bl	2f360 <strcpy@plt>[0m
   901d8:	b9407be0 	ldr	w0, [sp, #120]
   901dc:	0b0002f7 	add	w23, w23, w0
--
   90684:	97fec08f 	bl	408c0 <make_word_list@@Base>
   90688:	295507e2 	ldp	w2, w1, [sp, #168]
   9068c:	aa0003f8 	mov	x24, x0
   90690:	11000442 	add	w2, w2, #0x1
   90694:	11000421 	add	w1, w1, #0x1
   90698:	291507e2 	stp	w2, w1, [sp, #168]
   9069c:	17fffe39 	b	8ff80 <gen_compspec_completions@@Base+0x250>
   906a0:	f94043e2 	ldr	x2, [sp, #128]
   906a4:	aa0303e0 	mov	x0, x3
   906a8:	aa1c03e1 	mov	x1, x28
   906ac:	f9003fe3 	str	x3, [sp, #120]
   906b0:	97fe79e0 	bl	2ee30 <strncmp@plt>
   906b4:	f9403fe3 	ldr	x3, [sp, #120]
   906b8:	35ffbf40 	cbnz	w0, 8fea0 <gen_compspec_completions@@Base+0x170>
   906bc:	aa0303e0 	mov	x0, x3
   906c0:	97fe78c0 	bl	2e9c0 <strlen@plt>
   906c4:	91000400 	add	x0, x0, #0x1
   906c8:	9400031e 	bl	91340 <xmalloc@@Base>
   906cc:	f9400741 	ldr	x1, [x26, #8]
   906d0:	f9400021 	ldr	x1, [x1]
[31m   906d4:	97fe7b23 	bl	2f360 <strcpy@plt>[0m
   906d8:	aa0003e3 	mov	x3, x0
   906dc:	17fffdf8 	b	8febc <gen_compspec_completions@@Base+0x18c>
--
   90d30:	f94057e3 	ldr	x3, [sp, #168]
   90d34:	f94047e2 	ldr	x2, [sp, #136]
   90d38:	f9400061 	ldr	x1, [x3]
   90d3c:	97fe7a09 	bl	2f560 <strncpy@plt>
   90d40:	a94687e2 	ldp	x2, x1, [sp, #104]
   90d44:	f9403fe3 	ldr	x3, [sp, #120]
   90d48:	f94047e0 	ldr	x0, [sp, #136]
   90d4c:	8b000060 	add	x0, x3, x0
   90d50:	97fe7a04 	bl	2f560 <strncpy@plt>
   90d54:	b00004e4 	adrp	x4, 12d000 <o_options@@Base+0x2220>
   90d58:	f94037e2 	ldr	x2, [sp, #104]
   90d5c:	f9455085 	ldr	x5, [x4, #2720]
   90d60:	f90037e5 	str	x5, [sp, #104]
   90d64:	a94893e0 	ldp	x0, x4, [sp, #136]
   90d68:	f9403fe3 	ldr	x3, [sp, #120]
   90d6c:	8b000081 	add	x1, x4, x0
   90d70:	8b000040 	add	x0, x2, x0
   90d74:	f94000a2 	ldr	x2, [x5]
   90d78:	8b000060 	add	x0, x3, x0
   90d7c:	8b010041 	add	x1, x2, x1
[31m   90d80:	97fe7978 	bl	2f360 <strcpy@plt>[0m
   90d84:	f9403be0 	ldr	x0, [sp, #112]
   90d88:	52802023 	mov	w3, #0x101                 	// #257
--

0000000000090f60 <compspec_copy@@Base>:
   90f60:	a9be7bfd 	stp	x29, x30, [sp, #-32]!
   90f64:	910003fd 	mov	x29, sp
   90f68:	a90153f3 	stp	x19, x20, [sp, #16]
   90f6c:	aa0003f3 	mov	x19, x0
   90f70:	d2800b00 	mov	x0, #0x58                  	// #88
   90f74:	940000f3 	bl	91340 <xmalloc@@Base>
   90f78:	aa0003f4 	mov	x20, x0
   90f7c:	52800021 	mov	w1, #0x1                   	// #1
   90f80:	f9400e60 	ldr	x0, [x19, #24]
   90f84:	f9400662 	ldr	x2, [x19, #8]
   90f88:	b9000281 	str	w1, [x20]
   90f8c:	f9400a61 	ldr	x1, [x19, #16]
   90f90:	a9008682 	stp	x2, x1, [x20, #8]
   90f94:	b40000c0 	cbz	x0, 90fac <compspec_copy@@Base+0x4c>
   90f98:	97fe768a 	bl	2e9c0 <strlen@plt>
   90f9c:	91000400 	add	x0, x0, #0x1
   90fa0:	940000e8 	bl	91340 <xmalloc@@Base>
   90fa4:	f9400e61 	ldr	x1, [x19, #24]
[31m   90fa8:	97fe78ee 	bl	2f360 <strcpy@plt>[0m
   90fac:	f9401261 	ldr	x1, [x19, #32]
   90fb0:	f9000e80 	str	x0, [x20, #24]
   90fb4:	b4000101 	cbz	x1, 90fd4 <compspec_copy@@Base+0x74>
   90fb8:	aa0103e0 	mov	x0, x1
   90fbc:	97fe7681 	bl	2e9c0 <strlen@plt>
   90fc0:	91000400 	add	x0, x0, #0x1
   90fc4:	940000df 	bl	91340 <xmalloc@@Base>
   90fc8:	f9401261 	ldr	x1, [x19, #32]
[31m   90fcc:	97fe78e5 	bl	2f360 <strcpy@plt>[0m
   90fd0:	aa0003e1 	mov	x1, x0
   90fd4:	f9401660 	ldr	x0, [x19, #40]
   90fd8:	f9001281 	str	x1, [x20, #32]
   90fdc:	b40000c0 	cbz	x0, 90ff4 <compspec_copy@@Base+0x94>
   90fe0:	97fe7678 	bl	2e9c0 <strlen@plt>
   90fe4:	91000400 	add	x0, x0, #0x1
   90fe8:	940000d6 	bl	91340 <xmalloc@@Base>
   90fec:	f9401661 	ldr	x1, [x19, #40]
[31m   90ff0:	97fe78dc 	bl	2f360 <strcpy@plt>[0m
   90ff4:	f9401a61 	ldr	x1, [x19, #48]
   90ff8:	f9001680 	str	x0, [x20, #40]
   90ffc:	b4000101 	cbz	x1, 9101c <compspec_copy@@Base+0xbc>
   91000:	aa0103e0 	mov	x0, x1
   91004:	97fe766f 	bl	2e9c0 <strlen@plt>
   91008:	91000400 	add	x0, x0, #0x1
   9100c:	940000cd 	bl	91340 <xmalloc@@Base>
   91010:	f9401a61 	ldr	x1, [x19, #48]
[31m   91014:	97fe78d3 	bl	2f360 <strcpy@plt>[0m
   91018:	aa0003e1 	mov	x1, x0
   9101c:	f9401e60 	ldr	x0, [x19, #56]
   91020:	f9001a81 	str	x1, [x20, #48]
   91024:	b40000c0 	cbz	x0, 9103c <compspec_copy@@Base+0xdc>
   91028:	97fe7666 	bl	2e9c0 <strlen@plt>
   9102c:	91000400 	add	x0, x0, #0x1
   91030:	940000c4 	bl	91340 <xmalloc@@Base>
   91034:	f9401e61 	ldr	x1, [x19, #56]
[31m   91038:	97fe78ca 	bl	2f360 <strcpy@plt>[0m
   9103c:	f9402261 	ldr	x1, [x19, #64]
   91040:	f9001e80 	str	x0, [x20, #56]
   91044:	b4000101 	cbz	x1, 91064 <compspec_copy@@Base+0x104>
   91048:	aa0103e0 	mov	x0, x1
   9104c:	97fe765d 	bl	2e9c0 <strlen@plt>
   91050:	91000400 	add	x0, x0, #0x1
   91054:	940000bb 	bl	91340 <xmalloc@@Base>
   91058:	f9402261 	ldr	x1, [x19, #64]
[31m   9105c:	97fe78c1 	bl	2f360 <strcpy@plt>[0m
   91060:	aa0003e1 	mov	x1, x0
   91064:	f9402660 	ldr	x0, [x19, #72]
   91068:	f9002281 	str	x1, [x20, #64]
   9106c:	b40000c0 	cbz	x0, 91084 <compspec_copy@@Base+0x124>
   91070:	97fe7654 	bl	2e9c0 <strlen@plt>
   91074:	91000400 	add	x0, x0, #0x1
   91078:	940000b2 	bl	91340 <xmalloc@@Base>
   9107c:	f9402661 	ldr	x1, [x19, #72]
[31m   91080:	97fe78b8 	bl	2f360 <strcpy@plt>[0m
   91084:	f9402a61 	ldr	x1, [x19, #80]
   91088:	f9002680 	str	x0, [x20, #72]
   9108c:	b4000101 	cbz	x1, 910ac <compspec_copy@@Base+0x14c>
   91090:	aa0103e0 	mov	x0, x1
   91094:	97fe764b 	bl	2e9c0 <strlen@plt>
   91098:	91000400 	add	x0, x0, #0x1
   9109c:	940000a9 	bl	91340 <xmalloc@@Base>
   910a0:	f9402a61 	ldr	x1, [x19, #80]
[31m   910a4:	97fe78af 	bl	2f360 <strcpy@plt>[0m
   910a8:	aa0003e1 	mov	x1, x0
   910ac:	f9002a81 	str	x1, [x20, #80]
--
   9121c:	97ff8bf9 	bl	74200 <hash_insert@@Base>
   91220:	aa0003f4 	mov	x20, x0
   91224:	f9400800 	ldr	x0, [x0, #16]
   91228:	b4000180 	cbz	x0, 91258 <progcomp_insert@@Base+0x78>
   9122c:	b9400001 	ldr	w1, [x0]
   91230:	51000421 	sub	w1, w1, #0x1
   91234:	b9000001 	str	w1, [x0]
   91238:	35000041 	cbnz	w1, 91240 <progcomp_insert@@Base+0x60>
   9123c:	97ffff0d 	bl	90e70 <programmable_completions@@Base+0x430>
   91240:	f94013f5 	ldr	x21, [sp, #32]
   91244:	f9000a93 	str	x19, [x20, #16]
   91248:	52800020 	mov	w0, #0x1                   	// #1
   9124c:	a94153f3 	ldp	x19, x20, [sp, #16]
   91250:	a8c37bfd 	ldp	x29, x30, [sp], #48
   91254:	d65f03c0 	ret
   91258:	aa1503e0 	mov	x0, x21
   9125c:	97fe75d9 	bl	2e9c0 <strlen@plt>
   91260:	91000400 	add	x0, x0, #0x1
   91264:	94000037 	bl	91340 <xmalloc@@Base>
   91268:	aa1503e1 	mov	x1, x21
[31m   9126c:	97fe783d 	bl	2f360 <strcpy@plt>[0m
   91270:	f9000680 	str	x0, [x20, #8]
   91274:	52800020 	mov	w0, #0x1                   	// #1
--
   93f1c:	a9025bf5 	stp	x21, x22, [sp, #32]
   93f20:	1a9f07f5 	cset	w21, ne  // ne = any
   93f24:	91012296 	add	x22, x20, #0x48
   93f28:	f9001bf7 	str	x23, [sp, #48]
   93f2c:	2a0103f7 	mov	w23, w1
   93f30:	f100027f 	cmp	x19, #0x0
   93f34:	1a9f06a0 	csinc	w0, w21, wzr, eq  // eq = none
   93f38:	34000360 	cbz	w0, 93fa4 <remember_args@@Base+0xa4>
   93f3c:	f9400680 	ldr	x0, [x20, #8]
   93f40:	b4000060 	cbz	x0, 93f4c <remember_args@@Base+0x4c>
   93f44:	97fe6cab 	bl	2f1f0 <free@plt>
   93f48:	f900069f 	str	xzr, [x20, #8]
   93f4c:	b40004d3 	cbz	x19, 93fe4 <remember_args@@Base+0xe4>
   93f50:	f9400660 	ldr	x0, [x19, #8]
   93f54:	f9400000 	ldr	x0, [x0]
   93f58:	97fe6a9a 	bl	2e9c0 <strlen@plt>
   93f5c:	91000400 	add	x0, x0, #0x1
   93f60:	97fff4f8 	bl	91340 <xmalloc@@Base>
   93f64:	f9400661 	ldr	x1, [x19, #8]
   93f68:	f9400021 	ldr	x1, [x1]
[31m   93f6c:	97fe6cfd 	bl	2f360 <strcpy@plt>[0m
   93f70:	f9400273 	ldr	x19, [x19]
   93f74:	f9000680 	str	x0, [x20, #8]
--
   94354:	d65f03c0 	ret
   94358:	d503201f 	nop
   9435c:	d503201f 	nop

0000000000094360 <set_working_directory@@Base>:
   94360:	a9be7bfd 	stp	x29, x30, [sp, #-32]!
   94364:	910003fd 	mov	x29, sp
   94368:	a90153f3 	stp	x19, x20, [sp, #16]
   9436c:	b0000533 	adrp	x19, 139000 <dircomplete_expand@@Base+0x68>
   94370:	91078261 	add	x1, x19, #0x1e0
   94374:	aa0003f4 	mov	x20, x0
   94378:	f9400820 	ldr	x0, [x1, #16]
   9437c:	b4000040 	cbz	x0, 94384 <set_working_directory@@Base+0x24>
   94380:	97fe6b9c 	bl	2f1f0 <free@plt>
   94384:	91078273 	add	x19, x19, #0x1e0
   94388:	aa1403e0 	mov	x0, x20
   9438c:	97fe698d 	bl	2e9c0 <strlen@plt>
   94390:	91000400 	add	x0, x0, #0x1
   94394:	97fff3eb 	bl	91340 <xmalloc@@Base>
   94398:	aa1403e1 	mov	x1, x20
[31m   9439c:	97fe6bf1 	bl	2f360 <strcpy@plt>[0m
   943a0:	f9000a60 	str	x0, [x19, #16]
   943a4:	a94153f3 	ldp	x19, x20, [sp, #16]
--
   94cf0:	f9400018 	ldr	x24, [x0]
   94cf4:	b40035b8 	cbz	x24, 953a8 <initialize_shell_builtins@@Base+0x7b8>
   94cf8:	35007513 	cbnz	w19, 95b98 <initialize_shell_builtins@@Base+0xfa8>
   94cfc:	90000300 	adrp	x0, f4000 <patch_level@@Base+0xf94c>
   94d00:	9125c000 	add	x0, x0, #0x970
   94d04:	f90053e0 	str	x0, [sp, #160]
   94d08:	b00004c0 	adrp	x0, 12d000 <o_options@@Base+0x2220>
   94d0c:	290e7ffb 	stp	w27, wzr, [sp, #112]
   94d10:	f9429c00 	ldr	x0, [x0, #1336]
   94d14:	f9004be0 	str	x0, [sp, #144]
   94d18:	b9009fff 	str	wzr, [sp, #156]
   94d1c:	b900bbfa 	str	w26, [sp, #184]
   94d20:	f9400700 	ldr	x0, [x24, #8]
   94d24:	b9007bff 	str	wzr, [sp, #120]
   94d28:	f9400000 	ldr	x0, [x0]
   94d2c:	97fe6725 	bl	2e9c0 <strlen@plt>
   94d30:	91000400 	add	x0, x0, #0x1
   94d34:	97fff183 	bl	91340 <xmalloc@@Base>
   94d38:	f9400701 	ldr	x1, [x24, #8]
   94d3c:	f9400021 	ldr	x1, [x1]
[31m   94d40:	97fe6988 	bl	2f360 <strcpy@plt>[0m
   94d44:	aa0003fc 	mov	x28, x0
   94d48:	b00004c1 	adrp	x1, 12d000 <o_options@@Base+0x2220>
--
   9546c:	34000dc1 	cbz	w1, 95624 <initialize_shell_builtins@@Base+0xa34>
   95470:	97fee5d8 	bl	4ebd0 <find_global_variable@@Base>
   95474:	b5001080 	cbnz	x0, 95684 <initialize_shell_builtins@@Base+0xa94>
   95478:	f9400680 	ldr	x0, [x20, #8]
   9547c:	97fe6551 	bl	2e9c0 <strlen@plt>
   95480:	aa0003fb 	mov	x27, x0
   95484:	b4000935 	cbz	x21, 955a8 <initialize_shell_builtins@@Base+0x9b8>
   95488:	52800b60 	mov	w0, #0x5b                  	// #91
   9548c:	390002a0 	strb	w0, [x21]
   95490:	aa1503e0 	mov	x0, x21
   95494:	97fe654b 	bl	2e9c0 <strlen@plt>
   95498:	0b1b001b 	add	w27, w0, w27
   9549c:	aa1703e0 	mov	x0, x23
   954a0:	97fe6548 	bl	2e9c0 <strlen@plt>
   954a4:	11000b61 	add	w1, w27, #0x2
   954a8:	91000400 	add	x0, x0, #0x1
   954ac:	8b21c000 	add	x0, x0, w1, sxtw
   954b0:	97ffefa4 	bl	91340 <xmalloc@@Base>
   954b4:	aa0003f6 	mov	x22, x0
   954b8:	f9400681 	ldr	x1, [x20, #8]
[31m   954bc:	97fe67a9 	bl	2f360 <strcpy@plt>[0m
   954c0:	f9400680 	ldr	x0, [x20, #8]
   954c4:	97fe653f 	bl	2e9c0 <strlen@plt>
   954c8:	8b0002c0 	add	x0, x22, x0
   954cc:	aa1503e1 	mov	x1, x21
[31m   954d0:	97fe67a4 	bl	2f360 <strcpy@plt>[0m
   954d4:	340002f3 	cbz	w19, 95530 <initialize_shell_builtins@@Base+0x940>
   954d8:	b9406be1 	ldr	w1, [sp, #104]
--
   9557c:	b90087ff 	str	wzr, [sp, #132]
   95580:	aa1c03e0 	mov	x0, x28
   95584:	97fea5f3 	bl	3ed50 <legal_identifier@@Base>
   95588:	35ffc860 	cbnz	w0, 94e94 <initialize_shell_builtins@@Base+0x2a4>
   9558c:	aa1c03e0 	mov	x0, x28
   95590:	97fff8d4 	bl	938e0 <sh_invalidid@@Base>
   95594:	17ffff68 	b	95334 <initialize_shell_builtins@@Base+0x744>
   95598:	b0000277 	adrp	x23, e2000 <_IO_stdin_used@@Base+0x1db8>
   9559c:	912062f7 	add	x23, x23, #0x818
   955a0:	b9006bff 	str	wzr, [sp, #104]
   955a4:	17fffe0d 	b	94dd8 <initialize_shell_builtins@@Base+0x1e8>
   955a8:	aa1703e0 	mov	x0, x23
   955ac:	97fe6505 	bl	2e9c0 <strlen@plt>
   955b0:	11000b61 	add	w1, w27, #0x2
   955b4:	93407c21 	sxtw	x1, w1
   955b8:	91000421 	add	x1, x1, #0x1
   955bc:	8b000020 	add	x0, x1, x0
   955c0:	97ffef60 	bl	91340 <xmalloc@@Base>
   955c4:	aa0003f6 	mov	x22, x0
   955c8:	f9400681 	ldr	x1, [x20, #8]
[31m   955cc:	97fe6765 	bl	2f360 <strcpy@plt>[0m
   955d0:	17ffffc1 	b	954d4 <initialize_shell_builtins@@Base+0x8e4>
   955d4:	aa1703e1 	mov	x1, x23
   955d8:	aa1503e0 	mov	x0, x21
[31m   955dc:	97fe6761 	bl	2f360 <strcpy@plt>[0m
   955e0:	aa1603e0 	mov	x0, x22
   955e4:	52800001 	mov	w1, #0x0                   	// #0
--
   9617c:	291a1bf3 	stp	w19, w6, [sp, #208]
   96180:	97fe641c 	bl	2f1f0 <free@plt>
   96184:	f9400318 	ldr	x24, [x24]
   96188:	b5ff5cd8 	cbnz	x24, 94d20 <initialize_shell_builtins@@Base+0x130>
   9618c:	17fffba7 	b	95028 <initialize_shell_builtins@@Base+0x438>
   96190:	f94000a0 	ldr	x0, [x5]
   96194:	f90037e5 	str	x5, [sp, #104]
   96198:	b9007be6 	str	w6, [sp, #120]
   9619c:	97feea41 	bl	50aa0 <find_tempenv_variable@@Base>
   961a0:	b9407be6 	ldr	w6, [sp, #120]
   961a4:	f94037e5 	ldr	x5, [sp, #104]
   961a8:	b4000480 	cbz	x0, 96238 <initialize_shell_builtins@@Base+0x1648>
   961ac:	f94004a0 	ldr	x0, [x5, #8]
   961b0:	b40014c0 	cbz	x0, 96448 <initialize_shell_builtins@@Base+0x1858>
   961b4:	b9007be6 	str	w6, [sp, #120]
   961b8:	97fe6202 	bl	2e9c0 <strlen@plt>
   961bc:	91000400 	add	x0, x0, #0x1
   961c0:	97ffec60 	bl	91340 <xmalloc@@Base>
   961c4:	f94037e5 	ldr	x5, [sp, #104]
   961c8:	f94004a1 	ldr	x1, [x5, #8]
[31m   961cc:	97fe6465 	bl	2f360 <strcpy@plt>[0m
   961d0:	aa0003f5 	mov	x21, x0
   961d4:	b9407be6 	ldr	w6, [sp, #120]
--
   96a9c:	a9001404 	stp	x4, x5, [x0]
   96aa0:	b9406be1 	ldr	w1, [sp, #104]
   96aa4:	a9411764 	ldp	x4, x5, [x27, #16]
   96aa8:	a9011404 	stp	x4, x5, [x0, #16]
   96aac:	11000421 	add	w1, w1, #0x1
   96ab0:	a9420f62 	ldp	x2, x3, [x27, #32]
   96ab4:	a9020c02 	stp	x2, x3, [x0, #32]
   96ab8:	b9006be1 	str	w1, [sp, #104]
   96abc:	f9400294 	ldr	x20, [x20]
   96ac0:	b4002bd4 	cbz	x20, 97038 <enable_builtin@@Base+0x6f8>
   96ac4:	f9400680 	ldr	x0, [x20, #8]
   96ac8:	f9400016 	ldr	x22, [x0]
   96acc:	aa1603e0 	mov	x0, x22
   96ad0:	97fe5fbc 	bl	2e9c0 <strlen@plt>
   96ad4:	11002001 	add	w1, w0, #0x8
   96ad8:	93407c15 	sxtw	x21, w0
   96adc:	93407c20 	sxtw	x0, w1
   96ae0:	97ffea18 	bl	91340 <xmalloc@@Base>
   96ae4:	aa0003fc 	mov	x28, x0
   96ae8:	aa1603e1 	mov	x1, x22
[31m   96aec:	97fe621d 	bl	2f360 <strcpy@plt>[0m
   96af0:	d28e6be2 	mov	x2, #0x735f                	// #29535
   96af4:	f2ae4e82 	movk	x2, #0x7274, lsl #16
   96af8:	f2cc6ea2 	movk	x2, #0x6375, lsl #32
   96afc:	f2e00e82 	movk	x2, #0x74, lsl #48
   96b00:	f8356b82 	str	x2, [x28, x21]
   96b04:	aa1c03e1 	mov	x1, x28
   96b08:	aa1803e0 	mov	x0, x24
   96b0c:	97fe60a1 	bl	2ed90 <dlsym@plt>
   96b10:	aa0003fb 	mov	x27, x0
   96b14:	b4002080 	cbz	x0, 96f24 <enable_builtin@@Base+0x5e4>
   96b18:	aa1c03e0 	mov	x0, x28
   96b1c:	91003ea1 	add	x1, x21, #0xf
   96b20:	97ffea1c 	bl	91390 <xrealloc@@Base>
   96b24:	aa0003fc 	mov	x28, x0
   96b28:	aa1603e1 	mov	x1, x22
[31m   96b2c:	97fe620d 	bl	2f360 <strcpy@plt>[0m
   96b30:	8b150380 	add	x0, x28, x21
   96b34:	f9400321 	ldr	x1, [x25]
--
   96d88:	b9400021 	ldr	w1, [x1]
   96d8c:	7100003f 	cmp	w1, #0x0
   96d90:	54001b6d 	b.le	970fc <enable_builtin@@Base+0x7bc>
   96d94:	f00004b6 	adrp	x22, 12d000 <o_options@@Base+0x2220>
   96d98:	51000423 	sub	w3, w1, #0x1
   96d9c:	52800606 	mov	w6, #0x30                  	// #48
   96da0:	f947dec1 	ldr	x1, [x22, #4024]
   96da4:	f9400021 	ldr	x1, [x1]
   96da8:	91016022 	add	x2, x1, #0x58
   96dac:	9100a021 	add	x1, x1, #0x28
   96db0:	9ba60863 	umaddl	x3, w3, w6, x2
   96db4:	d503201f 	nop
   96db8:	f8430422 	ldr	x2, [x1], #48
   96dbc:	eb02037f 	cmp	x27, x2
   96dc0:	1a9c179c 	cinc	w28, w28, eq  // eq = none
   96dc4:	eb01007f 	cmp	x3, x1
   96dc8:	54ffff81 	b.ne	96db8 <enable_builtin@@Base+0x478>  // b.any
   96dcc:	97ffe95d 	bl	91340 <xmalloc@@Base>
   96dd0:	aa0003f9 	mov	x25, x0
   96dd4:	aa1703e1 	mov	x1, x23
[31m   96dd8:	97fe6162 	bl	2f360 <strcpy@plt>[0m
   96ddc:	f9403be0 	ldr	x0, [sp, #112]
   96de0:	8b1a0325 	add	x5, x25, x26
--
   970b8:	32000023 	orr	w3, w1, #0x1
   970bc:	b9400042 	ldr	w2, [x2]
   970c0:	34000042 	cbz	w2, 970c8 <enable_builtin@@Base+0x788>
   970c4:	36000061 	tbz	w1, #0, 970d0 <enable_builtin@@Base+0x790>
   970c8:	b9001003 	str	w3, [x0, #16]
   970cc:	17ffffed 	b	97080 <enable_builtin@@Base+0x740>
   970d0:	d2800000 	mov	x0, #0x0                   	// #0
   970d4:	97fff2cb 	bl	93c00 <sh_restricted@@Base>
   970d8:	f9400680 	ldr	x0, [x20, #8]
   970dc:	52800035 	mov	w21, #0x1                   	// #1
   970e0:	f9400000 	ldr	x0, [x0]
   970e4:	97fff2db 	bl	93c50 <sh_notbuiltin@@Base>
   970e8:	17ffffea 	b	97090 <enable_builtin@@Base+0x750>
   970ec:	aa1703e0 	mov	x0, x23
   970f0:	52800035 	mov	w21, #0x1                   	// #1
   970f4:	97fff2d7 	bl	93c50 <sh_notbuiltin@@Base>
   970f8:	17ffff6f 	b	96eb4 <enable_builtin@@Base+0x574>
   970fc:	97ffe891 	bl	91340 <xmalloc@@Base>
   97100:	aa0003fc 	mov	x28, x0
   97104:	aa1703e1 	mov	x1, x23
[31m   97108:	97fe6096 	bl	2f360 <strcpy@plt>[0m
   9710c:	f9403be1 	ldr	x1, [sp, #112]
   97110:	8b1a0385 	add	x5, x28, x26
--
   97b84:	d00004b6 	adrp	x22, 12d000 <o_options@@Base+0x2220>
   97b88:	d2800001 	mov	x1, #0x0                   	// #0
   97b8c:	90000000 	adrp	x0, 97000 <enable_builtin@@Base+0x6c0>
   97b90:	9129c000 	add	x0, x0, #0xa70
   97b94:	97ff80c3 	bl	77ea0 <add_unwind_protect@@Base>
   97b98:	f941f6c0 	ldr	x0, [x22, #1000]
   97b9c:	52800081 	mov	w1, #0x4                   	// #4
   97ba0:	97ff8130 	bl	78060 <unwind_protect_mem@@Base>
   97ba4:	d00004a0 	adrp	x0, 12d000 <o_options@@Base+0x2220>
   97ba8:	f943c000 	ldr	x0, [x0, #1920]
   97bac:	b9400000 	ldr	w0, [x0]
   97bb0:	35000640 	cbnz	w0, 97c78 <source_file@@Base+0x278>
   97bb4:	b00004b4 	adrp	x20, 12c000 <o_options@@Base+0x1220>
   97bb8:	f9477a94 	ldr	x20, [x20, #3824]
   97bbc:	f9400280 	ldr	x0, [x20]
   97bc0:	b4000140 	cbz	x0, 97be8 <source_file@@Base+0x1e8>
   97bc4:	97fe5b7f 	bl	2e9c0 <strlen@plt>
   97bc8:	91000400 	add	x0, x0, #0x1
   97bcc:	97ffe5dd 	bl	91340 <xmalloc@@Base>
   97bd0:	f9400281 	ldr	x1, [x20]
[31m   97bd4:	97fe5de3 	bl	2f360 <strcpy@plt>[0m
   97bd8:	aa0003e1 	mov	x1, x0
   97bdc:	90000000 	adrp	x0, 97000 <enable_builtin@@Base+0x6c0>
--
   98a7c:	97ff7d79 	bl	78060 <unwind_protect_mem@@Base>
   98a80:	b9400261 	ldr	w1, [x19]
   98a84:	aa1403e0 	mov	x0, x20
   98a88:	11000421 	add	w1, w1, #0x1
   98a8c:	b9000261 	str	w1, [x19]
   98a90:	97fe57e4 	bl	2ea20 <_setjmp@plt>
   98a94:	b9004be0 	str	w0, [sp, #72]
   98a98:	17ffffca 	b	989c0 <evalstring@@Base+0x40>
   98a9c:	d503201f 	nop
   98aa0:	a9be7bfd 	stp	x29, x30, [sp, #-32]!
   98aa4:	910003fd 	mov	x29, sp
   98aa8:	a90153f3 	stp	x19, x20, [sp, #16]
   98aac:	aa0003f4 	mov	x20, x0
   98ab0:	97fe57c4 	bl	2e9c0 <strlen@plt>
   98ab4:	91000800 	add	x0, x0, #0x2
   98ab8:	97ffe222 	bl	91340 <xmalloc@@Base>
   98abc:	528005a2 	mov	w2, #0x2d                  	// #45
   98ac0:	aa0003f3 	mov	x19, x0
   98ac4:	38001402 	strb	w2, [x0], #1
   98ac8:	aa1403e1 	mov	x1, x20
[31m   98acc:	97fe5a25 	bl	2f360 <strcpy@plt>[0m
   98ad0:	aa1303e0 	mov	x0, x19
   98ad4:	a94153f3 	ldp	x19, x20, [sp, #16]
--
   98c20:	aa1903e0 	mov	x0, x25
   98c24:	97fe9d2b 	bl	400d0 <full_pathname@@Base>
   98c28:	aa0003fa 	mov	x26, x0
   98c2c:	b40012c0 	cbz	x0, 98e84 <exec_builtin@@Base+0x3a4>
   98c30:	f9400280 	ldr	x0, [x20]
   98c34:	eb19001f 	cmp	x0, x25
   98c38:	54000060 	b.eq	98c44 <exec_builtin@@Base+0x164>  // b.none
   98c3c:	aa1903e0 	mov	x0, x25
   98c40:	97fe596c 	bl	2f1f0 <free@plt>
   98c44:	b4000f38 	cbz	x24, 98e28 <exec_builtin@@Base+0x348>
   98c48:	f9400280 	ldr	x0, [x20]
   98c4c:	97fe5969 	bl	2f1f0 <free@plt>
   98c50:	aa1803e0 	mov	x0, x24
   98c54:	340011d5 	cbz	w21, 98e8c <exec_builtin@@Base+0x3ac>
   98c58:	97ffff92 	bl	98aa0 <evalstring@@Base+0x120>
   98c5c:	f9000280 	str	x0, [x20]
   98c60:	97fe5758 	bl	2e9c0 <strlen@plt>
   98c64:	91000400 	add	x0, x0, #0x1
   98c68:	97ffe1b6 	bl	91340 <xmalloc@@Base>
   98c6c:	f9400281 	ldr	x1, [x20]
[31m   98c70:	97fe59bc 	bl	2f360 <strcpy@plt>[0m
   98c74:	f942eed6 	ldr	x22, [x22, #1496]
   98c78:	f90002c0 	str	x0, [x22]
--
   98e4c:	17ffff4d 	b	98b80 <exec_builtin@@Base+0xa0>
   98e50:	f9400280 	ldr	x0, [x20]
   98e54:	52800021 	mov	w1, #0x1                   	// #1
   98e58:	97ffccda 	bl	8c1c0 <search_for_command@@Base>
   98e5c:	aa0003f9 	mov	x25, x0
   98e60:	17ffff6f 	b	98c1c <exec_builtin@@Base+0x13c>
   98e64:	52800020 	mov	w0, #0x1                   	// #1
   98e68:	97fee4be 	bl	52160 <adjust_shell_level@@Base>
   98e6c:	17ffffac 	b	98d1c <exec_builtin@@Base+0x23c>
   98e70:	aa1a03e0 	mov	x0, x26
   98e74:	97fef497 	bl	560d0 <file_error@@Base>
   98e78:	17ffffbc 	b	98d68 <exec_builtin@@Base+0x288>
   98e7c:	97ff1d8d 	bl	604b0 <end_job_control@@Base>
   98e80:	17ffff93 	b	98ccc <exec_builtin@@Base+0x1ec>
   98e84:	aa1903fa 	mov	x26, x25
   98e88:	17ffff6f 	b	98c44 <exec_builtin@@Base+0x164>
   98e8c:	97fe56cd 	bl	2e9c0 <strlen@plt>
   98e90:	91000400 	add	x0, x0, #0x1
   98e94:	97ffe12b 	bl	91340 <xmalloc@@Base>
   98e98:	aa1803e1 	mov	x1, x24
[31m   98e9c:	97fe5931 	bl	2f360 <strcpy@plt>[0m
   98ea0:	17ffff6f 	b	98c5c <exec_builtin@@Base+0x17c>
   98ea4:	f9400280 	ldr	x0, [x20]
--
   996d8:	b400009c 	cbz	x28, 996e8 <fc_builtin@@Base+0x188>
   996dc:	39400380 	ldrb	w0, [x28]
   996e0:	7100b41f 	cmp	w0, #0x2d
   996e4:	54000fe0 	b.eq	998e0 <fc_builtin@@Base+0x380>  // b.none
   996e8:	34001514 	cbz	w20, 99988 <fc_builtin@@Base+0x428>
   996ec:	d2800015 	mov	x21, #0x0                   	// #0
   996f0:	b5000398 	cbnz	x24, 99760 <fc_builtin@@Base+0x200>
   996f4:	140001e5 	b	99e88 <fc_builtin@@Base+0x928>
   996f8:	3800167f 	strb	wzr, [x19], #1
   996fc:	d2800300 	mov	x0, #0x18                  	// #24
   99700:	97ffdf10 	bl	91340 <xmalloc@@Base>
   99704:	aa0003f4 	mov	x20, x0
   99708:	f9400701 	ldr	x1, [x24, #8]
   9970c:	f9400020 	ldr	x0, [x1]
   99710:	f900029f 	str	xzr, [x20]
   99714:	97fe54ab 	bl	2e9c0 <strlen@plt>
   99718:	91000400 	add	x0, x0, #0x1
   9971c:	97ffdf09 	bl	91340 <xmalloc@@Base>
   99720:	f9400701 	ldr	x1, [x24, #8]
   99724:	f9400021 	ldr	x1, [x1]
[31m   99728:	97fe570e 	bl	2f360 <strcpy@plt>[0m
   9972c:	f9000680 	str	x0, [x20, #8]
   99730:	aa1303e0 	mov	x0, x19
   99734:	97fe54a3 	bl	2e9c0 <strlen@plt>
   99738:	91000400 	add	x0, x0, #0x1
   9973c:	97ffdf01 	bl	91340 <xmalloc@@Base>
   99740:	aa1303e1 	mov	x1, x19
[31m   99744:	97fe5707 	bl	2f360 <strcpy@plt>[0m
   99748:	f9000a80 	str	x0, [x20, #16]
   9974c:	b4000055 	cbz	x21, 99754 <fc_builtin@@Base+0x1f4>
--
   99774:	b5fffc20 	cbnz	x0, 996f8 <fc_builtin@@Base+0x198>
   99778:	b5000bb5 	cbnz	x21, 998ec <fc_builtin@@Base+0x38c>
   9977c:	940100c1 	bl	d9a80 <history_list@@Base>
   99780:	aa0003f5 	mov	x21, x0
   99784:	d2800014 	mov	x20, #0x0                   	// #0
   99788:	f9400700 	ldr	x0, [x24, #8]
   9978c:	f9400013 	ldr	x19, [x0]
   99790:	b4000eb5 	cbz	x21, 99964 <fc_builtin@@Base+0x404>
   99794:	aa1303e0 	mov	x0, x19
   99798:	aa1503e1 	mov	x1, x21
   9979c:	97fffed1 	bl	992e0 <logout_builtin@@Base+0xb0>
   997a0:	37f80e20 	tbnz	w0, #31, 99964 <fc_builtin@@Base+0x404>
   997a4:	93407c13 	sxtw	x19, w0
   997a8:	f8737aa0 	ldr	x0, [x21, x19, lsl #3]
   997ac:	f9400000 	ldr	x0, [x0]
   997b0:	97fe5484 	bl	2e9c0 <strlen@plt>
   997b4:	91000400 	add	x0, x0, #0x1
   997b8:	97ffdee2 	bl	91340 <xmalloc@@Base>
   997bc:	f8737aa1 	ldr	x1, [x21, x19, lsl #3]
   997c0:	f9400021 	ldr	x1, [x1]
[31m   997c4:	97fe56e7 	bl	2f360 <strcpy@plt>[0m
   997c8:	aa0003f8 	mov	x24, x0
   997cc:	b40021f4 	cbz	x20, 99c08 <fc_builtin@@Base+0x6a8>
   997d0:	97fe547c 	bl	2e9c0 <strlen@plt>
   997d4:	91000400 	add	x0, x0, #0x1
   997d8:	97ffdeda 	bl	91340 <xmalloc@@Base>
   997dc:	aa1403f5 	mov	x21, x20
   997e0:	aa1803e1 	mov	x1, x24
[31m   997e4:	97fe56df 	bl	2f360 <strcpy@plt>[0m
   997e8:	aa0003f3 	mov	x19, x0
   997ec:	d503201f 	nop
--
   9da38:	17ffffec 	b	9d9e8 <dirs_builtin@@Base+0x3e8>
   9da3c:	aa1303e0 	mov	x0, x19
   9da40:	97fe87f0 	bl	3fa00 <polite_directory_format@@Base>
   9da44:	aa0003e3 	mov	x3, x0
   9da48:	17ffff93 	b	9d894 <dirs_builtin@@Base+0x294>
   9da4c:	900002d3 	adrp	x19, f5000 <patch_level@@Base+0x1094c>
   9da50:	910fe273 	add	x19, x19, #0x3f8
   9da54:	aa1303e1 	mov	x1, x19
   9da58:	528000a2 	mov	w2, #0x5                   	// #5
   9da5c:	97fe46a5 	bl	2f4f0 <dcgettext@plt>
   9da60:	97fe43d8 	bl	2e9c0 <strlen@plt>
   9da64:	91000400 	add	x0, x0, #0x1
   9da68:	97ffce36 	bl	91340 <xmalloc@@Base>
   9da6c:	528000a2 	mov	w2, #0x5                   	// #5
   9da70:	aa1303e1 	mov	x1, x19
   9da74:	aa0003f3 	mov	x19, x0
   9da78:	d2800000 	mov	x0, #0x0                   	// #0
   9da7c:	97fe469d 	bl	2f4f0 <dcgettext@plt>
   9da80:	aa0003e1 	mov	x1, x0
   9da84:	aa1303e0 	mov	x0, x19
[31m   9da88:	97fe4636 	bl	2f360 <strcpy@plt>[0m
   9da8c:	aa0003f3 	mov	x19, x0
   9da90:	17ffff7e 	b	9d888 <dirs_builtin@@Base+0x288>
--
   9de80:	54fffec1 	b.ne	9de58 <pushd_builtin@@Base+0x348>  // b.any
   9de84:	f9002bff 	str	xzr, [sp, #80]
   9de88:	52800013 	mov	w19, #0x0                   	// #0
   9de8c:	35fff4f6 	cbnz	w22, 9dd28 <pushd_builtin@@Base+0x218>
   9de90:	52800033 	mov	w19, #0x1                   	// #1
   9de94:	b4fff4b4 	cbz	x20, 9dd28 <pushd_builtin@@Base+0x218>
   9de98:	aa1403e0 	mov	x0, x20
   9de9c:	17ffffa1 	b	9dd20 <pushd_builtin@@Base+0x210>
   9dea0:	aa1603e0 	mov	x0, x22
   9dea4:	52800013 	mov	w19, #0x0                   	// #0
   9dea8:	97fe44d2 	bl	2f1f0 <free@plt>
   9deac:	17ffff80 	b	9dcac <pushd_builtin@@Base+0x19c>
   9deb0:	aa0003f6 	mov	x22, x0
   9deb4:	f9400660 	ldr	x0, [x19, #8]
   9deb8:	f9400000 	ldr	x0, [x0]
   9debc:	97fe42c1 	bl	2e9c0 <strlen@plt>
   9dec0:	91000400 	add	x0, x0, #0x1
   9dec4:	97ffcd1f 	bl	91340 <xmalloc@@Base>
   9dec8:	f9400661 	ldr	x1, [x19, #8]
   9decc:	f9400021 	ldr	x1, [x1]
[31m   9ded0:	97fe4524 	bl	2f360 <strcpy@plt>[0m
   9ded4:	aa0003f4 	mov	x20, x0
   9ded8:	f94023f9 	ldr	x25, [sp, #64]
--
   9e2e8:	f90013f5 	str	x21, [sp, #32]
   9e2ec:	f00004c1 	adrp	x1, 139000 <dircomplete_expand@@Base+0x68>
   9e2f0:	910a6035 	add	x21, x1, #0x298
   9e2f4:	b9429821 	ldr	w1, [x1, #664]
   9e2f8:	6b00003f 	cmp	w1, w0
   9e2fc:	540000aa 	b.ge	9e310 <set_dirstack_element@@Base+0x50>  // b.tcont
   9e300:	f94013f5 	ldr	x21, [sp, #32]
   9e304:	a94153f3 	ldp	x19, x20, [sp, #16]
   9e308:	a8c37bfd 	ldp	x29, x30, [sp], #48
   9e30c:	d65f03c0 	ret
   9e310:	f94006a1 	ldr	x1, [x21, #8]
   9e314:	93407c13 	sxtw	x19, w0
   9e318:	f8737820 	ldr	x0, [x1, x19, lsl #3]
   9e31c:	97fe43b5 	bl	2f1f0 <free@plt>
   9e320:	aa1403e0 	mov	x0, x20
   9e324:	97fe41a7 	bl	2e9c0 <strlen@plt>
   9e328:	91000400 	add	x0, x0, #0x1
   9e32c:	97ffcc05 	bl	91340 <xmalloc@@Base>
   9e330:	f94006b5 	ldr	x21, [x21, #8]
   9e334:	aa1403e1 	mov	x1, x20
[31m   9e338:	97fe440a 	bl	2f360 <strcpy@plt>[0m
   9e33c:	f8337aa0 	str	x0, [x21, x19, lsl #3]
   9e340:	a94153f3 	ldp	x19, x20, [sp, #16]
--
   9fab4:	b9400000 	ldr	w0, [x0]
   9fab8:	340000a0 	cbz	w0, 9facc <read_builtin@@Base+0x142c>
   9fabc:	d00004d4 	adrp	x20, 139000 <dircomplete_expand@@Base+0x68>
   9fac0:	910ac294 	add	x20, x20, #0x2b0
   9fac4:	b9403a80 	ldr	w0, [x20, #56]
   9fac8:	35001480 	cbnz	w0, 9fd58 <read_builtin@@Base+0x16b8>
   9facc:	d0000460 	adrp	x0, 12d000 <o_options@@Base+0x2220>
   9fad0:	52800034 	mov	w20, #0x1                   	// #1
   9fad4:	f9456c00 	ldr	x0, [x0, #2776]
   9fad8:	b9400001 	ldr	w1, [x0]
   9fadc:	34ffaaa1 	cbz	w1, 9f030 <read_builtin@@Base+0x990>
   9fae0:	b9400000 	ldr	w0, [x0]
   9fae4:	97ff67ab 	bl	79990 <termsig_handler@@Base>
   9fae8:	17fffd52 	b	9f030 <read_builtin@@Base+0x990>
   9faec:	f940c7e0 	ldr	x0, [sp, #392]
   9faf0:	97fe3bb4 	bl	2e9c0 <strlen@plt>
   9faf4:	91000400 	add	x0, x0, #0x1
   9faf8:	97ffc612 	bl	91340 <xmalloc@@Base>
   9fafc:	aa0003f3 	mov	x19, x0
   9fb00:	f940c7e1 	ldr	x1, [sp, #392]
[31m   9fb04:	97fe3e17 	bl	2f360 <strcpy@plt>[0m
   9fb08:	17fffbaa 	b	9e9b0 <read_builtin@@Base+0x310>
   9fb0c:	b9008fff 	str	wzr, [sp, #140]
--
   a08b4:	d503201f 	nop
   a08b8:	b00002a1 	adrp	x1, f5000 <patch_level@@Base+0x1094c>
   a08bc:	91156033 	add	x19, x1, #0x558
   a08c0:	11000720 	add	w0, w25, #0x1
   a08c4:	9114835a 	add	x26, x26, #0x520
   a08c8:	52800018 	mov	w24, #0x0                   	// #0
   a08cc:	52800756 	mov	w22, #0x3a                  	// #58
   a08d0:	93407c00 	sxtw	x0, w0
   a08d4:	97ffc29b 	bl	91340 <xmalloc@@Base>
   a08d8:	aa0003f4 	mov	x20, x0
   a08dc:	14000006 	b	a08f4 <set_shellopts@@Base+0x114>
   a08e0:	910006f7 	add	x23, x23, #0x1
   a08e4:	9100a2b5 	add	x21, x21, #0x28
   a08e8:	b4000213 	cbz	x19, a0928 <set_shellopts@@Base+0x148>
   a08ec:	aa1303fa 	mov	x26, x19
   a08f0:	f94016b3 	ldr	x19, [x21, #40]
   a08f4:	394002e1 	ldrb	w1, [x23]
   a08f8:	34ffff41 	cbz	w1, a08e0 <set_shellopts@@Base+0x100>
   a08fc:	aa1a03e1 	mov	x1, x26
   a0900:	8b38c280 	add	x0, x20, w24, sxtw
[31m   a0904:	97fe3a97 	bl	2f360 <strcpy@plt>[0m
   a0908:	910006f7 	add	x23, x23, #0x1
   a090c:	aa1a03e0 	mov	x0, x26
--
   a0acc:	f0000200 	adrp	x0, e3000 <_IO_stdin_used@@Base+0x2db8>
   a0ad0:	9107a000 	add	x0, x0, #0x1e8
   a0ad4:	910003fd 	mov	x29, sp
   a0ad8:	f9000bf3 	str	x19, [sp, #16]
   a0adc:	97feb895 	bl	4ed30 <find_variable@@Base>
   a0ae0:	aa0003f3 	mov	x19, x0
   a0ae4:	b40000c0 	cbz	x0, a0afc <initialize_shell_options@@Base+0x3c>
   a0ae8:	b9402800 	ldr	w0, [x0, #40]
   a0aec:	36780080 	tbz	w0, #15, a0afc <initialize_shell_options@@Base+0x3c>
   a0af0:	52800881 	mov	w1, #0x44                  	// #68
   a0af4:	6a01001f 	tst	w0, w1
   a0af8:	54000080 	b.eq	a0b08 <initialize_shell_options@@Base+0x48>  // b.none
   a0afc:	f9400bf3 	ldr	x19, [sp, #16]
   a0b00:	a8c27bfd 	ldp	x29, x30, [sp], #32
   a0b04:	17ffff37 	b	a07e0 <set_shellopts@@Base>
   a0b08:	f9400660 	ldr	x0, [x19, #8]
   a0b0c:	97fe37ad 	bl	2e9c0 <strlen@plt>
   a0b10:	91000400 	add	x0, x0, #0x1
   a0b14:	97ffc20b 	bl	91340 <xmalloc@@Base>
   a0b18:	f9400661 	ldr	x1, [x19, #8]
[31m   a0b1c:	97fe3a11 	bl	2f360 <strcpy@plt>[0m
   a0b20:	aa0003f3 	mov	x19, x0
   a0b24:	97ffffc3 	bl	a0a30 <parse_shellopts@@Base>
--
   a134c:	b9407be6 	ldr	w6, [sp, #120]
   a1350:	9a81037b 	csel	x27, x27, x1, eq  // eq = none
   a1354:	f94043e3 	ldr	x3, [sp, #128]
   a1358:	17ffff4e 	b	a1090 <unset_builtin@@Base+0x1f0>
   a135c:	900002a1 	adrp	x1, f5000 <patch_level@@Base+0x1094c>
   a1360:	9115c021 	add	x1, x1, #0x570
   a1364:	528000a2 	mov	w2, #0x5                   	// #5
   a1368:	d2800000 	mov	x0, #0x0                   	// #0
   a136c:	97fe3861 	bl	2f4f0 <dcgettext@plt>
   a1370:	97ffc834 	bl	93440 <builtin_error@@Base>
   a1374:	17fffeee 	b	a0f2c <unset_builtin@@Base+0x8c>
   a1378:	f9400740 	ldr	x0, [x26, #8]
   a137c:	52800001 	mov	w1, #0x0                   	// #0
   a1380:	97ff7384 	bl	7e190 <valid_array_reference@@Base>
   a1384:	340002e0 	cbz	w0, a13e0 <unset_builtin@@Base+0x540>
   a1388:	f9400740 	ldr	x0, [x26, #8]
   a138c:	97fe358d 	bl	2e9c0 <strlen@plt>
   a1390:	91000400 	add	x0, x0, #0x1
   a1394:	97ffbfeb 	bl	91340 <xmalloc@@Base>
   a1398:	f9400741 	ldr	x1, [x26, #8]
[31m   a139c:	97fe37f1 	bl	2f360 <strcpy@plt>[0m
   a13a0:	aa0003fa 	mov	x26, x0
   a13a4:	f94047e2 	ldr	x2, [sp, #136]
--
   a197c:	2a0103f3 	mov	w19, w1
   a1980:	340000c2 	cbz	w2, a1998 <set_var_attribute@@Base+0x28>
   a1984:	97feb4eb 	bl	4ed30 <find_variable@@Base>
   a1988:	b50007a0 	cbnz	x0, a1a7c <set_var_attribute@@Base+0x10c>
   a198c:	a94153f3 	ldp	x19, x20, [sp, #16]
   a1990:	a8c37bfd 	ldp	x29, x30, [sp], #48
   a1994:	d65f03c0 	ret
   a1998:	a9025bf5 	stp	x21, x22, [sp, #32]
   a199c:	aa0003f5 	mov	x21, x0
   a19a0:	97febc40 	bl	50aa0 <find_tempenv_variable@@Base>
   a19a4:	aa0003f6 	mov	x22, x0
   a19a8:	b4000840 	cbz	x0, a1ab0 <set_var_attribute@@Base+0x140>
   a19ac:	b9402800 	ldr	w0, [x0, #40]
   a19b0:	36a00800 	tbz	w0, #20, a1ab0 <set_var_attribute@@Base+0x140>
   a19b4:	f94006c0 	ldr	x0, [x22, #8]
   a19b8:	b4000940 	cbz	x0, a1ae0 <set_var_attribute@@Base+0x170>
   a19bc:	97fe3401 	bl	2e9c0 <strlen@plt>
   a19c0:	91000400 	add	x0, x0, #0x1
   a19c4:	97ffbe5f 	bl	91340 <xmalloc@@Base>
   a19c8:	f94006c1 	ldr	x1, [x22, #8]
[31m   a19cc:	97fe3665 	bl	2f360 <strcpy@plt>[0m
   a19d0:	aa0003f5 	mov	x21, x0
   a19d4:	f94002c0 	ldr	x0, [x22]
--
   a21c4:	aa1703f8 	mov	x24, x23
   a21c8:	910122f3 	add	x19, x23, #0x48
   a21cc:	aa1703fa 	mov	x26, x23
   a21d0:	f94006e0 	ldr	x0, [x23, #8]
   a21d4:	b4000040 	cbz	x0, a21dc <shift_builtin@@Base+0xbc>
   a21d8:	97fe3406 	bl	2f1f0 <free@plt>
   a21dc:	91002300 	add	x0, x24, #0x8
   a21e0:	f9400401 	ldr	x1, [x0, #8]
   a21e4:	f8008401 	str	x1, [x0], #8
   a21e8:	eb13001f 	cmp	x0, x19
   a21ec:	54ffffa1 	b.ne	a21e0 <shift_builtin@@Base+0xc0>  // b.any
   a21f0:	f94002d4 	ldr	x20, [x22]
   a21f4:	b40007b4 	cbz	x20, a22e8 <shift_builtin@@Base+0x1c8>
   a21f8:	f9400680 	ldr	x0, [x20, #8]
   a21fc:	f9400000 	ldr	x0, [x0]
   a2200:	97fe31f0 	bl	2e9c0 <strlen@plt>
   a2204:	91000400 	add	x0, x0, #0x1
   a2208:	97ffbc4e 	bl	91340 <xmalloc@@Base>
   a220c:	f9400681 	ldr	x1, [x20, #8]
   a2210:	f9400021 	ldr	x1, [x1]
[31m   a2214:	97fe3453 	bl	2f360 <strcpy@plt>[0m
   a2218:	aa0003e2 	mov	x2, x0
   a221c:	f94002c3 	ldr	x3, [x22]
--
   a238c:	f9414400 	ldr	x0, [x0, #648]
   a2390:	f9400034 	ldr	x20, [x1]
   a2394:	b9400000 	ldr	w0, [x0]
   a2398:	35000880 	cbnz	w0, a24a8 <source_builtin@@Base+0x148>
   a239c:	f0000440 	adrp	x0, 12d000 <o_options@@Base+0x2220>
   a23a0:	a9025bf5 	stp	x21, x22, [sp, #32]
   a23a4:	f9448800 	ldr	x0, [x0, #2320]
   a23a8:	b9400000 	ldr	w0, [x0]
   a23ac:	34000880 	cbz	w0, a24bc <source_builtin@@Base+0x15c>
   a23b0:	aa1403e0 	mov	x0, x20
   a23b4:	528005e1 	mov	w1, #0x2f                  	// #47
   a23b8:	97fe33ae 	bl	2f270 <strchr@plt>
   a23bc:	b4000800 	cbz	x0, a24bc <source_builtin@@Base+0x15c>
   a23c0:	aa1403e0 	mov	x0, x20
   a23c4:	f9001bf7 	str	x23, [sp, #48]
   a23c8:	97fe317e 	bl	2e9c0 <strlen@plt>
   a23cc:	91000400 	add	x0, x0, #0x1
   a23d0:	97ffbbdc 	bl	91340 <xmalloc@@Base>
   a23d4:	f9400661 	ldr	x1, [x19, #8]
   a23d8:	f9400021 	ldr	x1, [x1]
[31m   a23dc:	97fe33e1 	bl	2f360 <strcpy@plt>[0m
   a23e0:	aa0003f4 	mov	x20, x0
   a23e4:	f0000457 	adrp	x23, 12d000 <o_options@@Base+0x2220>
--
   a2598:	35fffee1 	cbnz	w1, a2574 <source_builtin@@Base+0x214>
   a259c:	17ffffd3 	b	a24e8 <source_builtin@@Base+0x188>
   a25a0:	97fec314 	bl	531f0 <init_bash_argv@@Base>
   a25a4:	17ffffa7 	b	a2440 <source_builtin@@Base+0xe0>
   a25a8:	52800820 	mov	w0, #0x41                  	// #65
   a25ac:	97ff51a9 	bl	76c50 <signal_is_ignored@@Base>
   a25b0:	35fff600 	cbnz	w0, a2470 <source_builtin@@Base+0x110>
   a25b4:	f0000440 	adrp	x0, 12d000 <o_options@@Base+0x2220>
   a25b8:	f944a800 	ldr	x0, [x0, #2384]
   a25bc:	f9410416 	ldr	x22, [x0, #520]
   a25c0:	b4fff596 	cbz	x22, a2470 <source_builtin@@Base+0x110>
   a25c4:	f0000440 	adrp	x0, 12d000 <o_options@@Base+0x2220>
   a25c8:	f9430c00 	ldr	x0, [x0, #1560]
   a25cc:	b9400000 	ldr	w0, [x0]
   a25d0:	35fff500 	cbnz	w0, a2470 <source_builtin@@Base+0x110>
   a25d4:	aa1603e0 	mov	x0, x22
   a25d8:	97fe30fa 	bl	2e9c0 <strlen@plt>
   a25dc:	91000400 	add	x0, x0, #0x1
   a25e0:	97ffbb58 	bl	91340 <xmalloc@@Base>
   a25e4:	aa1603e1 	mov	x1, x22
[31m   a25e8:	97fe335e 	bl	2f360 <strcpy@plt>[0m
   a25ec:	aa0003f6 	mov	x22, x0
   a25f0:	f9417ae0 	ldr	x0, [x23, #752]
--
   a5570:	a9bc7bfd 	stp	x29, x30, [sp, #-64]!
   a5574:	528006e0 	mov	w0, #0x37                  	// #55
   a5578:	910003fd 	mov	x29, sp
   a557c:	a90153f3 	stp	x19, x20, [sp, #16]
   a5580:	90000293 	adrp	x19, f5000 <patch_level@@Base+0x1094c>
   a5584:	912da273 	add	x19, x19, #0xb68
   a5588:	a9025bf5 	stp	x21, x22, [sp, #32]
   a558c:	d2800034 	mov	x20, #0x1                   	// #1
   a5590:	d0000435 	adrp	x21, 12b000 <o_options@@Base+0x220>
   a5594:	910902b5 	add	x21, x21, #0x240
   a5598:	f9001bf7 	str	x23, [sp, #48]
   a559c:	94003889 	bl	b37c0 <strvec_create@@Base>
   a55a0:	aa0003f7 	mov	x23, x0
   a55a4:	d1002016 	sub	x22, x0, #0x8
   a55a8:	d28000c0 	mov	x0, #0x6                   	// #6
   a55ac:	14000002 	b	a55b4 <get_shopt_options@@Base+0x44>
   a55b0:	97fe2504 	bl	2e9c0 <strlen@plt>
   a55b4:	91000400 	add	x0, x0, #0x1
   a55b8:	97ffaf62 	bl	91340 <xmalloc@@Base>
   a55bc:	aa1303e1 	mov	x1, x19
[31m   a55c0:	97fe2768 	bl	2f360 <strcpy@plt>[0m
   a55c4:	f8347ac0 	str	x0, [x22, x20, lsl #3]
   a55c8:	2a1403e1 	mov	w1, w20
--
   a5724:	91006273 	add	x19, x19, #0x18
   a5728:	b5fffe98 	cbnz	x24, a56f8 <set_bashopts@@Base+0x68>
   a572c:	11000720 	add	w0, w25, #0x1
   a5730:	912e42d3 	add	x19, x22, #0xb90
   a5734:	912da35a 	add	x26, x26, #0xb68
   a5738:	52800018 	mov	w24, #0x0                   	// #0
   a573c:	93407c00 	sxtw	x0, w0
   a5740:	52800756 	mov	w22, #0x3a                  	// #58
   a5744:	97ffaeff 	bl	91340 <xmalloc@@Base>
   a5748:	aa0003f4 	mov	x20, x0
   a574c:	14000006 	b	a5764 <set_bashopts@@Base+0xd4>
   a5750:	910006f7 	add	x23, x23, #0x1
   a5754:	910062b5 	add	x21, x21, #0x18
   a5758:	b4000213 	cbz	x19, a5798 <set_bashopts@@Base+0x108>
   a575c:	aa1303fa 	mov	x26, x19
   a5760:	f9400eb3 	ldr	x19, [x21, #24]
   a5764:	394002e1 	ldrb	w1, [x23]
   a5768:	34ffff41 	cbz	w1, a5750 <set_bashopts@@Base+0xc0>
   a576c:	aa1a03e1 	mov	x1, x26
   a5770:	8b38c280 	add	x0, x20, w24, sxtw
[31m   a5774:	97fe26fb 	bl	2f360 <strcpy@plt>[0m
   a5778:	910006f7 	add	x23, x23, #0x1
   a577c:	aa1a03e0 	mov	x0, x26
--
   a5e3c:	90000280 	adrp	x0, f5000 <patch_level@@Base+0x1094c>
   a5e40:	912ea000 	add	x0, x0, #0xba8
   a5e44:	910003fd 	mov	x29, sp
   a5e48:	f9000bf3 	str	x19, [sp, #16]
   a5e4c:	97fea3b9 	bl	4ed30 <find_variable@@Base>
   a5e50:	aa0003f3 	mov	x19, x0
   a5e54:	b40000c0 	cbz	x0, a5e6c <initialize_bashopts@@Base+0x3c>
   a5e58:	b9402800 	ldr	w0, [x0, #40]
   a5e5c:	36780080 	tbz	w0, #15, a5e6c <initialize_bashopts@@Base+0x3c>
   a5e60:	52800881 	mov	w1, #0x44                  	// #68
   a5e64:	6a01001f 	tst	w0, w1
   a5e68:	54000080 	b.eq	a5e78 <initialize_bashopts@@Base+0x48>  // b.none
   a5e6c:	f9400bf3 	ldr	x19, [sp, #16]
   a5e70:	a8c27bfd 	ldp	x29, x30, [sp], #32
   a5e74:	17fffe07 	b	a5690 <set_bashopts@@Base>
   a5e78:	f9400660 	ldr	x0, [x19, #8]
   a5e7c:	97fe22d1 	bl	2e9c0 <strlen@plt>
   a5e80:	91000400 	add	x0, x0, #0x1
   a5e84:	97ffad2f 	bl	91340 <xmalloc@@Base>
   a5e88:	f9400661 	ldr	x1, [x19, #8]
[31m   a5e8c:	97fe2535 	bl	2f360 <strcpy@plt>[0m
   a5e90:	aa0003f3 	mov	x19, x0
   a5e94:	97ffffb3 	bl	a5d60 <parse_bashopts@@Base>
--
   a9e9c:	17ffffb5 	b	a9d70 <complete_builtin@@Base+0xb0>
   a9ea0:	f10002ff 	cmp	x23, #0x0
   a9ea4:	1a9f17e0 	cset	w0, eq  // eq = none
   a9ea8:	7100001f 	cmp	w0, #0x0
   a9eac:	7a401824 	ccmp	w1, #0x0, #0x4, ne  // ne = any
   a9eb0:	7a411a64 	ccmp	w19, #0x1, #0x4, ne  // ne = any
   a9eb4:	54000be1 	b.ne	aa030 <complete_builtin@@Base+0x370>  // b.any
   a9eb8:	9110e2b3 	add	x19, x21, #0x438
   a9ebc:	97ff9c15 	bl	90f10 <compspec_create@@Base>
   a9ec0:	aa0003f6 	mov	x22, x0
   a9ec4:	f94023e1 	ldr	x1, [sp, #64]
   a9ec8:	f9400a60 	ldr	x0, [x19, #16]
   a9ecc:	f90006c1 	str	x1, [x22, #8]
   a9ed0:	f94027e1 	ldr	x1, [sp, #72]
   a9ed4:	f9000ac1 	str	x1, [x22, #16]
   a9ed8:	b40000c0 	cbz	x0, a9ef0 <complete_builtin@@Base+0x230>
   a9edc:	97fe12b9 	bl	2e9c0 <strlen@plt>
   a9ee0:	91000400 	add	x0, x0, #0x1
   a9ee4:	97ff9d17 	bl	91340 <xmalloc@@Base>
   a9ee8:	f9400a61 	ldr	x1, [x19, #16]
[31m   a9eec:	97fe151d 	bl	2f360 <strcpy@plt>[0m
   a9ef0:	9110e2b3 	add	x19, x21, #0x438
   a9ef4:	f9000ec0 	str	x0, [x22, #24]
   a9ef8:	f9401660 	ldr	x0, [x19, #40]
   a9efc:	b40000c0 	cbz	x0, a9f14 <complete_builtin@@Base+0x254>
   a9f00:	97fe12b0 	bl	2e9c0 <strlen@plt>
   a9f04:	91000400 	add	x0, x0, #0x1
   a9f08:	97ff9d0e 	bl	91340 <xmalloc@@Base>
   a9f0c:	f9401661 	ldr	x1, [x19, #40]
[31m   a9f10:	97fe1514 	bl	2f360 <strcpy@plt>[0m
   a9f14:	9110e2b3 	add	x19, x21, #0x438
   a9f18:	f90012c0 	str	x0, [x22, #32]
   a9f1c:	f9400e60 	ldr	x0, [x19, #24]
   a9f20:	b40000c0 	cbz	x0, a9f38 <complete_builtin@@Base+0x278>
   a9f24:	97fe12a7 	bl	2e9c0 <strlen@plt>
   a9f28:	91000400 	add	x0, x0, #0x1
   a9f2c:	97ff9d05 	bl	91340 <xmalloc@@Base>
   a9f30:	f9400e61 	ldr	x1, [x19, #24]
[31m   a9f34:	97fe150b 	bl	2f360 <strcpy@plt>[0m
   a9f38:	9110e2b3 	add	x19, x21, #0x438
   a9f3c:	f90016c0 	str	x0, [x22, #40]
   a9f40:	f9401260 	ldr	x0, [x19, #32]
   a9f44:	b40000c0 	cbz	x0, a9f5c <complete_builtin@@Base+0x29c>
   a9f48:	97fe129e 	bl	2e9c0 <strlen@plt>
   a9f4c:	91000400 	add	x0, x0, #0x1
   a9f50:	97ff9cfc 	bl	91340 <xmalloc@@Base>
   a9f54:	f9401261 	ldr	x1, [x19, #32]
[31m   a9f58:	97fe1502 	bl	2f360 <strcpy@plt>[0m
   a9f5c:	9110e2b3 	add	x19, x21, #0x438
   a9f60:	f9001ac0 	str	x0, [x22, #48]
   a9f64:	f9400661 	ldr	x1, [x19, #8]
   a9f68:	b4000101 	cbz	x1, a9f88 <complete_builtin@@Base+0x2c8>
   a9f6c:	aa0103e0 	mov	x0, x1
   a9f70:	97fe1294 	bl	2e9c0 <strlen@plt>
   a9f74:	91000400 	add	x0, x0, #0x1
   a9f78:	97ff9cf2 	bl	91340 <xmalloc@@Base>
   a9f7c:	f9400661 	ldr	x1, [x19, #8]
[31m   a9f80:	97fe14f8 	bl	2f360 <strcpy@plt>[0m
   a9f84:	aa0003e1 	mov	x1, x0
   a9f88:	f9421ea0 	ldr	x0, [x21, #1080]
   a9f8c:	f9001ec1 	str	x1, [x22, #56]
   a9f90:	b40000c0 	cbz	x0, a9fa8 <complete_builtin@@Base+0x2e8>
   a9f94:	97fe128b 	bl	2e9c0 <strlen@plt>
   a9f98:	91000400 	add	x0, x0, #0x1
   a9f9c:	97ff9ce9 	bl	91340 <xmalloc@@Base>
   a9fa0:	f9421ea1 	ldr	x1, [x21, #1080]
[31m   a9fa4:	97fe14ef 	bl	2f360 <strcpy@plt>[0m
   a9fa8:	9110e2b5 	add	x21, x21, #0x438
   a9fac:	f90022c0 	str	x0, [x22, #64]
   a9fb0:	f9401aa0 	ldr	x0, [x21, #48]
   a9fb4:	b40000c0 	cbz	x0, a9fcc <complete_builtin@@Base+0x30c>
   a9fb8:	97fe1282 	bl	2e9c0 <strlen@plt>
   a9fbc:	91000400 	add	x0, x0, #0x1
   a9fc0:	97ff9ce0 	bl	91340 <xmalloc@@Base>
   a9fc4:	f9401aa1 	ldr	x1, [x21, #48]
[31m   a9fc8:	97fe14e6 	bl	2f360 <strcpy@plt>[0m
   a9fcc:	f9002ac0 	str	x0, [x22, #80]
   a9fd0:	b40002b7 	cbz	x23, aa024 <complete_builtin@@Base+0x364>
--
   aa10c:	910ae021 	add	x1, x1, #0x2b8
   aa110:	528000a2 	mov	w2, #0x5                   	// #5
   aa114:	d2800000 	mov	x0, #0x0                   	// #0
   aa118:	97fe14f6 	bl	2f4f0 <dcgettext@plt>
   aa11c:	97ffa4c9 	bl	93440 <builtin_error@@Base>
   aa120:	9110e277 	add	x23, x19, #0x438
   aa124:	97ff9b7b 	bl	90f10 <compspec_create@@Base>
   aa128:	aa0003f4 	mov	x20, x0
   aa12c:	52800022 	mov	w2, #0x1                   	// #1
   aa130:	f9402fe1 	ldr	x1, [sp, #88]
   aa134:	f9400ae0 	ldr	x0, [x23, #16]
   aa138:	f9000681 	str	x1, [x20, #8]
   aa13c:	f94033e1 	ldr	x1, [sp, #96]
   aa140:	b9000282 	str	w2, [x20]
   aa144:	f9000a81 	str	x1, [x20, #16]
   aa148:	b40000c0 	cbz	x0, aa160 <compgen_builtin@@Base+0x110>
   aa14c:	97fe121d 	bl	2e9c0 <strlen@plt>
   aa150:	91000400 	add	x0, x0, #0x1
   aa154:	97ff9c7b 	bl	91340 <xmalloc@@Base>
   aa158:	f9400ae1 	ldr	x1, [x23, #16]
[31m   aa15c:	97fe1481 	bl	2f360 <strcpy@plt>[0m
   aa160:	9110e277 	add	x23, x19, #0x438
   aa164:	f9000e80 	str	x0, [x20, #24]
   aa168:	f94016e0 	ldr	x0, [x23, #40]
   aa16c:	b40000c0 	cbz	x0, aa184 <compgen_builtin@@Base+0x134>
   aa170:	97fe1214 	bl	2e9c0 <strlen@plt>
   aa174:	91000400 	add	x0, x0, #0x1
   aa178:	97ff9c72 	bl	91340 <xmalloc@@Base>
   aa17c:	f94016e1 	ldr	x1, [x23, #40]
[31m   aa180:	97fe1478 	bl	2f360 <strcpy@plt>[0m
   aa184:	9110e277 	add	x23, x19, #0x438
   aa188:	f9001280 	str	x0, [x20, #32]
   aa18c:	f9400ee0 	ldr	x0, [x23, #24]
   aa190:	b40000c0 	cbz	x0, aa1a8 <compgen_builtin@@Base+0x158>
   aa194:	97fe120b 	bl	2e9c0 <strlen@plt>
   aa198:	91000400 	add	x0, x0, #0x1
   aa19c:	97ff9c69 	bl	91340 <xmalloc@@Base>
   aa1a0:	f9400ee1 	ldr	x1, [x23, #24]
[31m   aa1a4:	97fe146f 	bl	2f360 <strcpy@plt>[0m
   aa1a8:	9110e277 	add	x23, x19, #0x438
   aa1ac:	f9001680 	str	x0, [x20, #40]
   aa1b0:	f94012e0 	ldr	x0, [x23, #32]
   aa1b4:	b40000c0 	cbz	x0, aa1cc <compgen_builtin@@Base+0x17c>
   aa1b8:	97fe1202 	bl	2e9c0 <strlen@plt>
   aa1bc:	91000400 	add	x0, x0, #0x1
   aa1c0:	97ff9c60 	bl	91340 <xmalloc@@Base>
   aa1c4:	f94012e1 	ldr	x1, [x23, #32]
[31m   aa1c8:	97fe1466 	bl	2f360 <strcpy@plt>[0m
   aa1cc:	9110e277 	add	x23, x19, #0x438
   aa1d0:	f9001a80 	str	x0, [x20, #48]
   aa1d4:	f94006e1 	ldr	x1, [x23, #8]
   aa1d8:	b4000101 	cbz	x1, aa1f8 <compgen_builtin@@Base+0x1a8>
   aa1dc:	aa0103e0 	mov	x0, x1
   aa1e0:	97fe11f8 	bl	2e9c0 <strlen@plt>
   aa1e4:	91000400 	add	x0, x0, #0x1
   aa1e8:	97ff9c56 	bl	91340 <xmalloc@@Base>
   aa1ec:	f94006e1 	ldr	x1, [x23, #8]
[31m   aa1f0:	97fe145c 	bl	2f360 <strcpy@plt>[0m
   aa1f4:	aa0003e1 	mov	x1, x0
   aa1f8:	f9421e60 	ldr	x0, [x19, #1080]
   aa1fc:	f9001e81 	str	x1, [x20, #56]
   aa200:	b40000c0 	cbz	x0, aa218 <compgen_builtin@@Base+0x1c8>
   aa204:	97fe11ef 	bl	2e9c0 <strlen@plt>
   aa208:	91000400 	add	x0, x0, #0x1
   aa20c:	97ff9c4d 	bl	91340 <xmalloc@@Base>
   aa210:	f9421e61 	ldr	x1, [x19, #1080]
[31m   aa214:	97fe1453 	bl	2f360 <strcpy@plt>[0m
   aa218:	9110e273 	add	x19, x19, #0x438
   aa21c:	f9002280 	str	x0, [x20, #64]
   aa220:	f9401a60 	ldr	x0, [x19, #48]
   aa224:	b40000c0 	cbz	x0, aa23c <compgen_builtin@@Base+0x1ec>
   aa228:	97fe11e6 	bl	2e9c0 <strlen@plt>
   aa22c:	91000400 	add	x0, x0, #0x1
   aa230:	97ff9c44 	bl	91340 <xmalloc@@Base>
   aa234:	f9401a61 	ldr	x1, [x19, #48]
[31m   aa238:	97fe144a 	bl	2f360 <strcpy@plt>[0m
   aa23c:	f0000417 	adrp	x23, 12d000 <o_options@@Base+0x2220>
   aa240:	f0000413 	adrp	x19, 12d000 <o_options@@Base+0x2220>
--
   aaab0:	d2800015 	mov	x21, #0x0                   	// #0
   aaab4:	f90033e0 	str	x0, [sp, #96]
   aaab8:	910223e0 	add	x0, sp, #0x88
   aaabc:	b9006fe1 	str	w1, [sp, #108]
   aaac0:	f9003fe0 	str	x0, [sp, #120]
   aaac4:	14000005 	b	aaad8 <compopt_builtin@@Base+0x6f8>
   aaac8:	11000673 	add	w19, w19, #0x1
   aaacc:	d37d7e75 	ubfiz	x21, x19, #3, #32
   aaad0:	f8735a9c 	ldr	x28, [x20, w19, uxtw #3]
   aaad4:	b400057c 	cbz	x28, aab80 <compopt_builtin@@Base+0x7a0>
   aaad8:	aa1c03e0 	mov	x0, x28
   aaadc:	97fe0fb9 	bl	2e9c0 <strlen@plt>
   aaae0:	f94033e1 	ldr	x1, [sp, #96]
   aaae4:	8b1502db 	add	x27, x22, x21
   aaae8:	8b010000 	add	x0, x0, x1
   aaaec:	97fe109d 	bl	2ed60 <malloc@plt>
   aaaf0:	f8356ac0 	str	x0, [x22, x21]
   aaaf4:	aa0003f7 	mov	x23, x0
   aaaf8:	b4000720 	cbz	x0, aabdc <compopt_builtin@@Base+0x7fc>
   aaafc:	aa1803e1 	mov	x1, x24
[31m   aab00:	97fe1218 	bl	2f360 <strcpy@plt>[0m
   aab04:	7100bf5f 	cmp	w26, #0x2f
   aab08:	54000080 	b.eq	aab18 <compopt_builtin@@Base+0x738>  // b.none
   aab0c:	f9403be0 	ldr	x0, [sp, #112]
   aab10:	528005e1 	mov	w1, #0x2f                  	// #47
   aab14:	38206ae1 	strb	w1, [x23, x0]
   aab18:	aa1c03e1 	mov	x1, x28
   aab1c:	8b1902e0 	add	x0, x23, x25
[31m   aab20:	97fe1210 	bl	2f360 <strcpy@plt>[0m
   aab24:	b9406fe0 	ldr	w0, [sp, #108]
   aab28:	34fffd00 	cbz	w0, aaac8 <compopt_builtin@@Base+0x6e8>
--
   aba00:	f100027f 	cmp	x19, #0x0
   aba04:	aa0003e1 	mov	x1, x0
   aba08:	9a801273 	csel	x19, x19, x0, ne  // ne = any
   aba0c:	17ffff6d 	b	ab7c0 <glob_vector@@Base+0x390>
   aba10:	aa1903e0 	mov	x0, x25
   aba14:	97fe0beb 	bl	2e9c0 <strlen@plt>
   aba18:	aa0003f6 	mov	x22, x0
   aba1c:	0b130000 	add	w0, w0, w19
   aba20:	11000800 	add	w0, w0, #0x2
   aba24:	93407c00 	sxtw	x0, w0
   aba28:	97fe0cce 	bl	2ed60 <malloc@plt>
   aba2c:	11000661 	add	w1, w19, #0x1
   aba30:	aa0003f3 	mov	x19, x0
   aba34:	93407c20 	sxtw	x0, w1
   aba38:	97fe0cca 	bl	2ed60 <malloc@plt>
   aba3c:	aa0003f5 	mov	x21, x0
   aba40:	f100027f 	cmp	x19, #0x0
   aba44:	fa401804 	ccmp	x0, #0x0, #0x4, ne  // ne = any
   aba48:	54000a40 	b.eq	abb90 <glob_vector@@Base+0x760>  // b.none
   aba4c:	aa1403e1 	mov	x1, x20
[31m   aba50:	97fe0e44 	bl	2f360 <strcpy@plt>[0m
   aba54:	aa1503e0 	mov	x0, x21
   aba58:	97fffc9e 	bl	aacd0 <compopt_builtin@@Base+0x8f0>
   aba5c:	aa1903e1 	mov	x1, x25
   aba60:	aa1303e0 	mov	x0, x19
[31m   aba64:	97fe0e3f 	bl	2f360 <strcpy@plt>[0m
   aba68:	528005e2 	mov	w2, #0x2f                  	// #47
   aba6c:	110006c0 	add	w0, w22, #0x1
   aba70:	3836ca62 	strb	w2, [x19, w22, sxtw]
   aba74:	aa1503e1 	mov	x1, x21
   aba78:	8b20c260 	add	x0, x19, w0, sxtw
[31m   aba7c:	97fe0e39 	bl	2f360 <strcpy@plt>[0m
   aba80:	9102e3a2 	add	x2, x29, #0xb8
   aba84:	aa1303e1 	mov	x1, x19
--
00000000000b05d0 <getenv@@Base>:
   b05d0:	39400001 	ldrb	w1, [x0]
   b05d4:	34000921 	cbz	w1, b06f8 <getenv@@Base+0x128>
   b05d8:	a9bc7bfd 	stp	x29, x30, [sp, #-64]!
   b05dc:	910003fd 	mov	x29, sp
   b05e0:	a90153f3 	stp	x19, x20, [sp, #16]
   b05e4:	aa0003f4 	mov	x20, x0
   b05e8:	97fe812e 	bl	50aa0 <find_tempenv_variable@@Base>
   b05ec:	aa0003f3 	mov	x19, x0
   b05f0:	b4000200 	cbz	x0, b0630 <getenv@@Base+0x60>
   b05f4:	b0000454 	adrp	x20, 139000 <dircomplete_expand@@Base+0x68>
   b05f8:	f9424680 	ldr	x0, [x20, #1160]
   b05fc:	b4000040 	cbz	x0, b0604 <getenv@@Base+0x34>
   b0600:	97fdfafc 	bl	2f1f0 <free@plt>
   b0604:	f9400660 	ldr	x0, [x19, #8]
   b0608:	b40000c0 	cbz	x0, b0620 <getenv@@Base+0x50>
   b060c:	97fdf8ed 	bl	2e9c0 <strlen@plt>
   b0610:	91000400 	add	x0, x0, #0x1
   b0614:	97ff834b 	bl	91340 <xmalloc@@Base>
   b0618:	f9400661 	ldr	x1, [x19, #8]
[31m   b061c:	97fdfb51 	bl	2f360 <strcpy@plt>[0m
   b0620:	f9024680 	str	x0, [x20, #1160]
   b0624:	a94153f3 	ldp	x19, x20, [sp, #16]
--

00000000000b0720 <putenv@@Base>:
   b0720:	a9bd7bfd 	stp	x29, x30, [sp, #-48]!
   b0724:	910003fd 	mov	x29, sp
   b0728:	39400001 	ldrb	w1, [x0]
   b072c:	34000501 	cbz	w1, b07cc <putenv@@Base+0xac>
   b0730:	52800001 	mov	w1, #0x0                   	// #0
   b0734:	a90153f3 	stp	x19, x20, [sp, #16]
   b0738:	aa0003f3 	mov	x19, x0
   b073c:	f90013f5 	str	x21, [sp, #32]
   b0740:	97fe3a80 	bl	3f140 <assignment@@Base>
   b0744:	93407c15 	sxtw	x21, w0
   b0748:	3875ca60 	ldrb	w0, [x19, w21, sxtw]
   b074c:	7100f41f 	cmp	w0, #0x3d
   b0750:	540002e1 	b.ne	b07ac <putenv@@Base+0x8c>  // b.any
   b0754:	aa1303e0 	mov	x0, x19
   b0758:	97fdf89a 	bl	2e9c0 <strlen@plt>
   b075c:	91000400 	add	x0, x0, #0x1
   b0760:	97ff82f8 	bl	91340 <xmalloc@@Base>
   b0764:	aa1303e1 	mov	x1, x19
[31m   b0768:	97fdfafe 	bl	2f360 <strcpy@plt>[0m
   b076c:	910006a1 	add	x1, x21, #0x1
   b0770:	3835c81f 	strb	wzr, [x0, w21, sxtw]
--

00000000000b09e0 <itos@@Base>:
   b09e0:	a9bc7bfd 	stp	x29, x30, [sp, #-64]!
   b09e4:	52800004 	mov	w4, #0x0                   	// #0
   b09e8:	d28002c3 	mov	x3, #0x16                  	// #22
   b09ec:	910003fd 	mov	x29, sp
   b09f0:	a90153f3 	stp	x19, x20, [sp, #16]
   b09f4:	b00003f3 	adrp	x19, 12d000 <o_options@@Base+0x2220>
   b09f8:	910083e2 	add	x2, sp, #0x20
   b09fc:	f9432a73 	ldr	x19, [x19, #1616]
   b0a00:	52800141 	mov	w1, #0xa                   	// #10
   b0a04:	f9400265 	ldr	x5, [x19]
   b0a08:	f9001fe5 	str	x5, [sp, #56]
   b0a0c:	d2800005 	mov	x5, #0x0                   	// #0
   b0a10:	94001434 	bl	b5ae0 <fmtumax@@Base>
   b0a14:	aa0003f4 	mov	x20, x0
   b0a18:	97fdf7ea 	bl	2e9c0 <strlen@plt>
   b0a1c:	91000400 	add	x0, x0, #0x1
   b0a20:	97ff8248 	bl	91340 <xmalloc@@Base>
   b0a24:	aa1403e1 	mov	x1, x20
[31m   b0a28:	97fdfa4e 	bl	2f360 <strcpy@plt>[0m
   b0a2c:	f9401fe2 	ldr	x2, [sp, #56]
   b0a30:	f9400261 	ldr	x1, [x19]
--

00000000000b0ad0 <uitos@@Base>:
   b0ad0:	a9bc7bfd 	stp	x29, x30, [sp, #-64]!
   b0ad4:	52800104 	mov	w4, #0x8                   	// #8
   b0ad8:	d28002a3 	mov	x3, #0x15                  	// #21
   b0adc:	910003fd 	mov	x29, sp
   b0ae0:	a90153f3 	stp	x19, x20, [sp, #16]
   b0ae4:	b00003f3 	adrp	x19, 12d000 <o_options@@Base+0x2220>
   b0ae8:	910083e2 	add	x2, sp, #0x20
   b0aec:	f9432a73 	ldr	x19, [x19, #1616]
   b0af0:	52800141 	mov	w1, #0xa                   	// #10
   b0af4:	f9400265 	ldr	x5, [x19]
   b0af8:	f9001fe5 	str	x5, [sp, #56]
   b0afc:	d2800005 	mov	x5, #0x0                   	// #0
   b0b00:	940013f8 	bl	b5ae0 <fmtumax@@Base>
   b0b04:	aa0003f4 	mov	x20, x0
   b0b08:	97fdf7ae 	bl	2e9c0 <strlen@plt>
   b0b0c:	91000400 	add	x0, x0, #0x1
   b0b10:	97ff820c 	bl	91340 <xmalloc@@Base>
   b0b14:	aa1403e1 	mov	x1, x20
[31m   b0b18:	97fdfa12 	bl	2f360 <strcpy@plt>[0m
   b0b1c:	f9401fe2 	ldr	x2, [sp, #56]
   b0b20:	f9400261 	ldr	x1, [x19]
--
   b17f0:	9139c021 	add	x1, x1, #0xe70
   b17f4:	97fdf58f 	bl	2ee30 <strncmp@plt>
   b17f8:	35fffec0 	cbnz	w0, b17d0 <sh_stat@@Base+0x30>
   b17fc:	91002273 	add	x19, x19, #0x8
   b1800:	a9025bf5 	stp	x21, x22, [sp, #32]
   b1804:	90000456 	adrp	x22, 139000 <dircomplete_expand@@Base+0x68>
   b1808:	aa1303e0 	mov	x0, x19
   b180c:	97fdf46d 	bl	2e9c0 <strlen@plt>
   b1810:	aa0003e1 	mov	x1, x0
   b1814:	f942d6c0 	ldr	x0, [x22, #1448]
   b1818:	91002421 	add	x1, x1, #0x9
   b181c:	97ff7edd 	bl	91390 <xrealloc@@Base>
   b1820:	aa0003f5 	mov	x21, x0
   b1824:	d28c85e2 	mov	x2, #0x642f                	// #25647
   b1828:	f2aecca2 	movk	x2, #0x7665, lsl #16
   b182c:	f902d6c0 	str	x0, [x22, #1448]
   b1830:	f2ccc5e2 	movk	x2, #0x662f, lsl #32
   b1834:	f2e5ec82 	movk	x2, #0x2f64, lsl #48
   b1838:	f8008402 	str	x2, [x0], #8
   b183c:	aa1303e1 	mov	x1, x19
[31m   b1840:	97fdf6c8 	bl	2f360 <strcpy@plt>[0m
   b1844:	aa1403e2 	mov	x2, x20
   b1848:	aa1503e1 	mov	x1, x21
--
   b1aac:	d503201f 	nop

00000000000b1ab0 <netopen@@Base>:
   b1ab0:	a9b87bfd 	stp	x29, x30, [sp, #-128]!
   b1ab4:	910003fd 	mov	x29, sp
   b1ab8:	a9025bf5 	stp	x21, x22, [sp, #32]
   b1abc:	900003f5 	adrp	x21, 12d000 <o_options@@Base+0x2220>
   b1ac0:	f9432aa1 	ldr	x1, [x21, #1616]
   b1ac4:	a90153f3 	stp	x19, x20, [sp, #16]
   b1ac8:	f9400022 	ldr	x2, [x1]
   b1acc:	f9003fe2 	str	x2, [sp, #120]
   b1ad0:	d2800002 	mov	x2, #0x0                   	// #0
   b1ad4:	a90363f7 	stp	x23, x24, [sp, #48]
   b1ad8:	aa0003f7 	mov	x23, x0
   b1adc:	97fdf3b9 	bl	2e9c0 <strlen@plt>
   b1ae0:	91000400 	add	x0, x0, #0x1
   b1ae4:	97ff7e17 	bl	91340 <xmalloc@@Base>
   b1ae8:	aa0003f6 	mov	x22, x0
   b1aec:	aa1703e1 	mov	x1, x23
   b1af0:	910026d8 	add	x24, x22, #0x9
[31m   b1af4:	97fdf61b 	bl	2f360 <strcpy@plt>[0m
   b1af8:	aa1803e0 	mov	x0, x24
   b1afc:	528005e1 	mov	w1, #0x2f                  	// #47
--
   b214c:	54fff6e1 	b.ne	b2028 <sh_makepath@@Base+0x78>  // b.any
   b2150:	91000a73 	add	x19, x19, #0x2
   b2154:	17ffffb6 	b	b202c <sh_makepath@@Base+0x7c>
   b2158:	aa0003e3 	mov	x3, x0
   b215c:	17ffffc9 	b	b2080 <sh_makepath@@Base+0xd0>
   b2160:	39400400 	ldrb	w0, [x0, #1]
   b2164:	34000220 	cbz	w0, b21a8 <sh_makepath@@Base+0x1f8>
   b2168:	7100bc1f 	cmp	w0, #0x2f
   b216c:	52800016 	mov	w22, #0x0                   	// #0
   b2170:	54fff461 	b.ne	b1ffc <sh_makepath@@Base+0x4c>  // b.any
   b2174:	39400aa0 	ldrb	w0, [x21, #2]
   b2178:	35fff420 	cbnz	w0, b1ffc <sh_makepath@@Base+0x4c>
   b217c:	90000194 	adrp	x20, e2000 <_IO_stdin_used@@Base+0x1db8>
   b2180:	91206294 	add	x20, x20, #0x818
   b2184:	52800018 	mov	w24, #0x0                   	// #0
   b2188:	17ffffa1 	b	b200c <sh_makepath@@Base+0x5c>
   b218c:	97fdf20d 	bl	2e9c0 <strlen@plt>
   b2190:	91000400 	add	x0, x0, #0x1
   b2194:	97ff7c6b 	bl	91340 <xmalloc@@Base>
   b2198:	aa1403e1 	mov	x1, x20
[31m   b219c:	97fdf471 	bl	2f360 <strcpy@plt>[0m
   b21a0:	aa0003f4 	mov	x20, x0
   b21a4:	17ffffcc 	b	b20d4 <sh_makepath@@Base+0x124>
--
   b248c:	b9006bff 	str	wzr, [sp, #104]
   b2490:	7100bc1f 	cmp	w0, #0x2f
   b2494:	540000e1 	b.ne	b24b0 <sh_canonpath@@Base+0x240>  // b.any
   b2498:	39400a60 	ldrb	w0, [x19, #2]
   b249c:	d2800041 	mov	x1, #0x2                   	// #2
   b24a0:	7100bc1f 	cmp	w0, #0x2f
   b24a4:	9a810042 	csel	x2, x2, x1, eq  // eq = none
   b24a8:	1a9f07e0 	cset	w0, ne  // ne = any
   b24ac:	b9006be0 	str	w0, [sp, #104]
   b24b0:	38626b00 	ldrb	w0, [x24, x2]
   b24b4:	8b02031a 	add	x26, x24, x2
   b24b8:	340004a0 	cbz	w0, b254c <sh_canonpath@@Base+0x2dc>
   b24bc:	528005e1 	mov	w1, #0x2f                  	// #47
   b24c0:	a90573fb 	stp	x27, x28, [sp, #80]
   b24c4:	b90063e1 	str	w1, [sp, #96]
   b24c8:	17ffff81 	b	b22cc <sh_canonpath@@Base+0x5c>
   b24cc:	97fdf13d 	bl	2e9c0 <strlen@plt>
   b24d0:	91000400 	add	x0, x0, #0x1
   b24d4:	97ff7b9b 	bl	91340 <xmalloc@@Base>
   b24d8:	aa1303e1 	mov	x1, x19
[31m   b24dc:	97fdf3a1 	bl	2f360 <strcpy@plt>[0m
   b24e0:	aa0003f8 	mov	x24, x0
   b24e4:	17ffff6f 	b	b22a0 <sh_canonpath@@Base+0x30>
--
   b2598:	f9432aa1 	ldr	x1, [x21, #1616]
   b259c:	a90153f3 	stp	x19, x20, [sp, #16]
   b25a0:	aa0003f3 	mov	x19, x0
   b25a4:	f9400022 	ldr	x2, [x1]
   b25a8:	f91047e2 	str	x2, [sp, #8328]
   b25ac:	d2800002 	mov	x2, #0x0                   	// #0
   b25b0:	a9046bf9 	stp	x25, x26, [sp, #64]
   b25b4:	a90573fb 	stp	x27, x28, [sp, #80]
   b25b8:	97fdf102 	bl	2e9c0 <strlen@plt>
   b25bc:	aa0003f4 	mov	x20, x0
   b25c0:	d2820020 	mov	x0, #0x1001                	// #4097
   b25c4:	97ff7b5f 	bl	91340 <xmalloc@@Base>
   b25c8:	aa0003fb 	mov	x27, x0
   b25cc:	713ffe9f 	cmp	w20, #0xfff
   b25d0:	5400164d 	b.le	b2898 <sh_physpath@@Base+0x318>
   b25d4:	aa1303e0 	mov	x0, x19
   b25d8:	97fdf0fa 	bl	2e9c0 <strlen@plt>
   b25dc:	91000400 	add	x0, x0, #0x1
   b25e0:	97ff7b58 	bl	91340 <xmalloc@@Base>
   b25e4:	aa1303e1 	mov	x1, x19
[31m   b25e8:	97fdf35e 	bl	2f360 <strcpy@plt>[0m
   b25ec:	aa0003f9 	mov	x25, x0
   b25f0:	aa1903fa 	mov	x26, x25
--
   b26e0:	97fdf0b8 	bl	2e9c0 <strlen@plt>
   b26e4:	91000a61 	add	x1, x19, #0x2
   b26e8:	aa0003e4 	mov	x4, x0
   b26ec:	8b000021 	add	x1, x1, x0
   b26f0:	f13ffc3f 	cmp	x1, #0xfff
   b26f4:	54000a48 	b.hi	b283c <sh_physpath@@Base+0x2bc>  // b.pmore
   b26f8:	aa1703e1 	mov	x1, x23
   b26fc:	d2820022 	mov	x2, #0x1001                	// #4097
   b2700:	aa1603e0 	mov	x0, x22
   b2704:	f90037e4 	str	x4, [sp, #104]
[31m   b2708:	97fdf1b6 	bl	2ede0 <__strcpy_chk@plt>[0m
   b270c:	f94037e4 	ldr	x4, [sp, #104]
   b2710:	528005e3 	mov	w3, #0x2f                  	// #47
   b2714:	aa1403e1 	mov	x1, x20
   b2718:	8b1302c0 	add	x0, x22, x19
   b271c:	91000482 	add	x2, x4, #0x1
   b2720:	38336ac3 	strb	w3, [x22, x19]
   b2724:	97fdf087 	bl	2e940 <memcpy@plt>
   b2728:	aa1603e1 	mov	x1, x22
   b272c:	aa1903e0 	mov	x0, x25
[31m   b2730:	97fdf30c 	bl	2f360 <strcpy@plt>[0m
   b2734:	d2820200 	mov	x0, #0x1010                	// #4112
   b2738:	8b2063e0 	add	x0, sp, x0
--
   b285c:	d280001b 	mov	x27, #0x0                   	// #0
   b2860:	f9432ab5 	ldr	x21, [x21, #1616]
   b2864:	f95047e1 	ldr	x1, [sp, #8328]
   b2868:	f94002a0 	ldr	x0, [x21]
   b286c:	ca000020 	eor	x0, x1, x0
   b2870:	b5000a60 	cbnz	x0, b29bc <sh_physpath@@Base+0x43c>
   b2874:	aa1b03e0 	mov	x0, x27
   b2878:	d284120c 	mov	x12, #0x2090                	// #8336
   b287c:	a9407bfd 	ldp	x29, x30, [sp]
   b2880:	a94153f3 	ldp	x19, x20, [sp, #16]
   b2884:	a9425bf5 	ldp	x21, x22, [sp, #32]
   b2888:	a9446bf9 	ldp	x25, x26, [sp, #64]
   b288c:	a94573fb 	ldp	x27, x28, [sp, #80]
   b2890:	8b2c63ff 	add	sp, sp, x12
   b2894:	d65f03c0 	ret
   b2898:	d2820020 	mov	x0, #0x1001                	// #4097
   b289c:	97ff7aa9 	bl	91340 <xmalloc@@Base>
   b28a0:	aa0003f9 	mov	x25, x0
   b28a4:	aa1303e1 	mov	x1, x19
   b28a8:	aa1903fa 	mov	x26, x25
[31m   b28ac:	97fdf2ad 	bl	2f360 <strcpy@plt>[0m
   b28b0:	38401740 	ldrb	w0, [x26], #1
   b28b4:	7100bc1f 	cmp	w0, #0x2f
--
   b2a50:	aa1503e0 	mov	x0, x21
   b2a54:	97fdf2c3 	bl	2f560 <strncpy@plt>
   b2a58:	393ffebf 	strb	wzr, [x21, #4095]
   b2a5c:	aa1303e0 	mov	x0, x19
   b2a60:	aa1503f3 	mov	x19, x21
   b2a64:	97fdf1e3 	bl	2f1f0 <free@plt>
   b2a68:	aa1303e0 	mov	x0, x19
   b2a6c:	a94153f3 	ldp	x19, x20, [sp, #16]
   b2a70:	f94013f5 	ldr	x21, [sp, #32]
   b2a74:	a8c37bfd 	ldp	x29, x30, [sp], #48
   b2a78:	d65f03c0 	ret
   b2a7c:	aa1303e0 	mov	x0, x19
   b2a80:	a94153f3 	ldp	x19, x20, [sp, #16]
   b2a84:	f94013f5 	ldr	x21, [sp, #32]
   b2a88:	a8c37bfd 	ldp	x29, x30, [sp], #48
   b2a8c:	d65f03c0 	ret
   b2a90:	97fdefcc 	bl	2e9c0 <strlen@plt>
   b2a94:	91000400 	add	x0, x0, #0x1
   b2a98:	97ff7a2a 	bl	91340 <xmalloc@@Base>
   b2a9c:	aa1403e1 	mov	x1, x20
[31m   b2aa0:	97fdf230 	bl	2f360 <strcpy@plt>[0m
   b2aa4:	aa0003f4 	mov	x20, x0
   b2aa8:	17ffffe0 	b	b2a28 <sh_realpath@@Base+0x58>
--
   b2fbc:	97ffff79 	bl	b2da0 <strlist_create@@Base>
   b2fc0:	aa0003f6 	mov	x22, x0
   b2fc4:	f9400282 	ldr	x2, [x20]
   b2fc8:	b4000442 	cbz	x2, b3050 <strlist_copy@@Base+0xb0>
   b2fcc:	b9400a83 	ldr	w3, [x20, #8]
   b2fd0:	d2800013 	mov	x19, #0x0                   	// #0
   b2fd4:	52800015 	mov	w21, #0x0                   	// #0
   b2fd8:	7100007f 	cmp	w3, #0x0
   b2fdc:	2a0303e1 	mov	w1, w3
   b2fe0:	5400006c 	b.gt	b2fec <strlist_copy@@Base+0x4c>
   b2fe4:	1400002a 	b	b308c <strlist_copy@@Base+0xec>
   b2fe8:	f9400282 	ldr	x2, [x20]
   b2fec:	110006b5 	add	w21, w21, #0x1
   b2ff0:	f8736840 	ldr	x0, [x2, x19]
   b2ff4:	b4000100 	cbz	x0, b3014 <strlist_copy@@Base+0x74>
   b2ff8:	97fdee72 	bl	2e9c0 <strlen@plt>
   b2ffc:	91000400 	add	x0, x0, #0x1
   b3000:	97ff78d0 	bl	91340 <xmalloc@@Base>
   b3004:	f9400281 	ldr	x1, [x20]
   b3008:	f8736821 	ldr	x1, [x1, x19]
[31m   b300c:	97fdf0d5 	bl	2f360 <strcpy@plt>[0m
   b3010:	b9400a81 	ldr	w1, [x20, #8]
   b3014:	f94002c2 	ldr	x2, [x22]
--
   b30c4:	b9400c15 	ldr	w21, [x0, #12]
   b30c8:	b4000761 	cbz	x1, b31b4 <strlist_merge@@Base+0x114>
   b30cc:	b9400c37 	ldr	w23, [x1, #12]
   b30d0:	0b1702a0 	add	w0, w21, w23
   b30d4:	11000400 	add	w0, w0, #0x1
   b30d8:	97ffff32 	bl	b2da0 <strlist_create@@Base>
   b30dc:	710002bf 	cmp	w21, #0x0
   b30e0:	aa0003f8 	mov	x24, x0
   b30e4:	540009ad 	b.le	b3218 <strlist_merge@@Base+0x178>
   b30e8:	d2800013 	mov	x19, #0x0                   	// #0
   b30ec:	52800014 	mov	w20, #0x0                   	// #0
   b30f0:	f9400320 	ldr	x0, [x25]
   b30f4:	11000694 	add	w20, w20, #0x1
   b30f8:	f8736800 	ldr	x0, [x0, x19]
   b30fc:	b40000e0 	cbz	x0, b3118 <strlist_merge@@Base+0x78>
   b3100:	97fdee30 	bl	2e9c0 <strlen@plt>
   b3104:	91000400 	add	x0, x0, #0x1
   b3108:	97ff788e 	bl	91340 <xmalloc@@Base>
   b310c:	f9400321 	ldr	x1, [x25]
   b3110:	f8736821 	ldr	x1, [x1, x19]
[31m   b3114:	97fdf093 	bl	2f360 <strcpy@plt>[0m
   b3118:	f9400301 	ldr	x1, [x24]
   b311c:	6b1402bf 	cmp	w21, w20
   b3120:	f8336820 	str	x0, [x1, x19]
   b3124:	91002273 	add	x19, x19, #0x8
   b3128:	54fffe4c 	b.gt	b30f0 <strlist_merge@@Base+0x50>
   b312c:	f94023f9 	ldr	x25, [sp, #64]
   b3130:	937d7ea2 	sbfiz	x2, x21, #3, #32
   b3134:	710002ff 	cmp	w23, #0x0
   b3138:	540006ad 	b.le	b320c <strlist_merge@@Base+0x16c>
   b313c:	510006f4 	sub	w20, w23, #0x1
   b3140:	d2800013 	mov	x19, #0x0                   	// #0
   b3144:	91000694 	add	x20, x20, #0x1
   b3148:	d37df294 	lsl	x20, x20, #3
   b314c:	d503201f 	nop
   b3150:	f94002c0 	ldr	x0, [x22]
   b3154:	f8736800 	ldr	x0, [x0, x19]
   b3158:	b40000e0 	cbz	x0, b3174 <strlist_merge@@Base+0xd4>
   b315c:	97fdee19 	bl	2e9c0 <strlen@plt>
   b3160:	91000400 	add	x0, x0, #0x1
   b3164:	97ff7877 	bl	91340 <xmalloc@@Base>
   b3168:	f94002c1 	ldr	x1, [x22]
   b316c:	f8736821 	ldr	x1, [x1, x19]
[31m   b3170:	97fdf07c 	bl	2f360 <strcpy@plt>[0m
   b3174:	f9400301 	ldr	x1, [x24]
   b3178:	8b35ce62 	add	x2, x19, w21, sxtw #3
--
   b3270:	b9400c18 	ldr	w24, [x0, #12]
   b3274:	0b160317 	add	w23, w24, w22
   b3278:	110006e1 	add	w1, w23, #0x1
   b327c:	97fffee9 	bl	b2e20 <strlist_resize@@Base>
   b3280:	710002df 	cmp	w22, #0x0
   b3284:	aa0003f4 	mov	x20, x0
   b3288:	5400048d 	b.le	b3318 <strlist_append@@Base+0xe8>
   b328c:	510006d6 	sub	w22, w22, #0x1
   b3290:	d2800013 	mov	x19, #0x0                   	// #0
   b3294:	910006d6 	add	x22, x22, #0x1
   b3298:	d37df2d6 	lsl	x22, x22, #3
   b329c:	d503201f 	nop
   b32a0:	f94002a0 	ldr	x0, [x21]
   b32a4:	f8736800 	ldr	x0, [x0, x19]
   b32a8:	b40000e0 	cbz	x0, b32c4 <strlist_append@@Base+0x94>
   b32ac:	97fdedc5 	bl	2e9c0 <strlen@plt>
   b32b0:	91000400 	add	x0, x0, #0x1
   b32b4:	97ff7823 	bl	91340 <xmalloc@@Base>
   b32b8:	f94002a1 	ldr	x1, [x21]
   b32bc:	f8736821 	ldr	x1, [x1, x19]
[31m   b32c0:	97fdf028 	bl	2f360 <strcpy@plt>[0m
   b32c4:	f9400281 	ldr	x1, [x20]
   b32c8:	8b38ce62 	add	x2, x19, w24, sxtw #3
--
   b3424:	11000ac0 	add	w0, w22, #0x2
   b3428:	93407edb 	sxtw	x27, w22
   b342c:	d2800014 	mov	x20, #0x0                   	// #0
   b3430:	b9006fe0 	str	w0, [sp, #108]
   b3434:	110006c0 	add	w0, w22, #0x1
   b3438:	b9006be0 	str	w0, [sp, #104]
   b343c:	14000019 	b	b34a0 <strlist_prefix_suffix@@Base+0x180>
   b3440:	39400401 	ldrb	w1, [x0, #1]
   b3444:	35000601 	cbnz	w1, b3504 <strlist_prefix_suffix@@Base+0x1e4>
   b3448:	b9406be0 	ldr	w0, [sp, #104]
   b344c:	5280003a 	mov	w26, #0x1                   	// #1
   b3450:	0b0002e0 	add	w0, w23, w0
   b3454:	11000800 	add	w0, w0, #0x2
   b3458:	93407c00 	sxtw	x0, w0
   b345c:	97ff77b9 	bl	91340 <xmalloc@@Base>
   b3460:	aa0003f3 	mov	x19, x0
   b3464:	35000396 	cbnz	w22, b34d4 <strlist_prefix_suffix@@Base+0x1b4>
   b3468:	f9400381 	ldr	x1, [x28]
   b346c:	8b1b0260 	add	x0, x19, x27
   b3470:	f8756821 	ldr	x1, [x1, x21]
[31m   b3474:	97fdefbb 	bl	2f360 <strcpy@plt>[0m
   b3478:	350003d7 	cbnz	w23, b34f0 <strlist_prefix_suffix@@Base+0x1d0>
   b347c:	f9400380 	ldr	x0, [x28]
--
   b3488:	97fdef5a 	bl	2f1f0 <free@plt>
   b348c:	f940039a 	ldr	x26, [x28]
   b3490:	b9400f80 	ldr	w0, [x28, #12]
   b3494:	f8356b53 	str	x19, [x26, x21]
   b3498:	6b14001f 	cmp	w0, w20
   b349c:	54fff7ed 	b.le	b3398 <strlist_prefix_suffix@@Base+0x78>
   b34a0:	f8747b40 	ldr	x0, [x26, x20, lsl #3]
   b34a4:	d37df295 	lsl	x21, x20, #3
   b34a8:	b4000060 	cbz	x0, b34b4 <strlist_prefix_suffix@@Base+0x194>
   b34ac:	39400001 	ldrb	w1, [x0]
   b34b0:	35fffc81 	cbnz	w1, b3440 <strlist_prefix_suffix@@Base+0x120>
   b34b4:	2a1603e0 	mov	w0, w22
   b34b8:	5280001a 	mov	w26, #0x0                   	// #0
   b34bc:	0b0002e0 	add	w0, w23, w0
   b34c0:	11000800 	add	w0, w0, #0x2
   b34c4:	93407c00 	sxtw	x0, w0
   b34c8:	97ff779e 	bl	91340 <xmalloc@@Base>
   b34cc:	aa0003f3 	mov	x19, x0
   b34d0:	34fffcd6 	cbz	w22, b3468 <strlist_prefix_suffix@@Base+0x148>
   b34d4:	aa1803e1 	mov	x1, x24
[31m   b34d8:	97fdefa2 	bl	2f360 <strcpy@plt>[0m
   b34dc:	f9400381 	ldr	x1, [x28]
   b34e0:	8b1b0260 	add	x0, x19, x27
   b34e4:	f8756821 	ldr	x1, [x1, x21]
[31m   b34e8:	97fdef9e 	bl	2f360 <strcpy@plt>[0m
   b34ec:	34fffc97 	cbz	w23, b347c <strlist_prefix_suffix@@Base+0x15c>
   b34f0:	8b3ac360 	add	x0, x27, w26, sxtw
   b34f4:	aa1903e1 	mov	x1, x25
   b34f8:	8b000260 	add	x0, x19, x0
[31m   b34fc:	97fdef99 	bl	2f360 <strcpy@plt>[0m
   b3500:	17ffffdf 	b	b347c <strlist_prefix_suffix@@Base+0x15c>
   b3504:	39400801 	ldrb	w1, [x0, #2]
--
   b3958:	b4000400 	cbz	x0, b39d8 <strvec_copy@@Base+0x98>
   b395c:	d1002283 	sub	x3, x20, #0x8
   b3960:	d2800021 	mov	x1, #0x1                   	// #1
   b3964:	d503201f 	nop
   b3968:	2a0103e2 	mov	w2, w1
   b396c:	91000421 	add	x1, x1, #0x1
   b3970:	f8617860 	ldr	x0, [x3, x1, lsl #3]
   b3974:	b5ffffa0 	cbnz	x0, b3968 <strvec_copy@@Base+0x28>
   b3978:	11000440 	add	w0, w2, #0x1
   b397c:	937d7c00 	sbfiz	x0, x0, #3, #32
   b3980:	97ff7670 	bl	91340 <xmalloc@@Base>
   b3984:	aa0003f5 	mov	x21, x0
   b3988:	f9400280 	ldr	x0, [x20]
   b398c:	b4000300 	cbz	x0, b39ec <strvec_copy@@Base+0xac>
   b3990:	d2800013 	mov	x19, #0x0                   	// #0
   b3994:	d503201f 	nop
   b3998:	97fdec0a 	bl	2e9c0 <strlen@plt>
   b399c:	91000400 	add	x0, x0, #0x1
   b39a0:	97ff7668 	bl	91340 <xmalloc@@Base>
   b39a4:	f8736a81 	ldr	x1, [x20, x19]
[31m   b39a8:	97fdee6e 	bl	2f360 <strcpy@plt>[0m
   b39ac:	f8336aa0 	str	x0, [x21, x19]
   b39b0:	91002273 	add	x19, x19, #0x8
--
   b3ab4:	54ffffac 	b.gt	b3aa8 <strvec_from_word_list@@Base+0x48>
   b3ab8:	b4000333 	cbz	x19, b3b1c <strvec_from_word_list@@Base+0xbc>
   b3abc:	110006b4 	add	w20, w21, #0x1
   b3ac0:	f90023f9 	str	x25, [sp, #64]
   b3ac4:	d10022f9 	sub	x25, x23, #0x8
   b3ac8:	93407e94 	sxtw	x20, w20
   b3acc:	14000005 	b	b3ae0 <strvec_from_word_list@@Base+0x80>
   b3ad0:	f9400273 	ldr	x19, [x19]
   b3ad4:	f8347b20 	str	x0, [x25, x20, lsl #3]
   b3ad8:	91000694 	add	x20, x20, #0x1
   b3adc:	b40001f3 	cbz	x19, b3b18 <strvec_from_word_list@@Base+0xb8>
   b3ae0:	f9400662 	ldr	x2, [x19, #8]
   b3ae4:	2a1403f5 	mov	w21, w20
   b3ae8:	f9400040 	ldr	x0, [x2]
   b3aec:	34ffff38 	cbz	w24, b3ad0 <strvec_from_word_list@@Base+0x70>
   b3af0:	97fdebb4 	bl	2e9c0 <strlen@plt>
   b3af4:	91000400 	add	x0, x0, #0x1
   b3af8:	97ff7612 	bl	91340 <xmalloc@@Base>
   b3afc:	f9400661 	ldr	x1, [x19, #8]
   b3b00:	f9400021 	ldr	x1, [x1]
[31m   b3b04:	97fdee17 	bl	2f360 <strcpy@plt>[0m
   b3b08:	f9400273 	ldr	x19, [x19]
   b3b0c:	f8347b20 	str	x0, [x25, x20, lsl #3]
--
   b7224:	d2800004 	mov	x4, #0x0                   	// #0
   b7228:	d2800003 	mov	x3, #0x0                   	// #0
   b722c:	d2800002 	mov	x2, #0x0                   	// #0
   b7230:	d2800001 	mov	x1, #0x0                   	// #0
   b7234:	9101a3f7 	add	x23, sp, #0x68
   b7238:	a9049bf7 	stp	x23, x6, [sp, #72]
   b723c:	a90597f5 	stp	x21, x5, [sp, #88]
   b7240:	97fddfd0 	bl	2f180 <iconv@plt>
   b7244:	910143e4 	add	x4, sp, #0x50
   b7248:	f94006c0 	ldr	x0, [x22, #8]
   b724c:	910123e3 	add	x3, sp, #0x48
   b7250:	910183e2 	add	x2, sp, #0x60
   b7254:	910163e1 	add	x1, sp, #0x58
   b7258:	97fddfca 	bl	2f180 <iconv@plt>
   b725c:	b100041f 	cmn	x0, #0x1
   b7260:	540005e0 	b.eq	b731c <u32cconv@@Base+0x1ac>  // b.none
   b7264:	f94027e2 	ldr	x2, [sp, #72]
   b7268:	aa1703e1 	mov	x1, x23
   b726c:	aa1503e0 	mov	x0, x21
   b7270:	3900005f 	strb	wzr, [x2]
[31m   b7274:	97fde03b 	bl	2f360 <strcpy@plt>[0m
   b7278:	f94027e0 	ldr	x0, [sp, #72]
   b727c:	4b170000 	sub	w0, w0, w23
--
   b7e68:	911be280 	add	x0, x20, #0x6f8
   b7e6c:	f0000141 	adrp	x1, e2000 <_IO_stdin_used@@Base+0x1db8>
   b7e70:	91206021 	add	x1, x1, #0x818
   b7e74:	f900041f 	str	xzr, [x0, #8]
   b7e78:	d00003a2 	adrp	x2, 12d000 <o_options@@Base+0x2220>
   b7e7c:	911be294 	add	x20, x20, #0x6f8
   b7e80:	aa1303e0 	mov	x0, x19
   b7e84:	f9411c42 	ldr	x2, [x2, #568]
   b7e88:	f9000041 	str	x1, [x2]
   b7e8c:	94004d49 	bl	cb3b0 <rl_expand_prompt@@Base>
   b7e90:	b9001280 	str	w0, [x20, #16]
   b7e94:	52800000 	mov	w0, #0x0                   	// #0
   b7e98:	a94153f3 	ldp	x19, x20, [sp, #16]
   b7e9c:	a8c27bfd 	ldp	x29, x30, [sp], #32
   b7ea0:	d65f03c0 	ret
   b7ea4:	aa1303e0 	mov	x0, x19
   b7ea8:	97fddac6 	bl	2e9c0 <strlen@plt>
   b7eac:	91000400 	add	x0, x0, #0x1
   b7eb0:	97ff6524 	bl	91340 <xmalloc@@Base>
   b7eb4:	aa1303e1 	mov	x1, x19
[31m   b7eb8:	97fddd2a 	bl	2f360 <strcpy@plt>[0m
   b7ebc:	911be282 	add	x2, x20, #0x6f8
   b7ec0:	aa0003e1 	mov	x1, x0
--
   b8050:	a9025bf5 	stp	x21, x22, [sp, #32]
   b8054:	2a0003f5 	mov	w21, w0
   b8058:	a90153f3 	stp	x19, x20, [sp, #16]
   b805c:	b9400020 	ldr	w0, [x1]
   b8060:	35000820 	cbnz	w0, b8164 <readline_internal_teardown@@Base+0x124>
   b8064:	b00003b4 	adrp	x20, 12d000 <o_options@@Base+0x2220>
   b8068:	b0000413 	adrp	x19, 139000 <dircomplete_expand@@Base+0x68>
   b806c:	94008689 	bl	d9a90 <current_history@@Base>
   b8070:	b4000380 	cbz	x0, b80e0 <readline_internal_teardown@@Base+0xa0>
   b8074:	f9439a80 	ldr	x0, [x20, #1840]
   b8078:	f9400000 	ldr	x0, [x0]
   b807c:	b40005e0 	cbz	x0, b8138 <readline_internal_teardown@@Base+0xf8>
   b8080:	f9001bf7 	str	x23, [sp, #48]
   b8084:	b0000413 	adrp	x19, 139000 <dircomplete_expand@@Base+0x68>
   b8088:	911be277 	add	x23, x19, #0x6f8
   b808c:	f94026e0 	ldr	x0, [x23, #72]
   b8090:	97fdda4c 	bl	2e9c0 <strlen@plt>
   b8094:	91000400 	add	x0, x0, #0x1
   b8098:	97ff64aa 	bl	91340 <xmalloc@@Base>
   b809c:	f94026e1 	ldr	x1, [x23, #72]
[31m   b80a0:	97fddcb0 	bl	2f360 <strcpy@plt>[0m
   b80a4:	aa0003f6 	mov	x22, x0
   b80a8:	52800001 	mov	w1, #0x0                   	// #0
   b80ac:	52800020 	mov	w0, #0x1                   	// #1
   b80b0:	94006be0 	bl	d3030 <rl_revert_line@@Base>
   b80b4:	9400865b 	bl	d9a20 <where_history@@Base>
   b80b8:	f94026e1 	ldr	x1, [x23, #72]
   b80bc:	d2800002 	mov	x2, #0x0                   	// #0
   b80c0:	940087c0 	bl	d9fc0 <replace_history_entry@@Base>
   b80c4:	94008413 	bl	d9110 <_rl_free_history_entry@@Base>
   b80c8:	f94026e0 	ldr	x0, [x23, #72]
   b80cc:	aa1603e1 	mov	x1, x22
[31m   b80d0:	97fddca4 	bl	2f360 <strcpy@plt>[0m
   b80d4:	aa1603e0 	mov	x0, x22
   b80d8:	97ff64ca 	bl	91400 <xfree@@Base>
--
   b8574:	aa1403e1 	mov	x1, x20
   b8578:	a94153f3 	ldp	x19, x20, [sp, #16]
   b857c:	a9425bf5 	ldp	x21, x22, [sp, #32]
   b8580:	a94363f7 	ldp	x23, x24, [sp, #48]
   b8584:	a9446bf9 	ldp	x25, x26, [sp, #64]
   b8588:	a8c57bfd 	ldp	x29, x30, [sp], #80
   b858c:	14000201 	b	b8d90 <readline_internal_char@@Base+0x380>
   b8590:	f9400720 	ldr	x0, [x25, #8]
   b8594:	52800017 	mov	w23, #0x0                   	// #0
   b8598:	900003d6 	adrp	x22, 130000 <static_shell_builtins@@Base+0xe68>
   b859c:	b4fff2a0 	cbz	x0, b83f0 <_rl_dispatch_subseq@@Base+0x70>
   b85a0:	911be2b5 	add	x21, x21, #0x6f8
   b85a4:	b9807aa0 	ldrsw	x0, [x21, #120]
   b85a8:	f94042a1 	ldr	x1, [x21, #128]
   b85ac:	3820683f 	strb	wzr, [x1, x0]
   b85b0:	f9400720 	ldr	x0, [x25, #8]
   b85b4:	97fdd903 	bl	2e9c0 <strlen@plt>
   b85b8:	91000400 	add	x0, x0, #0x1
   b85bc:	97ff6361 	bl	91340 <xmalloc@@Base>
   b85c0:	f9400721 	ldr	x1, [x25, #8]
[31m   b85c4:	97fddb67 	bl	2f360 <strcpy@plt>[0m
   b85c8:	94006afa 	bl	d31b0 <_rl_with_macro_input@@Base>
   b85cc:	a9425bf5 	ldp	x21, x22, [sp, #32]
--
   bef34:	940034cf 	bl	cc270 <rl_restore_prompt@@Base>
   bef38:	b9400662 	ldr	w2, [x19, #4]
   bef3c:	b9406661 	ldr	w1, [x19, #100]
   bef40:	f9401680 	ldr	x0, [x20, #40]
   bef44:	121c0042 	and	w2, w2, #0x10
   bef48:	a94153f3 	ldp	x19, x20, [sp, #16]
   bef4c:	a8c37bfd 	ldp	x29, x30, [sp], #48
   bef50:	17ffffa8 	b	bedf0 <rl_free_keymap@@Base+0x3f0>
   bef54:	b9403a61 	ldr	w1, [x19, #56]
   bef58:	f90013f5 	str	x21, [sp, #32]
   bef5c:	b9002461 	str	w1, [x3, #36]
   bef60:	b4000040 	cbz	x0, bef68 <rl_free_keymap@@Base+0x568>
   bef64:	97fdc0a3 	bl	2f1f0 <free@plt>
   bef68:	f0000375 	adrp	x21, 12d000 <o_options@@Base+0x2220>
   bef6c:	f94186b5 	ldr	x21, [x21, #776]
   bef70:	f94002a0 	ldr	x0, [x21]
   bef74:	97fdbe93 	bl	2e9c0 <strlen@plt>
   bef78:	91000400 	add	x0, x0, #0x1
   bef7c:	97ff48f1 	bl	91340 <xmalloc@@Base>
   bef80:	f94002a1 	ldr	x1, [x21]
[31m   bef84:	97fdc0f7 	bl	2f360 <strcpy@plt>[0m
   bef88:	91226281 	add	x1, x20, #0x898
   bef8c:	f9001420 	str	x0, [x1, #40]
--
   c02fc:	a8c27bfd 	ldp	x29, x30, [sp], #32
   c0300:	d65f03c0 	ret
   c0304:	d503201f 	nop
   c0308:	d503201f 	nop
   c030c:	d503201f 	nop
   c0310:	a9bd7bfd 	stp	x29, x30, [sp, #-48]!
   c0314:	910003fd 	mov	x29, sp
   c0318:	a90153f3 	stp	x19, x20, [sp, #16]
   c031c:	aa0203f4 	mov	x20, x2
   c0320:	a9025bf5 	stp	x21, x22, [sp, #32]
   c0324:	aa0003f5 	mov	x21, x0
   c0328:	97fdb9a6 	bl	2e9c0 <strlen@plt>
   c032c:	91000800 	add	x0, x0, #0x2
   c0330:	97ff4404 	bl	91340 <xmalloc@@Base>
   c0334:	b00003d6 	adrp	x22, 139000 <dircomplete_expand@@Base+0x68>
   c0338:	f944dac2 	ldr	x2, [x22, #2480]
   c033c:	aa0003f3 	mov	x19, x0
   c0340:	aa1503e1 	mov	x1, x21
   c0344:	39400042 	ldrb	w2, [x2]
   c0348:	38001402 	strb	w2, [x0], #1
[31m   c034c:	97fdbc05 	bl	2f360 <strcpy@plt>[0m
   c0350:	b4000094 	cbz	x20, c0360 <_rl_restore_tty_signals@@Base+0xb0>
   c0354:	f944dac0 	ldr	x0, [x22, #2480]
--
   c0380:	a9b47bfd 	stp	x29, x30, [sp, #-192]!
   c0384:	910003fd 	mov	x29, sp
   c0388:	a90153f3 	stp	x19, x20, [sp, #16]
   c038c:	b0000373 	adrp	x19, 12d000 <o_options@@Base+0x2220>
   c0390:	aa0003f4 	mov	x20, x0
   c0394:	f9432a61 	ldr	x1, [x19, #1616]
   c0398:	f9001bff 	str	xzr, [sp, #48]
   c039c:	f9400023 	ldr	x3, [x1]
   c03a0:	f9005fe3 	str	x3, [sp, #184]
   c03a4:	d2800003 	mov	x3, #0x0                   	// #0
   c03a8:	f90013f5 	str	x21, [sp, #32]
   c03ac:	b00003d5 	adrp	x21, 139000 <dircomplete_expand@@Base+0x68>
   c03b0:	9126c2b5 	add	x21, x21, #0x9b0
   c03b4:	aa0003e1 	mov	x1, x0
   c03b8:	f94006a2 	ldr	x2, [x21, #8]
   c03bc:	b4000162 	cbz	x2, c03e8 <_rl_restore_tty_signals@@Base+0x138>
   c03c0:	97fdb980 	bl	2e9c0 <strlen@plt>
   c03c4:	91000400 	add	x0, x0, #0x1
   c03c8:	97ff43de 	bl	91340 <xmalloc@@Base>
   c03cc:	aa1403e1 	mov	x1, x20
[31m   c03d0:	97fdbbe4 	bl	2f360 <strcpy@plt>[0m
   c03d4:	f94006a1 	ldr	x1, [x21, #8]
   c03d8:	f9001be0 	str	x0, [sp, #48]
--
   c0638:	b00003a1 	adrp	x1, 135000 <emacs_standard_keymap@@Base+0x310>
   c063c:	b94d1021 	ldr	w1, [x1, #3344]
   c0640:	910343f8 	add	x24, sp, #0xd0
   c0644:	34fffbc1 	cbz	w1, c05bc <_rl_restore_tty_signals@@Base+0x30c>
   c0648:	9126c093 	add	x19, x4, #0x9b0
   c064c:	3822cb01 	strb	w1, [x24, w2, sxtw]
   c0650:	2a1503e2 	mov	w2, w21
   c0654:	110006b5 	add	w21, w21, #0x1
   c0658:	b9401a61 	ldr	w1, [x19, #24]
   c065c:	3822cb1f 	strb	wzr, [x24, w2, sxtw]
   c0660:	34fffb61 	cbz	w1, c05cc <_rl_restore_tty_signals@@Base+0x31c>
   c0664:	d503201f 	nop
   c0668:	94007a12 	bl	deeb0 <tilde_expand@@Base>
   c066c:	aa0003f6 	mov	x22, x0
   c0670:	f9400662 	ldr	x2, [x19, #8]
   c0674:	b40001a2 	cbz	x2, c06a8 <_rl_restore_tty_signals@@Base+0x3f8>
   c0678:	97fdb8d2 	bl	2e9c0 <strlen@plt>
   c067c:	91000400 	add	x0, x0, #0x1
   c0680:	97ff4330 	bl	91340 <xmalloc@@Base>
   c0684:	aa1603e1 	mov	x1, x22
[31m   c0688:	97fdbb36 	bl	2f360 <strcpy@plt>[0m
   c068c:	f9400661 	ldr	x1, [x19, #8]
   c0690:	f90027e0 	str	x0, [sp, #72]
--
   c0cd8:	f90043e0 	str	x0, [sp, #128]
   c0cdc:	aa1503e0 	mov	x0, x21
   c0ce0:	94007874 	bl	deeb0 <tilde_expand@@Base>
   c0ce4:	9126c2c1 	add	x1, x22, #0x9b0
   c0ce8:	f9003fe0 	str	x0, [sp, #120]
   c0cec:	f9401821 	ldr	x1, [x1, #48]
   c0cf0:	b4000081 	cbz	x1, c0d00 <_rl_restore_tty_signals@@Base+0xa50>
   c0cf4:	9101e3e0 	add	x0, sp, #0x78
   c0cf8:	d63f0020 	blr	x1
   c0cfc:	f9403fe0 	ldr	x0, [sp, #120]
   c0d00:	97fdb730 	bl	2e9c0 <strlen@plt>
   c0d04:	aa0003f5 	mov	x21, x0
   c0d08:	aa1303e0 	mov	x0, x19
   c0d0c:	97fdb72d 	bl	2e9c0 <strlen@plt>
   c0d10:	0b150000 	add	w0, w0, w21
   c0d14:	11000800 	add	w0, w0, #0x2
   c0d18:	93407c00 	sxtw	x0, w0
   c0d1c:	97ff4189 	bl	91340 <xmalloc@@Base>
   c0d20:	f9403fe1 	ldr	x1, [sp, #120]
   c0d24:	aa0003fa 	mov	x26, x0
[31m   c0d28:	97fdb98e 	bl	2f360 <strcpy@plt>[0m
   c0d2c:	f9403fe1 	ldr	x1, [sp, #120]
   c0d30:	93407ea0 	sxtw	x0, w21
   c0d34:	8b35c021 	add	x1, x1, w21, sxtw
   c0d38:	385ff021 	ldurb	w1, [x1, #-1]
   c0d3c:	7100bc3f 	cmp	w1, #0x2f
   c0d40:	540006e0 	b.eq	c0e1c <_rl_restore_tty_signals@@Base+0xb6c>  // b.none
   c0d44:	528005e1 	mov	w1, #0x2f                  	// #47
   c0d48:	9126c2db 	add	x27, x22, #0x9b0
   c0d4c:	38206b41 	strb	w1, [x26, x0]
   c0d50:	91000400 	add	x0, x0, #0x1
   c0d54:	8b000340 	add	x0, x26, x0
   c0d58:	aa1303e1 	mov	x1, x19
[31m   c0d5c:	97fdb981 	bl	2f360 <strcpy@plt>[0m
   c0d60:	b9402b60 	ldr	w0, [x27, #40]
   c0d64:	350006e0 	cbnz	w0, c0e40 <_rl_restore_tty_signals@@Base+0xb90>
--
   c0de4:	2a0003f5 	mov	w21, w0
   c0de8:	710002bf 	cmp	w21, #0x0
   c0dec:	b9006be0 	str	w0, [sp, #104]
   c0df0:	528005e0 	mov	w0, #0x2f                  	// #47
   c0df4:	1a8002b5 	csel	w21, w21, w0, eq  // eq = none
   c0df8:	b94022c0 	ldr	w0, [x22, #32]
   c0dfc:	34fffc20 	cbz	w0, c0d80 <_rl_restore_tty_signals@@Base+0xad0>
   c0e00:	2a1703e1 	mov	w1, w23
   c0e04:	aa1a03e2 	mov	x2, x26
   c0e08:	aa1303e0 	mov	x0, x19
   c0e0c:	97fffe99 	bl	c0870 <_rl_restore_tty_signals@@Base+0x5c0>
   c0e10:	2a0003f8 	mov	w24, w0
   c0e14:	b9006be0 	str	w0, [sp, #104]
   c0e18:	17ffffda 	b	c0d80 <_rl_restore_tty_signals@@Base+0xad0>
   c0e1c:	510006b5 	sub	w21, w21, #0x1
   c0e20:	9126c2db 	add	x27, x22, #0x9b0
   c0e24:	aa1303e1 	mov	x1, x19
   c0e28:	93407ea0 	sxtw	x0, w21
   c0e2c:	91000400 	add	x0, x0, #0x1
   c0e30:	8b000340 	add	x0, x26, x0
[31m   c0e34:	97fdb94b 	bl	2f360 <strcpy@plt>[0m
   c0e38:	b9402b60 	ldr	w0, [x27, #40]
   c0e3c:	34fff960 	cbz	w0, c0d68 <_rl_restore_tty_signals@@Base+0xab8>
--
   c0ec8:	97ff414e 	bl	91400 <xfree@@Base>
   c0ecc:	17ffffb5 	b	c0da0 <_rl_restore_tty_signals@@Base+0xaf0>
   c0ed0:	97fffd2c 	bl	c0380 <_rl_restore_tty_signals@@Base+0xd0>
   c0ed4:	b9006be0 	str	w0, [sp, #104]
   c0ed8:	b94022c0 	ldr	w0, [x22, #32]
   c0edc:	b9406bf5 	ldr	w21, [sp, #104]
   c0ee0:	34fff5a0 	cbz	w0, c0d94 <_rl_restore_tty_signals@@Base+0xae4>
   c0ee4:	f9403fe2 	ldr	x2, [sp, #120]
   c0ee8:	2a1703e1 	mov	w1, w23
   c0eec:	aa1303e0 	mov	x0, x19
   c0ef0:	97fffe60 	bl	c0870 <_rl_restore_tty_signals@@Base+0x5c0>
   c0ef4:	2a0003f8 	mov	w24, w0
   c0ef8:	17ffffa7 	b	c0d94 <_rl_restore_tty_signals@@Base+0xae4>
   c0efc:	f9400760 	ldr	x0, [x27, #8]
   c0f00:	b4fff6c0 	cbz	x0, c0dd8 <_rl_restore_tty_signals@@Base+0xb28>
   c0f04:	aa1a03e0 	mov	x0, x26
   c0f08:	97fdb6ae 	bl	2e9c0 <strlen@plt>
   c0f0c:	91000400 	add	x0, x0, #0x1
   c0f10:	97ff410c 	bl	91340 <xmalloc@@Base>
   c0f14:	aa1a03e1 	mov	x1, x26
[31m   c0f18:	97fdb912 	bl	2f360 <strcpy@plt>[0m
   c0f1c:	f9400761 	ldr	x1, [x27, #8]
   c0f20:	f90043e0 	str	x0, [sp, #128]
--
   c0fc4:	aa1403e0 	mov	x0, x20
   c0fc8:	97fdb812 	bl	2f010 <closedir@plt>
   c0fcc:	f9001eff 	str	xzr, [x23, #56]
   c0fd0:	9126c260 	add	x0, x19, #0x9b0
   c0fd4:	f9402000 	ldr	x0, [x0, #64]
   c0fd8:	b4000040 	cbz	x0, c0fe0 <rl_filename_completion_function@@Base+0x60>
   c0fdc:	97fdb885 	bl	2f1f0 <free@plt>
   c0fe0:	9126c260 	add	x0, x19, #0x9b0
   c0fe4:	f9402400 	ldr	x0, [x0, #72]
   c0fe8:	b4000040 	cbz	x0, c0ff0 <rl_filename_completion_function@@Base+0x70>
   c0fec:	97fdb881 	bl	2f1f0 <free@plt>
   c0ff0:	9126c260 	add	x0, x19, #0x9b0
   c0ff4:	f9402800 	ldr	x0, [x0, #80]
   c0ff8:	b4000040 	cbz	x0, c1000 <rl_filename_completion_function@@Base+0x80>
   c0ffc:	97fdb87d 	bl	2f1f0 <free@plt>
   c1000:	aa1503e0 	mov	x0, x21
   c1004:	97fdb66f 	bl	2e9c0 <strlen@plt>
   c1008:	91000400 	add	x0, x0, #0x1
   c100c:	97ff40cd 	bl	91340 <xmalloc@@Base>
   c1010:	aa1503e1 	mov	x1, x21
[31m   c1014:	97fdb8d3 	bl	2f360 <strcpy@plt>[0m
   c1018:	9126c261 	add	x1, x19, #0x9b0
   c101c:	394002a2 	ldrb	w2, [x21]
   c1020:	f9002420 	str	x0, [x1, #72]
   c1024:	34002262 	cbz	w2, c1470 <rl_filename_completion_function@@Base+0x4f0>
   c1028:	aa1503e0 	mov	x0, x21
   c102c:	97fdb665 	bl	2e9c0 <strlen@plt>
   c1030:	91000400 	add	x0, x0, #0x1
   c1034:	9126c277 	add	x23, x19, #0x9b0
   c1038:	97ff40c2 	bl	91340 <xmalloc@@Base>
   c103c:	aa1503e1 	mov	x1, x21
[31m   c1040:	97fdb8c8 	bl	2f360 <strcpy@plt>[0m
   c1044:	528005e1 	mov	w1, #0x2f                  	// #47
   c1048:	aa0003f5 	mov	x21, x0
   c104c:	f90022e0 	str	x0, [x23, #64]
   c1050:	97fdb804 	bl	2f060 <strrchr@plt>
   c1054:	aa0003f4 	mov	x20, x0
   c1058:	b4003700 	cbz	x0, c1738 <rl_filename_completion_function@@Base+0x7b8>
   c105c:	91000401 	add	x1, x0, #0x1
   c1060:	f94026e0 	ldr	x0, [x23, #72]
[31m   c1064:	97fdb8bf 	bl	2f360 <strcpy@plt>[0m
   c1068:	3900069f 	strb	wzr, [x20, #1]
   c106c:	90000377 	adrp	x23, 12d000 <o_options@@Base+0x2220>
--
   c11f0:	54001480 	b.eq	c1480 <rl_filename_completion_function@@Base+0x500>  // b.none
   c11f4:	9126c276 	add	x22, x19, #0x9b0
   c11f8:	aa1903e0 	mov	x0, x25
   c11fc:	97fdb5f1 	bl	2e9c0 <strlen@plt>
   c1200:	aa0003f5 	mov	x21, x0
   c1204:	b94082c1 	ldr	w1, [x22, #128]
   c1208:	f9402ac0 	ldr	x0, [x22, #80]
   c120c:	34000081 	cbz	w1, c121c <rl_filename_completion_function@@Base+0x29c>
   c1210:	39400001 	ldrb	w1, [x0]
   c1214:	7101f83f 	cmp	w1, #0x7e
   c1218:	540029e0 	b.eq	c1754 <rl_filename_completion_function@@Base+0x7d4>  // b.none
   c121c:	9126c273 	add	x19, x19, #0x9b0
   c1220:	97fdb5e8 	bl	2e9c0 <strlen@plt>
   c1224:	aa0003f4 	mov	x20, x0
   c1228:	11000800 	add	w0, w0, #0x2
   c122c:	8b20c2a0 	add	x0, x21, w0, sxtw
   c1230:	97ff4044 	bl	91340 <xmalloc@@Base>
   c1234:	f9402a73 	ldr	x19, [x19, #80]
   c1238:	aa0003f5 	mov	x21, x0
   c123c:	aa1303e1 	mov	x1, x19
[31m   c1240:	97fdb848 	bl	2f360 <strcpy@plt>[0m
   c1244:	8b34c273 	add	x19, x19, w20, sxtw
   c1248:	93407e81 	sxtw	x1, w20
   c124c:	385ff260 	ldurb	w0, [x19, #-1]
   c1250:	7100bc1f 	cmp	w0, #0x2f
   c1254:	540027c0 	b.eq	c174c <rl_filename_completion_function@@Base+0x7cc>  // b.none
   c1258:	11000694 	add	w20, w20, #0x1
   c125c:	528005e0 	mov	w0, #0x2f                  	// #47
   c1260:	38216aa0 	strb	w0, [x21, x1]
   c1264:	8b34c2a0 	add	x0, x21, w20, sxtw
   c1268:	aa1b03e1 	mov	x1, x27
[31m   c126c:	97fdb83d 	bl	2f360 <strcpy@plt>[0m
   c1270:	eb19037f 	cmp	x27, x25
   c1274:	54000f80 	b.eq	c1464 <rl_filename_completion_function@@Base+0x4e4>  // b.none
--
   c1404:	35fffcfa 	cbnz	w26, c13a0 <rl_filename_completion_function@@Base+0x420>
   c1408:	17ffff75 	b	c11dc <rl_filename_completion_function@@Base+0x25c>
   c140c:	39400361 	ldrb	w1, [x27]
   c1410:	394002a0 	ldrb	w0, [x21]
   c1414:	6b00003f 	cmp	w1, w0
   c1418:	54fff5e1 	b.ne	c12d4 <rl_filename_completion_function@@Base+0x354>  // b.any
   c141c:	93407f42 	sxtw	x2, w26
   c1420:	aa1503e0 	mov	x0, x21
   c1424:	aa1b03e1 	mov	x1, x27
   c1428:	97fdb682 	bl	2ee30 <strncmp@plt>
   c142c:	34ffed80 	cbz	w0, c11dc <rl_filename_completion_function@@Base+0x25c>
   c1430:	9126c260 	add	x0, x19, #0x9b0
   c1434:	f9401c14 	ldr	x20, [x0, #56]
   c1438:	b5fff554 	cbnz	x20, c12e0 <rl_filename_completion_function@@Base+0x360>
   c143c:	17ffff68 	b	c11dc <rl_filename_completion_function@@Base+0x25c>
   c1440:	aa1b03e0 	mov	x0, x27
   c1444:	97fdb55f 	bl	2e9c0 <strlen@plt>
   c1448:	91000400 	add	x0, x0, #0x1
   c144c:	97ff3fbd 	bl	91340 <xmalloc@@Base>
   c1450:	aa1b03e1 	mov	x1, x27
[31m   c1454:	97fdb7c3 	bl	2f360 <strcpy@plt>[0m
   c1458:	eb19037f 	cmp	x27, x25
   c145c:	aa0003f5 	mov	x21, x0
--
   c1650:	b94073e7 	ldr	w7, [sp, #112]
   c1654:	b9407fe3 	ldr	w3, [sp, #124]
   c1658:	b8667800 	ldr	w0, [x0, x6, lsl #2]
   c165c:	7100b71f 	cmp	w24, #0x2d
   c1660:	7a5c1304 	ccmp	w24, w28, #0x4, ne  // ne = any
   c1664:	54000081 	b.ne	c1674 <rl_filename_completion_function@@Base+0x6f4>  // b.any
   c1668:	7100b47f 	cmp	w3, #0x2d
   c166c:	7a5c1064 	ccmp	w3, w28, #0x4, ne  // ne = any
   c1670:	54fffbc0 	b.eq	c15e8 <rl_filename_completion_function@@Base+0x668>  // b.none
   c1674:	6b0000ff 	cmp	w7, w0
   c1678:	54fffb80 	b.eq	c15e8 <rl_filename_completion_function@@Base+0x668>  // b.none
   c167c:	9126c260 	add	x0, x19, #0x9b0
   c1680:	f9401c14 	ldr	x20, [x0, #56]
   c1684:	b5ffe2f4 	cbnz	x20, c12e0 <rl_filename_completion_function@@Base+0x360>
   c1688:	17fffed5 	b	c11dc <rl_filename_completion_function@@Base+0x25c>
   c168c:	9126c274 	add	x20, x19, #0x9b0
   c1690:	97fdb4cc 	bl	2e9c0 <strlen@plt>
   c1694:	91000400 	add	x0, x0, #0x1
   c1698:	97ff3f2a 	bl	91340 <xmalloc@@Base>
   c169c:	f9402281 	ldr	x1, [x20, #64]
[31m   c16a0:	97fdb730 	bl	2f360 <strcpy@plt>[0m
   c16a4:	f9002a80 	str	x0, [x20, #80]
   c16a8:	9126c274 	add	x20, x19, #0x9b0
--
   c16dc:	b5ffcf21 	cbnz	x1, c10c0 <rl_filename_completion_function@@Base+0x140>
   c16e0:	f9401a81 	ldr	x1, [x20, #48]
   c16e4:	b4000081 	cbz	x1, c16f4 <rl_filename_completion_function@@Base+0x774>
   c16e8:	91010280 	add	x0, x20, #0x40
   c16ec:	d63f0020 	blr	x1
   c16f0:	35000b00 	cbnz	w0, c1850 <rl_filename_completion_function@@Base+0x8d0>
   c16f4:	9126c274 	add	x20, x19, #0x9b0
   c16f8:	f9402280 	ldr	x0, [x20, #64]
   c16fc:	35ffce96 	cbnz	w22, c10cc <rl_filename_completion_function@@Base+0x14c>
   c1700:	f945b6e1 	ldr	x1, [x23, #2920]
   c1704:	b9400021 	ldr	w1, [x1]
   c1708:	34ffce21 	cbz	w1, c10cc <rl_filename_completion_function@@Base+0x14c>
   c170c:	f9402e81 	ldr	x1, [x20, #88]
   c1710:	b4ffcde1 	cbz	x1, c10cc <rl_filename_completion_function@@Base+0x14c>
   c1714:	97ff3f3b 	bl	91400 <xfree@@Base>
   c1718:	f9402a80 	ldr	x0, [x20, #80]
   c171c:	97fdb4a9 	bl	2e9c0 <strlen@plt>
   c1720:	91000400 	add	x0, x0, #0x1
   c1724:	97ff3f07 	bl	91340 <xmalloc@@Base>
   c1728:	f9402a81 	ldr	x1, [x20, #80]
[31m   c172c:	97fdb70d 	bl	2f360 <strcpy@plt>[0m
   c1730:	f9002280 	str	x0, [x20, #64]
   c1734:	17fffe66 	b	c10cc <rl_filename_completion_function@@Base+0x14c>
   c1738:	528005c0 	mov	w0, #0x2e                  	// #46
   c173c:	390002a0 	strb	w0, [x21]
   c1740:	f94022e0 	ldr	x0, [x23, #64]
   c1744:	3900041f 	strb	wzr, [x0, #1]
   c1748:	17fffe49 	b	c106c <rl_filename_completion_function@@Base+0xec>
   c174c:	8b0102a0 	add	x0, x21, x1
   c1750:	17fffec6 	b	c1268 <rl_filename_completion_function@@Base+0x2e8>
   c1754:	aa1403e0 	mov	x0, x20
   c1758:	97fdb49a 	bl	2e9c0 <strlen@plt>
   c175c:	aa0003f3 	mov	x19, x0
   c1760:	11000800 	add	w0, w0, #0x2
   c1764:	8b20c2a0 	add	x0, x21, w0, sxtw
   c1768:	97ff3ef6 	bl	91340 <xmalloc@@Base>
   c176c:	f94022c1 	ldr	x1, [x22, #64]
   c1770:	aa0003f5 	mov	x21, x0
[31m   c1774:	97fdb6fb 	bl	2f360 <strcpy@plt>[0m
   c1778:	f94022c0 	ldr	x0, [x22, #64]
   c177c:	93407e61 	sxtw	x1, w19
--
   c181c:	b90097e0 	str	w0, [sp, #148]
   c1820:	b94063e1 	ldr	w1, [sp, #96]
   c1824:	6b00003f 	cmp	w1, w0
   c1828:	54ffd561 	b.ne	c12d4 <rl_filename_completion_function@@Base+0x354>  // b.any
   c182c:	f9403be7 	ldr	x7, [sp, #112]
   c1830:	8b070294 	add	x20, x20, x7
   c1834:	8b0702b5 	add	x21, x21, x7
   c1838:	4b07035a 	sub	w26, w26, w7
   c183c:	35ffdb3a 	cbnz	w26, c13a0 <rl_filename_completion_function@@Base+0x420>
   c1840:	17fffe67 	b	c11dc <rl_filename_completion_function@@Base+0x25c>
   c1844:	a9446bf9 	ldp	x25, x26, [sp, #64]
   c1848:	a94573fb 	ldp	x27, x28, [sp, #80]
   c184c:	17fffeaf 	b	c1308 <rl_filename_completion_function@@Base+0x388>
   c1850:	f9402a80 	ldr	x0, [x20, #80]
   c1854:	97ff3eeb 	bl	91400 <xfree@@Base>
   c1858:	f9402280 	ldr	x0, [x20, #64]
   c185c:	97fdb459 	bl	2e9c0 <strlen@plt>
   c1860:	91000400 	add	x0, x0, #0x1
   c1864:	97ff3eb7 	bl	91340 <xmalloc@@Base>
   c1868:	f9402281 	ldr	x1, [x20, #64]
[31m   c186c:	97fdb6bd 	bl	2f360 <strcpy@plt>[0m
   c1870:	f9002a80 	str	x0, [x20, #80]
   c1874:	f9402280 	ldr	x0, [x20, #64]
--
   c1d18:	b900bbf3 	str	w19, [sp, #184]
   c1d1c:	97fdb659 	bl	2f680 <towlower@plt>
   c1d20:	b900bfe0 	str	w0, [sp, #188]
   c1d24:	6b00027f 	cmp	w19, w0
   c1d28:	54fff421 	b.ne	c1bac <rl_filename_completion_function@@Base+0xc2c>  // b.any
   c1d2c:	51000780 	sub	w0, w28, #0x1
   c1d30:	f10006ff 	cmp	x23, #0x1
   c1d34:	0b170017 	add	w23, w0, w23
   c1d38:	1a9c82fc 	csel	w28, w23, w28, hi  // hi = pmore
   c1d3c:	17ffff80 	b	c1b3c <rl_filename_completion_function@@Base+0xbbc>
   c1d40:	a90c7fff 	stp	xzr, xzr, [sp, #192]
   c1d44:	17ffff52 	b	c1a8c <rl_filename_completion_function@@Base+0xb0c>
   c1d48:	f94053f3 	ldr	x19, [sp, #160]
   c1d4c:	aa1303e0 	mov	x0, x19
   c1d50:	97fdb31c 	bl	2e9c0 <strlen@plt>
   c1d54:	91000400 	add	x0, x0, #0x1
   c1d58:	97ff3d7a 	bl	91340 <xmalloc@@Base>
   c1d5c:	f9404fe1 	ldr	x1, [sp, #152]
   c1d60:	f9000020 	str	x0, [x1]
   c1d64:	aa1303e1 	mov	x1, x19
[31m   c1d68:	97fdb57e 	bl	2f360 <strcpy@plt>[0m
   c1d6c:	a9446bf9 	ldp	x25, x26, [sp, #64]
   c1d70:	a94573fb 	ldp	x27, x28, [sp, #80]
--
   c1fdc:	97fffe85 	bl	c19f0 <rl_filename_completion_function@@Base+0xa70>
   c1fe0:	aa1703e0 	mov	x0, x23
   c1fe4:	97fdb483 	bl	2f1f0 <free@plt>
   c1fe8:	17ffffd5 	b	c1f3c <rl_filename_completion_function@@Base+0xfbc>
   c1fec:	f9400280 	ldr	x0, [x20]
   c1ff0:	a9046bf9 	stp	x25, x26, [sp, #64]
   c1ff4:	b4000140 	cbz	x0, c201c <rl_filename_completion_function@@Base+0x109c>
   c1ff8:	d2800002 	mov	x2, #0x0                   	// #0
   c1ffc:	d503201f 	nop
   c2000:	93407c41 	sxtw	x1, w2
   c2004:	91000442 	add	x2, x2, #0x1
   c2008:	f8627a83 	ldr	x3, [x20, x2, lsl #3]
   c200c:	b5ffffa3 	cbnz	x3, c2000 <rl_filename_completion_function@@Base+0x1080>
   c2010:	91344084 	add	x4, x4, #0xd10
   c2014:	b9401082 	ldr	w2, [x4, #16]
   c2018:	350009c2 	cbnz	w2, c2150 <rl_filename_completion_function@@Base+0x11d0>
   c201c:	97fdb269 	bl	2e9c0 <strlen@plt>
   c2020:	91000400 	add	x0, x0, #0x1
   c2024:	97ff3cc7 	bl	91340 <xmalloc@@Base>
   c2028:	f9400281 	ldr	x1, [x20]
[31m   c202c:	97fdb4cd 	bl	2f360 <strcpy@plt>[0m
   c2030:	aa0003f9 	mov	x25, x0
   c2034:	f9400681 	ldr	x1, [x20, #8]
--
   c359c:	f90047e4 	str	x4, [sp, #136]
   c35a0:	d2800004 	mov	x4, #0x0                   	// #0
   c35a4:	f9400315 	ldr	x21, [x24]
   c35a8:	a9046bf9 	stp	x25, x26, [sp, #64]
   c35ac:	b940e826 	ldr	w6, [x1, #232]
   c35b0:	b2720000 	orr	x0, x0, #0x4000
   c35b4:	52800024 	mov	w4, #0x1                   	// #1
   c35b8:	b9000046 	str	w6, [x2]
   c35bc:	f9000060 	str	x0, [x3]
   c35c0:	b9000ca4 	str	w4, [x5, #12]
   c35c4:	29027c3f 	stp	wzr, wzr, [x1, #16]
   c35c8:	b900183f 	str	wzr, [x1, #24]
   c35cc:	b9009c3f 	str	wzr, [x1, #156]
   c35d0:	b900e433 	str	w19, [x1, #228]
   c35d4:	b4000115 	cbz	x21, c35f4 <rl_complete_internal@@Base+0xb4>
   c35d8:	aa1503e0 	mov	x0, x21
   c35dc:	97fdacf9 	bl	2e9c0 <strlen@plt>
   c35e0:	91000400 	add	x0, x0, #0x1
   c35e4:	97ff3757 	bl	91340 <xmalloc@@Base>
   c35e8:	f9400301 	ldr	x1, [x24]
[31m   c35ec:	97fdaf5d 	bl	2f360 <strcpy@plt>[0m
   c35f0:	aa0003f5 	mov	x21, x0
   c35f4:	d000035a 	adrp	x26, 12d000 <o_options@@Base+0x2220>
--
   c44a0:	aa0003f5 	mov	x21, x0
   c44a4:	b00003b6 	adrp	x22, 139000 <dircomplete_expand@@Base+0x68>
   c44a8:	350002e1 	cbnz	w1, c4504 <rl_username_completion_function@@Base+0x74>
   c44ac:	9126c2c0 	add	x0, x22, #0x9b0
   c44b0:	f940b000 	ldr	x0, [x0, #352]
   c44b4:	b4000040 	cbz	x0, c44bc <rl_username_completion_function@@Base+0x2c>
   c44b8:	97fdab4e 	bl	2f1f0 <free@plt>
   c44bc:	394002a0 	ldrb	w0, [x21]
   c44c0:	9126c2d3 	add	x19, x22, #0x9b0
   c44c4:	7101f81f 	cmp	w0, #0x7e
   c44c8:	1a9f17e1 	cset	w1, eq  // eq = none
   c44cc:	b9016a60 	str	w0, [x19, #360]
   c44d0:	92401c20 	and	x0, x1, #0xff
   c44d4:	b9016e61 	str	w1, [x19, #364]
   c44d8:	8b0002a0 	add	x0, x21, x0
   c44dc:	97fda939 	bl	2e9c0 <strlen@plt>
   c44e0:	91000400 	add	x0, x0, #0x1
   c44e4:	97ff3397 	bl	91340 <xmalloc@@Base>
   c44e8:	b9816e61 	ldrsw	x1, [x19, #364]
   c44ec:	8b0102a1 	add	x1, x21, x1
[31m   c44f0:	97fdab9c 	bl	2f360 <strcpy@plt>[0m
   c44f4:	f900b260 	str	x0, [x19, #352]
   c44f8:	97fda932 	bl	2e9c0 <strlen@plt>
--
   c4528:	39400261 	ldrb	w1, [x19]
   c452c:	39400003 	ldrb	w3, [x0]
   c4530:	6b01007f 	cmp	w3, w1
   c4534:	54fffea1 	b.ne	c4508 <rl_username_completion_function@@Base+0x78>  // b.any
   c4538:	93407c42 	sxtw	x2, w2
   c453c:	aa1303e1 	mov	x1, x19
   c4540:	97fdaa3c 	bl	2ee30 <strncmp@plt>
   c4544:	35fffe20 	cbnz	w0, c4508 <rl_username_completion_function@@Base+0x78>
   c4548:	9126c2d6 	add	x22, x22, #0x9b0
   c454c:	aa1303e0 	mov	x0, x19
   c4550:	97fda91c 	bl	2e9c0 <strlen@plt>
   c4554:	91000800 	add	x0, x0, #0x2
   c4558:	97ff337a 	bl	91340 <xmalloc@@Base>
   c455c:	aa0003f3 	mov	x19, x0
   c4560:	f940bec1 	ldr	x1, [x22, #376]
   c4564:	394002a2 	ldrb	w2, [x21]
   c4568:	39000002 	strb	w2, [x0]
   c456c:	b9816ec0 	ldrsw	x0, [x22, #364]
   c4570:	f9400021 	ldr	x1, [x1]
   c4574:	8b000260 	add	x0, x19, x0
[31m   c4578:	97fdab7a 	bl	2f360 <strcpy@plt>[0m
   c457c:	b9416ac0 	ldr	w0, [x22, #360]
   c4580:	7101f81f 	cmp	w0, #0x7e
--
   c4ef4:	a9be7bfd 	stp	x29, x30, [sp, #-32]!
   c4ef8:	910003fd 	mov	x29, sp
   c4efc:	a90153f3 	stp	x19, x20, [sp, #16]
   c4f00:	aa0003f3 	mov	x19, x0
   c4f04:	39400001 	ldrb	w1, [x0]
   c4f08:	52800020 	mov	w0, #0x1                   	// #1
   c4f0c:	35000081 	cbnz	w1, c4f1c <rl_username_completion_function@@Base+0xa8c>
   c4f10:	a94153f3 	ldp	x19, x20, [sp, #16]
   c4f14:	a8c27bfd 	ldp	x29, x30, [sp], #32
   c4f18:	d65f03c0 	ret
   c4f1c:	b0000354 	adrp	x20, 12d000 <o_options@@Base+0x2220>
   c4f20:	f9416280 	ldr	x0, [x20, #704]
   c4f24:	f9400000 	ldr	x0, [x0]
   c4f28:	b4000040 	cbz	x0, c4f30 <rl_username_completion_function@@Base+0xaa0>
   c4f2c:	97fda8b1 	bl	2f1f0 <free@plt>
   c4f30:	aa1303e0 	mov	x0, x19
   c4f34:	97fda6a3 	bl	2e9c0 <strlen@plt>
   c4f38:	91000400 	add	x0, x0, #0x1
   c4f3c:	97ff3101 	bl	91340 <xmalloc@@Base>
   c4f40:	aa1303e1 	mov	x1, x19
[31m   c4f44:	97fda907 	bl	2f360 <strcpy@plt>[0m
   c4f48:	f9416294 	ldr	x20, [x20, #704]
   c4f4c:	aa0003e1 	mov	x1, x0
--
   c5e34:	a8c37bfd 	ldp	x29, x30, [sp], #48
   c5e38:	d65f03c0 	ret
   c5e3c:	d503201f 	nop
   c5e40:	a9bc7bfd 	stp	x29, x30, [sp, #-64]!
   c5e44:	52800021 	mov	w1, #0x1                   	// #1
   c5e48:	910003fd 	mov	x29, sp
   c5e4c:	a90153f3 	stp	x19, x20, [sp, #16]
   c5e50:	90000354 	adrp	x20, 12d000 <o_options@@Base+0x2220>
   c5e54:	f9432a82 	ldr	x2, [x20, #1616]
   c5e58:	f9400043 	ldr	x3, [x2]
   c5e5c:	f9001fe3 	str	x3, [sp, #56]
   c5e60:	d2800003 	mov	x3, #0x0                   	// #0
   c5e64:	b40006e0 	cbz	x0, c5f40 <rl_macro_bind@@Base+0x3a0>
   c5e68:	aa0003f3 	mov	x19, x0
   c5e6c:	a9025bf5 	stp	x21, x22, [sp, #32]
   c5e70:	97fda2d4 	bl	2e9c0 <strlen@plt>
   c5e74:	90000355 	adrp	x21, 12d000 <o_options@@Base+0x2220>
   c5e78:	91000400 	add	x0, x0, #0x1
   c5e7c:	97ff2d31 	bl	91340 <xmalloc@@Base>
   c5e80:	aa1303e1 	mov	x1, x19
[31m   c5e84:	97fda537 	bl	2f360 <strcpy@plt>[0m
   c5e88:	f947eea1 	ldr	x1, [x21, #4056]
   c5e8c:	aa0003f3 	mov	x19, x0
--
   c6914:	7104067f 	cmp	w19, #0x101
   c6918:	54000460 	b.eq	c69a4 <_rl_untranslate_macro_value@@Base+0x4f4>  // b.none
   c691c:	385f8281 	ldurb	w1, [x20, #-8]
   c6920:	7100043f 	cmp	w1, #0x1
   c6924:	54fffc01 	b.ne	c68a4 <_rl_untranslate_macro_value@@Base+0x3f4>  // b.any
   c6928:	b4000615 	cbz	x21, c69e8 <_rl_untranslate_macro_value@@Base+0x538>
   c692c:	aa1503e0 	mov	x0, x21
   c6930:	97fda024 	bl	2e9c0 <strlen@plt>
   c6934:	93407c1a 	sxtw	x26, w0
   c6938:	71006e7f 	cmp	w19, #0x1b
   c693c:	91000759 	add	x25, x26, #0x1
   c6940:	54000600 	b.eq	c6a00 <_rl_untranslate_macro_value@@Base+0x550>  // b.none
   c6944:	2a1303e0 	mov	w0, w19
   c6948:	97fff792 	bl	c4790 <rl_username_completion_function@@Base+0x300>
   c694c:	aa0003fb 	mov	x27, x0
   c6950:	97fda01c 	bl	2e9c0 <strlen@plt>
   c6954:	8b190000 	add	x0, x0, x25
   c6958:	97ff2a7a 	bl	91340 <xmalloc@@Base>
   c695c:	aa1503e1 	mov	x1, x21
   c6960:	aa0003fc 	mov	x28, x0
[31m   c6964:	97fda27f 	bl	2f360 <strcpy@plt>[0m
   c6968:	aa1b03e1 	mov	x1, x27
   c696c:	8b1a0380 	add	x0, x28, x26
[31m   c6970:	97fda27c 	bl	2f360 <strcpy@plt>[0m
   c6974:	aa1b03e0 	mov	x0, x27
   c6978:	97ff2aa2 	bl	91400 <xfree@@Base>
--
   c69c4:	91206305 	add	x5, x24, #0x818
   c69c8:	9a8000a5 	csel	x5, x5, x0, eq  // eq = none
   c69cc:	aa1903e4 	mov	x4, x25
   c69d0:	a9460be0 	ldp	x0, x2, [sp, #96]
   c69d4:	aa1703e3 	mov	x3, x23
   c69d8:	52800021 	mov	w1, #0x1                   	// #1
   c69dc:	f9400000 	ldr	x0, [x0]
   c69e0:	97fda1dc 	bl	2f150 <__fprintf_chk@plt>
   c69e4:	17ffffc6 	b	c68fc <_rl_untranslate_macro_value@@Base+0x44c>
   c69e8:	71006e7f 	cmp	w19, #0x1b
   c69ec:	54000260 	b.eq	c6a38 <_rl_untranslate_macro_value@@Base+0x588>  // b.none
   c69f0:	2a1303e0 	mov	w0, w19
   c69f4:	97fff767 	bl	c4790 <rl_username_completion_function@@Base+0x300>
   c69f8:	aa0003fc 	mov	x28, x0
   c69fc:	17ffffe0 	b	c697c <_rl_untranslate_macro_value@@Base+0x4cc>
   c6a00:	11000c00 	add	w0, w0, #0x3
   c6a04:	93407c00 	sxtw	x0, w0
   c6a08:	97ff2a4e 	bl	91340 <xmalloc@@Base>
   c6a0c:	aa1503e1 	mov	x1, x21
   c6a10:	aa0003fc 	mov	x28, x0
[31m   c6a14:	97fda253 	bl	2f360 <strcpy@plt>[0m
   c6a18:	8b1a0381 	add	x1, x28, x26
   c6a1c:	91000b42 	add	x2, x26, #0x2
--
   c738c:	540028c0 	b.eq	c78a4 <rl_variable_value@@Base+0x954>  // b.none
   c7390:	71000c1f 	cmp	w0, #0x3
   c7394:	54001481 	b.ne	c7624 <rl_variable_value@@Base+0x6d4>  // b.any
   c7398:	f9413a94 	ldr	x20, [x20, #624]
   c739c:	71013cdf 	cmp	w6, #0x4f
   c73a0:	1a9fc7e0 	cset	w0, le
   c73a4:	39000280 	strb	w0, [x20]
   c73a8:	a9446bf9 	ldp	x25, x26, [sp, #64]
   c73ac:	17ffff75 	b	c7180 <rl_variable_value@@Base+0x230>
   c73b0:	d000033a 	adrp	x26, 12d000 <o_options@@Base+0x2220>
   c73b4:	b90057e2 	str	w2, [sp, #84]
   c73b8:	f942af58 	ldr	x24, [x26, #1368]
   c73bc:	f9400319 	ldr	x25, [x24]
   c73c0:	b5ffeab9 	cbnz	x25, c7114 <rl_variable_value@@Base+0x1c4>
   c73c4:	17ffff5a 	b	c712c <rl_variable_value@@Base+0x1dc>
   c73c8:	aa1903e0 	mov	x0, x25
   c73cc:	97fd9d7d 	bl	2e9c0 <strlen@plt>
   c73d0:	91000400 	add	x0, x0, #0x1
   c73d4:	97ff27db 	bl	91340 <xmalloc@@Base>
   c73d8:	f9400301 	ldr	x1, [x24]
[31m   c73dc:	97fd9fe1 	bl	2f360 <strcpy@plt>[0m
   c73e0:	aa0003f6 	mov	x22, x0
   c73e4:	528005a1 	mov	w1, #0x2d                  	// #45
--
   c85d8:	b5000901 	cbnz	x1, c86f8 <rl_parse_and_bind@@Base+0xc08>
   c85dc:	a94153f3 	ldp	x19, x20, [sp, #16]
   c85e0:	a9425bf5 	ldp	x21, x22, [sp, #32]
   c85e4:	a94363f7 	ldp	x23, x24, [sp, #48]
   c85e8:	a9446bf9 	ldp	x25, x26, [sp, #64]
   c85ec:	a8ce7bfd 	ldp	x29, x30, [sp], #224
   c85f0:	d65f03c0 	ret
   c85f4:	aa1803e1 	mov	x1, x24
   c85f8:	17ffffda 	b	c8560 <rl_parse_and_bind@@Base+0xa70>
   c85fc:	912cc2c0 	add	x0, x22, #0xb30
   c8600:	f9402c00 	ldr	x0, [x0, #88]
   c8604:	eb14001f 	cmp	x0, x20
   c8608:	54fff840 	b.eq	c8510 <rl_parse_and_bind@@Base+0xa20>  // b.none
   c860c:	b4000040 	cbz	x0, c8614 <rl_parse_and_bind@@Base+0xb24>
   c8610:	97fd9af8 	bl	2f1f0 <free@plt>
   c8614:	aa1403e0 	mov	x0, x20
   c8618:	97fd98ea 	bl	2e9c0 <strlen@plt>
   c861c:	91000400 	add	x0, x0, #0x1
   c8620:	97ff2348 	bl	91340 <xmalloc@@Base>
   c8624:	aa1403e1 	mov	x1, x20
[31m   c8628:	97fd9b4e 	bl	2f360 <strcpy@plt>[0m
   c862c:	912cc2c1 	add	x1, x22, #0xb30
   c8630:	f9002c20 	str	x0, [x1, #88]
--
   c8940:	11000673 	add	w19, w19, #0x1
   c8944:	b4000383 	cbz	x3, c89b4 <rl_set_keymap_name@@Base+0xb4>
   c8948:	f85f8043 	ldur	x3, [x2, #-8]
   c894c:	eb03033f 	cmp	x25, x3
   c8950:	54ffff61 	b.ne	c893c <rl_set_keymap_name@@Base+0x3c>  // b.any
   c8954:	71001e7f 	cmp	w19, #0x7
   c8958:	54000a4d 	b.le	c8aa0 <rl_set_keymap_name@@Base+0x1a0>
   c895c:	aa1803e0 	mov	x0, x24
   c8960:	97fff018 	bl	c49c0 <rl_username_completion_function@@Base+0x530>
   c8964:	71001c1f 	cmp	w0, #0x7
   c8968:	540009c9 	b.ls	c8aa0 <rl_set_keymap_name@@Base+0x1a0>  // b.plast
   c896c:	937c7e74 	sbfiz	x20, x19, #4, #32
   c8970:	f8746ae0 	ldr	x0, [x23, x20]
   c8974:	97ff22a3 	bl	91400 <xfree@@Base>
   c8978:	aa1803e0 	mov	x0, x24
   c897c:	97fd9811 	bl	2e9c0 <strlen@plt>
   c8980:	91000400 	add	x0, x0, #0x1
   c8984:	97ff226f 	bl	91340 <xmalloc@@Base>
   c8988:	f946f6b5 	ldr	x21, [x21, #3560]
   c898c:	aa1803e1 	mov	x1, x24
[31m   c8990:	97fd9a74 	bl	2f360 <strcpy@plt>[0m
   c8994:	a94363f7 	ldp	x23, x24, [sp, #48]
   c8998:	f8346aa0 	str	x0, [x21, x20]
--
   c89e0:	2a0303f3 	mov	w19, w3
   c89e4:	91004084 	add	x4, x4, #0x10
   c89e8:	91000463 	add	x3, x3, #0x1
   c89ec:	b5ffff62 	cbnz	x2, c89d8 <rl_set_keymap_name@@Base+0xd8>
   c89f0:	11000a62 	add	w2, w19, #0x2
   c89f4:	d37cec76 	lsl	x22, x3, #4
   c89f8:	937c7c41 	sbfiz	x1, x2, #4, #32
   c89fc:	b0000360 	adrp	x0, 135000 <emacs_standard_keymap@@Base+0x310>
   c8a00:	91356000 	add	x0, x0, #0xd58
   c8a04:	eb0002ff 	cmp	x23, x0
   c8a08:	540005c0 	b.eq	c8ac0 <rl_set_keymap_name@@Base+0x1c0>  // b.none
   c8a0c:	aa1703e0 	mov	x0, x23
   c8a10:	97ff2260 	bl	91390 <xrealloc@@Base>
   c8a14:	f906f6a0 	str	x0, [x21, #3560]
   c8a18:	aa1803e0 	mov	x0, x24
   c8a1c:	97fd97e9 	bl	2e9c0 <strlen@plt>
   c8a20:	91000400 	add	x0, x0, #0x1
   c8a24:	97ff2247 	bl	91340 <xmalloc@@Base>
   c8a28:	f946f6b5 	ldr	x21, [x21, #3560]
   c8a2c:	aa1803e1 	mov	x1, x24
[31m   c8a30:	97fd9a4c 	bl	2f360 <strcpy@plt>[0m
   c8a34:	8b1402a2 	add	x2, x21, x20
   c8a38:	8b1602a1 	add	x1, x21, x22
--
   c9480:	aa0003f3 	mov	x19, x0
   c9484:	52800501 	mov	w1, #0x28                  	// #40
   c9488:	d2800020 	mov	x0, #0x1                   	// #1
   c948c:	52800017 	mov	w23, #0x0                   	// #0
   c9490:	2a0003e2 	mov	w2, w0
   c9494:	39000261 	strb	w1, [x19]
   c9498:	371005b6 	tbnz	w22, #2, c954c <rl_dump_variables@@Base+0x17c>
   c949c:	8b000263 	add	x3, x19, x0
   c94a0:	37000696 	tbnz	w22, #0, c9570 <rl_dump_variables@@Base+0x1a0>
   c94a4:	f0000161 	adrp	x1, f8000 <is_basic_table@@Base+0x7f0>
   c94a8:	91328021 	add	x1, x1, #0xca0
   c94ac:	11002855 	add	w21, w2, #0xa
   c94b0:	f9400020 	ldr	x0, [x1]
   c94b4:	f9000060 	str	x0, [x3]
   c94b8:	b8407021 	ldur	w1, [x1, #7]
   c94bc:	8b35c260 	add	x0, x19, w21, sxtw
   c94c0:	b8007061 	stur	w1, [x3, #7]
   c94c4:	b40000b4 	cbz	x20, c94d8 <rl_dump_variables@@Base+0x108>
   c94c8:	0b1502f5 	add	w21, w23, w21
   c94cc:	aa1403e1 	mov	x1, x20
[31m   c94d0:	97fd97a4 	bl	2f360 <strcpy@plt>[0m
   c94d4:	8b35c260 	add	x0, x19, w21, sxtw
   c94d8:	aa1303e1 	mov	x1, x19
--
   c9cf0:	8b3ccf5a 	add	x26, x26, w28, sxtw #3
   c9cf4:	17ffffbe 	b	c9bec <_rl_isearch_dispatch@@Base+0x4ac>
   c9cf8:	31001c1f 	cmn	w0, #0x7
   c9cfc:	54ffe8a1 	b.ne	c9a10 <_rl_isearch_dispatch@@Base+0x2d0>  // b.any
   c9d00:	9101c3e0 	add	x0, sp, #0x70
   c9d04:	940022cb 	bl	d2830 <_rl_bracketed_text@@Base>
   c9d08:	aa0003f4 	mov	x20, x0
   c9d0c:	b4001a80 	cbz	x0, ca05c <_rl_isearch_dispatch@@Base+0x91c>
   c9d10:	39400000 	ldrb	w0, [x0]
   c9d14:	34001a40 	cbz	w0, ca05c <_rl_isearch_dispatch@@Base+0x91c>
   c9d18:	f9403be1 	ldr	x1, [sp, #112]
   c9d1c:	b9801262 	ldrsw	x2, [x19, #16]
   c9d20:	b9401664 	ldr	w4, [x19, #20]
   c9d24:	91000423 	add	x3, x1, #0x1
   c9d28:	8b020063 	add	x3, x3, x2
   c9d2c:	f9400660 	ldr	x0, [x19, #8]
   c9d30:	eb24c07f 	cmp	x3, w4, sxtw
   c9d34:	54003062 	b.cs	ca340 <_rl_isearch_dispatch@@Base+0xc00>  // b.hs, b.nlast
   c9d38:	8b020000 	add	x0, x0, x2
   c9d3c:	aa1403e1 	mov	x1, x20
[31m   c9d40:	97fd9588 	bl	2f360 <strcpy@plt>[0m
   c9d44:	f9403be2 	ldr	x2, [sp, #112]
   c9d48:	aa1403e0 	mov	x0, x20
--
   c9fcc:	b9401262 	ldr	w2, [x19, #16]
   c9fd0:	f9400660 	ldr	x0, [x19, #8]
   c9fd4:	3822c81f 	strb	wzr, [x0, w2, sxtw]
   c9fd8:	b9400678 	ldr	w24, [x19, #4]
   c9fdc:	b9401276 	ldr	w22, [x19, #16]
   c9fe0:	17fffec8 	b	c9b00 <_rl_isearch_dispatch@@Base+0x3c0>
   c9fe4:	94002ddb 	bl	d5750 <rl_ding@@Base>
   c9fe8:	17ffff7e 	b	c9de0 <_rl_isearch_dispatch@@Base+0x6a0>
   c9fec:	90000394 	adrp	x20, 139000 <dircomplete_expand@@Base+0x68>
   c9ff0:	912e4295 	add	x21, x20, #0xb90
   c9ff4:	f945ca80 	ldr	x0, [x20, #2960]
   c9ff8:	b4000580 	cbz	x0, ca0a8 <_rl_isearch_dispatch@@Base+0x968>
   c9ffc:	b9400aa1 	ldr	w1, [x21, #8]
   ca000:	f9400660 	ldr	x0, [x19, #8]
   ca004:	11010021 	add	w1, w1, #0x40
   ca008:	b9001661 	str	w1, [x19, #20]
   ca00c:	93407c21 	sxtw	x1, w1
   ca010:	97ff1ce0 	bl	91390 <xrealloc@@Base>
   ca014:	f9000660 	str	x0, [x19, #8]
   ca018:	f945ca81 	ldr	x1, [x20, #2960]
[31m   ca01c:	97fd94d1 	bl	2f360 <strcpy@plt>[0m
   ca020:	b9400aa2 	ldr	w2, [x21, #8]
   ca024:	b9400661 	ldr	w1, [x19, #4]
--
   ca6dc:	97ff1b19 	bl	91340 <xmalloc@@Base>
   ca6e0:	f9000e60 	str	x0, [x19, #24]
   ca6e4:	b9402a62 	ldr	w2, [x19, #40]
   ca6e8:	7100005f 	cmp	w2, #0x0
   ca6ec:	54fff72c 	b.gt	ca5d0 <_rl_isearch_cleanup@@Base+0x1f0>
   ca6f0:	f0000301 	adrp	x1, 12d000 <o_options@@Base+0x2220>
   ca6f4:	d2800018 	mov	x24, #0x0                   	// #0
   ca6f8:	f9462c21 	ldr	x1, [x1, #3160]
   ca6fc:	f9400021 	ldr	x1, [x1]
   ca700:	b5fff821 	cbnz	x1, ca604 <_rl_isearch_cleanup@@Base+0x224>
   ca704:	d503201f 	nop
   ca708:	f0000317 	adrp	x23, 12d000 <o_options@@Base+0x2220>
   ca70c:	f90023f9 	str	x25, [sp, #64]
   ca710:	f94186f9 	ldr	x25, [x23, #776]
   ca714:	f9400320 	ldr	x0, [x25]
   ca718:	97fd90aa 	bl	2e9c0 <strlen@plt>
   ca71c:	91000400 	add	x0, x0, #0x1
   ca720:	97ff1b08 	bl	91340 <xmalloc@@Base>
   ca724:	f9001260 	str	x0, [x19, #32]
   ca728:	f9400321 	ldr	x1, [x25]
[31m   ca72c:	97fd930d 	bl	2f360 <strcpy@plt>[0m
   ca730:	a9418660 	ldp	x0, x1, [x19, #24]
   ca734:	b9402a62 	ldr	w2, [x19, #40]
--
   cb020:	f942b400 	ldr	x0, [x0, #1384]
   cb024:	f9400014 	ldr	x20, [x0]
   cb028:	b4001914 	cbz	x20, cb348 <_rl_isearch_callback@@Base+0xbc8>
   cb02c:	d0000300 	adrp	x0, 12d000 <o_options@@Base+0x2220>
   cb030:	f9406000 	ldr	x0, [x0, #192]
   cb034:	b9400013 	ldr	w19, [x0]
   cb038:	93407e75 	sxtw	x21, w19
   cb03c:	aa1803e0 	mov	x0, x24
   cb040:	97fd8e60 	bl	2e9c0 <strlen@plt>
   cb044:	0b000260 	add	w0, w19, w0
   cb048:	d0000319 	adrp	x25, 12d000 <o_options@@Base+0x2220>
   cb04c:	11000400 	add	w0, w0, #0x1
   cb050:	93407c00 	sxtw	x0, w0
   cb054:	97ff18bb 	bl	91340 <xmalloc@@Base>
   cb058:	aa1503e2 	mov	x2, x21
   cb05c:	aa1403e1 	mov	x1, x20
   cb060:	aa0003f6 	mov	x22, x0
   cb064:	97fd8e37 	bl	2e940 <memcpy@plt>
   cb068:	aa1803e1 	mov	x1, x24
   cb06c:	8b1502c0 	add	x0, x22, x21
[31m   cb070:	97fd90bc 	bl	2f360 <strcpy@plt>[0m
   cb074:	97fd9063 	bl	2f200 <__ctype_get_mb_cur_max@plt>
   cb078:	aa0003f4 	mov	x20, x0
--
   cb330:	17ffff43 	b	cb03c <_rl_isearch_callback@@Base+0x8bc>
   cb334:	d28000b5 	mov	x21, #0x5                   	// #5
   cb338:	b0000174 	adrp	x20, f8000 <is_basic_table@@Base+0x7f0>
   cb33c:	9114a294 	add	x20, x20, #0x528
   cb340:	2a1503f3 	mov	w19, w21
   cb344:	17ffff3e 	b	cb03c <_rl_isearch_callback@@Base+0x8bc>
   cb348:	d28000b5 	mov	x21, #0x5                   	// #5
   cb34c:	b0000174 	adrp	x20, f8000 <is_basic_table@@Base+0x7f0>
   cb350:	91146294 	add	x20, x20, #0x518
   cb354:	2a1503f3 	mov	w19, w21
   cb358:	17ffff39 	b	cb03c <_rl_isearch_callback@@Base+0x8bc>
   cb35c:	b0000174 	adrp	x20, f8000 <is_basic_table@@Base+0x7f0>
   cb360:	91148294 	add	x20, x20, #0x520
   cb364:	d2800035 	mov	x21, #0x1                   	// #1
   cb368:	17ffff35 	b	cb03c <_rl_isearch_callback@@Base+0x8bc>
   cb36c:	aa1603e0 	mov	x0, x22
   cb370:	97fd8d94 	bl	2e9c0 <strlen@plt>
   cb374:	91000400 	add	x0, x0, #0x1
   cb378:	97ff17f2 	bl	91340 <xmalloc@@Base>
   cb37c:	aa1603e1 	mov	x1, x22
[31m   cb380:	97fd8ff8 	bl	2f360 <strcpy@plt>[0m
   cb384:	aa0003f6 	mov	x22, x0
   cb388:	17ffff00 	b	caf88 <_rl_isearch_callback@@Base+0x808>
--
   cb5a4:	910003fd 	mov	x29, sp
   cb5a8:	a9025bf5 	stp	x21, x22, [sp, #32]
   cb5ac:	b0000316 	adrp	x22, 12c000 <o_options@@Base+0x1220>
   cb5b0:	f947a6d5 	ldr	x21, [x22, #3912]
   cb5b4:	a90153f3 	stp	x19, x20, [sp, #16]
   cb5b8:	a90363f7 	stp	x23, x24, [sp, #48]
   cb5bc:	f94002a0 	ldr	x0, [x21]
   cb5c0:	f90023f9 	str	x25, [sp, #64]
   cb5c4:	97fd8cff 	bl	2e9c0 <strlen@plt>
   cb5c8:	11000400 	add	w0, w0, #0x1
   cb5cc:	97fffc81 	bl	ca7d0 <_rl_isearch_callback@@Base+0x50>
   cb5d0:	d0000374 	adrp	x20, 139000 <dircomplete_expand@@Base+0x68>
   cb5d4:	912ec280 	add	x0, x20, #0xbb0
   cb5d8:	f9400813 	ldr	x19, [x0, #16]
   cb5dc:	b40009d3 	cbz	x19, cb714 <rl_on_new_line_with_prompt@@Base+0x174>
   cb5e0:	d0000358 	adrp	x24, 135000 <emacs_standard_keymap@@Base+0x310>
   cb5e4:	91380300 	add	x0, x24, #0xe00
   cb5e8:	aa1303e1 	mov	x1, x19
   cb5ec:	f9400419 	ldr	x25, [x0, #8]
   cb5f0:	f9400320 	ldr	x0, [x25]
[31m   cb5f4:	97fd8f5b 	bl	2f360 <strcpy@plt>[0m
   cb5f8:	f9470300 	ldr	x0, [x24, #3584]
   cb5fc:	aa1303e1 	mov	x1, x19
   cb600:	f9400000 	ldr	x0, [x0]
[31m   cb604:	97fd8f57 	bl	2f360 <strcpy@plt>[0m
   cb608:	f947a6c0 	ldr	x0, [x22, #3912]
   cb60c:	52800141 	mov	w1, #0xa                   	// #10
--
   cc4c0:	b9409422 	ldr	w2, [x1, #148]
   cc4c4:	a9425bf5 	ldp	x21, x22, [sp, #32]
   cc4c8:	11000442 	add	w2, w2, #0x1
   cc4cc:	a94363f7 	ldp	x23, x24, [sp, #48]
   cc4d0:	b9001822 	str	w2, [x1, #24]
   cc4d4:	a8c47bfd 	ldp	x29, x30, [sp], #64
   cc4d8:	d65f03c0 	ret
   cc4dc:	39400260 	ldrb	w0, [x19]
   cc4e0:	34000220 	cbz	w0, cc524 <_rl_make_prompt_for_search@@Base+0xe4>
   cc4e4:	aa1303e0 	mov	x0, x19
   cc4e8:	97fd8936 	bl	2e9c0 <strlen@plt>
   cc4ec:	aa0003f7 	mov	x23, x0
   cc4f0:	11000800 	add	w0, w0, #0x2
   cc4f4:	93407ef6 	sxtw	x22, w23
   cc4f8:	93407c00 	sxtw	x0, w0
   cc4fc:	910006d8 	add	x24, x22, #0x1
   cc500:	97ff1390 	bl	91340 <xmalloc@@Base>
   cc504:	aa0003f3 	mov	x19, x0
   cc508:	34000097 	cbz	w23, cc518 <_rl_make_prompt_for_search@@Base+0xd8>
   cc50c:	f9400281 	ldr	x1, [x20]
[31m   cc510:	97fd8b94 	bl	2f360 <strcpy@plt>[0m
   cc514:	8b160260 	add	x0, x19, x22
   cc518:	39000015 	strb	w21, [x0]
   cc51c:	38386a7f 	strb	wzr, [x19, x24]
   cc520:	17ffffe4 	b	cc4b0 <_rl_make_prompt_for_search@@Base+0x70>
   cc524:	d2800040 	mov	x0, #0x2                   	// #2
   cc528:	d2800038 	mov	x24, #0x1                   	// #1
   cc52c:	97ff1385 	bl	91340 <xmalloc@@Base>
   cc530:	aa0003f3 	mov	x19, x0
   cc534:	17fffff9 	b	cc518 <_rl_make_prompt_for_search@@Base+0xd8>
   cc538:	aa1403e1 	mov	x1, x20
[31m   cc53c:	97fd8b89 	bl	2f360 <strcpy@plt>[0m
   cc540:	17ffffd8 	b	cc4a0 <_rl_make_prompt_for_search@@Base+0x60>
   cc544:	d503201f 	nop
--
   d1968:	97fefe76 	bl	91340 <xmalloc@@Base>
   d196c:	aa0003e2 	mov	x2, x0
   d1970:	f901ea60 	str	x0, [x19, #976]
   d1974:	f900001f 	str	xzr, [x0]
   d1978:	17ffffd3 	b	d18c4 <_rl_savestring@@Base+0x94>
   d197c:	aa1603e0 	mov	x0, x22
   d1980:	b9004fe1 	str	w1, [sp, #76]
   d1984:	97fd740f 	bl	2e9c0 <strlen@plt>
   d1988:	aa0003f8 	mov	x24, x0
   d198c:	aa1503e0 	mov	x0, x21
   d1990:	97fd740c 	bl	2e9c0 <strlen@plt>
   d1994:	8b000300 	add	x0, x24, x0
   d1998:	91000400 	add	x0, x0, #0x1
   d199c:	97fefe69 	bl	91340 <xmalloc@@Base>
   d19a0:	b9404fe1 	ldr	w1, [sp, #76]
   d19a4:	aa0003f8 	mov	x24, x0
   d19a8:	34000261 	cbz	w1, d19f4 <_rl_savestring@@Base+0x1c4>
   d19ac:	aa1603e1 	mov	x1, x22
   d19b0:	97fd74b4 	bl	2ec80 <stpcpy@plt>
   d19b4:	aa1503e1 	mov	x1, x21
[31m   d19b8:	97fd766a 	bl	2f360 <strcpy@plt>[0m
   d19bc:	aa1603e0 	mov	x0, x22
   d19c0:	97fefe90 	bl	91400 <xfree@@Base>
   d19c4:	aa1503e0 	mov	x0, x21
   d19c8:	97fefe8e 	bl	91400 <xfree@@Base>
   d19cc:	f941ea60 	ldr	x0, [x19, #976]
   d19d0:	910f4273 	add	x19, x19, #0x3d0
   d19d4:	a9425bf5 	ldp	x21, x22, [sp, #32]
   d19d8:	f8377818 	str	x24, [x0, x23, lsl #3]
   d19dc:	52800000 	mov	w0, #0x0                   	// #0
   d19e0:	b9000e74 	str	w20, [x19, #12]
   d19e4:	a94153f3 	ldp	x19, x20, [sp, #16]
   d19e8:	a94363f7 	ldp	x23, x24, [sp, #48]
   d19ec:	a8c57bfd 	ldp	x29, x30, [sp], #80
   d19f0:	d65f03c0 	ret
   d19f4:	aa1503e1 	mov	x1, x21
   d19f8:	97fd74a2 	bl	2ec80 <stpcpy@plt>
   d19fc:	aa1603e1 	mov	x1, x22
[31m   d1a00:	97fd7658 	bl	2f360 <strcpy@plt>[0m
   d1a04:	17ffffee 	b	d19bc <_rl_savestring@@Base+0x18c>
   d1a08:	d503201f 	nop
--
   d2b34:	910003fd 	mov	x29, sp
   d2b38:	a90153f3 	stp	x19, x20, [sp, #16]
   d2b3c:	aa0003f4 	mov	x20, x0
   d2b40:	d2800400 	mov	x0, #0x20                  	// #32
   d2b44:	a9025bf5 	stp	x21, x22, [sp, #32]
   d2b48:	b9401a95 	ldr	w21, [x20, #24]
   d2b4c:	f9400696 	ldr	x22, [x20, #8]
   d2b50:	97fef9fc 	bl	91340 <xmalloc@@Base>
   d2b54:	f900081f 	str	xzr, [x0, #16]
   d2b58:	aa0003f3 	mov	x19, x0
   d2b5c:	f900001f 	str	xzr, [x0]
   d2b60:	f9400a81 	ldr	x1, [x20, #16]
   d2b64:	f9000416 	str	x22, [x0, #8]
   d2b68:	b9001815 	str	w21, [x0, #24]
   d2b6c:	b4000101 	cbz	x1, d2b8c <_rl_copy_undo_entry@@Base+0x5c>
   d2b70:	aa0103e0 	mov	x0, x1
   d2b74:	97fd6f93 	bl	2e9c0 <strlen@plt>
   d2b78:	91000400 	add	x0, x0, #0x1
   d2b7c:	97fef9f1 	bl	91340 <xmalloc@@Base>
   d2b80:	f9400a81 	ldr	x1, [x20, #16]
[31m   d2b84:	97fd71f7 	bl	2f360 <strcpy@plt>[0m
   d2b88:	aa0003e1 	mov	x1, x0
   d2b8c:	a9425bf5 	ldp	x21, x22, [sp, #32]
--
   d34a4:	b9400000 	ldr	w0, [x0]
   d34a8:	35000140 	cbnz	w0, d34d0 <rl_start_kbd_macro@@Base+0x50>
   d34ac:	f0000320 	adrp	x0, 13a000 <_rl_caught_signal@@Base+0x340>
   d34b0:	b9041c1f 	str	wzr, [x0, #1052]
   d34b4:	f9436a73 	ldr	x19, [x19, #1744]
   d34b8:	b2740021 	orr	x1, x1, #0x1000
   d34bc:	52800000 	mov	w0, #0x0                   	// #0
   d34c0:	f9000261 	str	x1, [x19]
   d34c4:	a94153f3 	ldp	x19, x20, [sp, #16]
   d34c8:	a8c37bfd 	ldp	x29, x30, [sp], #48
   d34cc:	d65f03c0 	ret
   d34d0:	f90013f5 	str	x21, [sp, #32]
   d34d4:	f0000335 	adrp	x21, 13a000 <_rl_caught_signal@@Base+0x340>
   d34d8:	911002b5 	add	x21, x21, #0x400
   d34dc:	f94016a0 	ldr	x0, [x21, #40]
   d34e0:	b40001e0 	cbz	x0, d351c <rl_start_kbd_macro@@Base+0x9c>
   d34e4:	97fd6d37 	bl	2e9c0 <strlen@plt>
   d34e8:	91000400 	add	x0, x0, #0x1
   d34ec:	97fef795 	bl	91340 <xmalloc@@Base>
   d34f0:	f94016a1 	ldr	x1, [x21, #40]
[31m   d34f4:	97fd6f9b 	bl	2f360 <strcpy@plt>[0m
   d34f8:	97ffff2e 	bl	d31b0 <_rl_with_macro_input@@Base>
   d34fc:	f9400281 	ldr	x1, [x20]
--
   d3538:	a90153f3 	stp	x19, x20, [sp, #16]
   d353c:	f0000334 	adrp	x20, 13a000 <_rl_caught_signal@@Base+0x340>
   d3540:	91100281 	add	x1, x20, #0x400
   d3544:	f90013f5 	str	x21, [sp, #32]
   d3548:	2a0003f5 	mov	w21, w0
   d354c:	f9401420 	ldr	x0, [x1, #40]
   d3550:	b4000460 	cbz	x0, d35dc <rl_call_last_kbd_macro@@Base+0xac>
   d3554:	d00002c0 	adrp	x0, 12d000 <o_options@@Base+0x2220>
   d3558:	f9436800 	ldr	x0, [x0, #1744]
   d355c:	f9400000 	ldr	x0, [x0]
   d3560:	37600260 	tbnz	w0, #12, d35ac <rl_call_last_kbd_macro@@Base+0x7c>
   d3564:	91100294 	add	x20, x20, #0x400
   d3568:	510006b3 	sub	w19, w21, #0x1
   d356c:	34000175 	cbz	w21, d3598 <rl_call_last_kbd_macro@@Base+0x68>
   d3570:	f9401680 	ldr	x0, [x20, #40]
   d3574:	51000673 	sub	w19, w19, #0x1
   d3578:	97fd6d12 	bl	2e9c0 <strlen@plt>
   d357c:	91000400 	add	x0, x0, #0x1
   d3580:	97fef770 	bl	91340 <xmalloc@@Base>
   d3584:	f9401681 	ldr	x1, [x20, #40]
[31m   d3588:	97fd6f76 	bl	2f360 <strcpy@plt>[0m
   d358c:	97ffff09 	bl	d31b0 <_rl_with_macro_input@@Base>
   d3590:	3100067f 	cmn	w19, #0x1
--
00000000000d6930 <rl_replace_line@@Base>:
   d6930:	a9bd7bfd 	stp	x29, x30, [sp, #-48]!
   d6934:	910003fd 	mov	x29, sp
   d6938:	a90153f3 	stp	x19, x20, [sp, #16]
   d693c:	a9025bf5 	stp	x21, x22, [sp, #32]
   d6940:	2a0103f6 	mov	w22, w1
   d6944:	aa0003f5 	mov	x21, x0
   d6948:	97fd601e 	bl	2e9c0 <strlen@plt>
   d694c:	aa0003f3 	mov	x19, x0
   d6950:	f00002a1 	adrp	x1, 12d000 <o_options@@Base+0x2220>
   d6954:	2a0003f4 	mov	w20, w0
   d6958:	f9470c21 	ldr	x1, [x1, #3608]
   d695c:	b9400020 	ldr	w0, [x1]
   d6960:	6b13001f 	cmp	w0, w19
   d6964:	5400054d 	b.le	d6a0c <rl_replace_line@@Base+0xdc>
   d6968:	f00002a2 	adrp	x2, 12d000 <o_options@@Base+0x2220>
   d696c:	aa1503e1 	mov	x1, x21
   d6970:	f00002b5 	adrp	x21, 12d000 <o_options@@Base+0x2220>
   d6974:	f9418442 	ldr	x2, [x2, #776]
   d6978:	f9400040 	ldr	x0, [x2]
[31m   d697c:	97fd6279 	bl	2f360 <strcpy@plt>[0m
   d6980:	f9424ab5 	ldr	x21, [x21, #1168]
   d6984:	b90002b3 	str	w19, [x21]
--
   d8a70:	a8c17bfd 	ldp	x29, x30, [sp], #16
   d8a74:	d65f03c0 	ret
   d8a78:	d503201f 	nop
   d8a7c:	d503201f 	nop
   d8a80:	a9be7bfd 	stp	x29, x30, [sp, #-32]!
   d8a84:	d2800300 	mov	x0, #0x18                  	// #24
   d8a88:	910003fd 	mov	x29, sp
   d8a8c:	a90153f3 	stp	x19, x20, [sp, #16]
   d8a90:	b00002b4 	adrp	x20, 12d000 <o_options@@Base+0x2220>
   d8a94:	97fee22b 	bl	91340 <xmalloc@@Base>
   d8a98:	f9418694 	ldr	x20, [x20, #776]
   d8a9c:	d0000313 	adrp	x19, 13a000 <_rl_caught_signal@@Base+0x340>
   d8aa0:	9121c273 	add	x19, x19, #0x870
   d8aa4:	f9000660 	str	x0, [x19, #8]
   d8aa8:	f9400280 	ldr	x0, [x20]
   d8aac:	97fd57c5 	bl	2e9c0 <strlen@plt>
   d8ab0:	91000400 	add	x0, x0, #0x1
   d8ab4:	97fee223 	bl	91340 <xmalloc@@Base>
   d8ab8:	f9400281 	ldr	x1, [x20]
   d8abc:	f9400674 	ldr	x20, [x19, #8]
[31m   d8ac0:	97fd5a28 	bl	2f360 <strcpy@plt>[0m
   d8ac4:	b00002a1 	adrp	x1, 12d000 <o_options@@Base+0x2220>
   d8ac8:	f9400662 	ldr	x2, [x19, #8]
--
   d9380:	d65f03c0 	ret
   d9384:	d503201f 	nop
   d9388:	d503201f 	nop
   d938c:	d503201f 	nop

00000000000d9390 <_rl_revert_all_lines@@Base>:
   d9390:	a9bb7bfd 	stp	x29, x30, [sp, #-80]!
   d9394:	910003fd 	mov	x29, sp
   d9398:	a9025bf5 	stp	x21, x22, [sp, #32]
   d939c:	900002b6 	adrp	x22, 12d000 <o_options@@Base+0x2220>
   d93a0:	a90153f3 	stp	x19, x20, [sp, #16]
   d93a4:	f94186d3 	ldr	x19, [x22, #776]
   d93a8:	a90363f7 	stp	x23, x24, [sp, #48]
   d93ac:	900002b7 	adrp	x23, 12d000 <o_options@@Base+0x2220>
   d93b0:	a9046bf9 	stp	x25, x26, [sp, #64]
   d93b4:	f9400260 	ldr	x0, [x19]
   d93b8:	97fd5582 	bl	2e9c0 <strlen@plt>
   d93bc:	91000400 	add	x0, x0, #0x1
   d93c0:	97fedfe0 	bl	91340 <xmalloc@@Base>
   d93c4:	f9400261 	ldr	x1, [x19]
[31m   d93c8:	97fd57e6 	bl	2f360 <strcpy@plt>[0m
   d93cc:	aa0003f9 	mov	x25, x0
   d93d0:	f9439ae1 	ldr	x1, [x23, #1840]
--
   d9424:	eb15003f 	cmp	x1, x21
   d9428:	aa1303e0 	mov	x0, x19
   d942c:	9a9f12b5 	csel	x21, x21, xzr, ne  // ne = any
   d9430:	52800001 	mov	w1, #0x0                   	// #0
   d9434:	97ffffb7 	bl	d9310 <rl_replace_from_history@@Base>
   d9438:	f9000a7f 	str	xzr, [x19, #16]
   d943c:	f9400300 	ldr	x0, [x24]
   d9440:	b40000a0 	cbz	x0, d9454 <_rl_revert_all_lines@@Base+0xc4>
   d9444:	d503201f 	nop
   d9448:	97ffe5fa 	bl	d2c30 <rl_do_undo@@Base>
   d944c:	f9400281 	ldr	x1, [x20]
   d9450:	b5ffffc1 	cbnz	x1, d9448 <_rl_revert_all_lines@@Base+0xb8>
   d9454:	f9400260 	ldr	x0, [x19]
   d9458:	b4000040 	cbz	x0, d9460 <_rl_revert_all_lines@@Base+0xd0>
   d945c:	97fd5765 	bl	2f1f0 <free@plt>
   d9460:	f94002c0 	ldr	x0, [x22]
   d9464:	97fd5557 	bl	2e9c0 <strlen@plt>
   d9468:	91000400 	add	x0, x0, #0x1
   d946c:	97fedfb5 	bl	91340 <xmalloc@@Base>
   d9470:	f94002c1 	ldr	x1, [x22]
[31m   d9474:	97fd57bb 	bl	2f360 <strcpy@plt>[0m
   d9478:	f9000260 	str	x0, [x19]
   d947c:	94000195 	bl	d9ad0 <previous_history@@Base>
--
   d9b74:	d65f03c0 	ret
   d9b78:	d503201f 	nop
   d9b7c:	d503201f 	nop

00000000000d9b80 <alloc_history_entry@@Base>:
   d9b80:	a9bd7bfd 	stp	x29, x30, [sp, #-48]!
   d9b84:	910003fd 	mov	x29, sp
   d9b88:	a90153f3 	stp	x19, x20, [sp, #16]
   d9b8c:	aa0003f3 	mov	x19, x0
   d9b90:	d2800300 	mov	x0, #0x18                  	// #24
   d9b94:	f90013f5 	str	x21, [sp, #32]
   d9b98:	aa0103f5 	mov	x21, x1
   d9b9c:	97fedde9 	bl	91340 <xmalloc@@Base>
   d9ba0:	aa0003f4 	mov	x20, x0
   d9ba4:	b4000113 	cbz	x19, d9bc4 <alloc_history_entry@@Base+0x44>
   d9ba8:	aa1303e0 	mov	x0, x19
   d9bac:	97fd5385 	bl	2e9c0 <strlen@plt>
   d9bb0:	91000400 	add	x0, x0, #0x1
   d9bb4:	97fedde3 	bl	91340 <xmalloc@@Base>
   d9bb8:	aa1303e1 	mov	x1, x19
[31m   d9bbc:	97fd55e9 	bl	2f360 <strcpy@plt>[0m
   d9bc0:	aa0003f3 	mov	x19, x0
   d9bc4:	a9005693 	stp	x19, x21, [x20]
--
   d9c6c:	a90153f3 	stp	x19, x20, [sp, #16]
   d9c70:	aa0003f3 	mov	x19, x0
   d9c74:	900002a0 	adrp	x0, 12d000 <o_options@@Base+0x2220>
   d9c78:	f943a000 	ldr	x0, [x0, #1856]
   d9c7c:	b9400000 	ldr	w0, [x0]
   d9c80:	7100001f 	cmp	w0, #0x0
   d9c84:	5400020d 	b.le	d9cc4 <add_history_time@@Base+0x64>
   d9c88:	b0000301 	adrp	x1, 13a000 <_rl_caught_signal@@Base+0x340>
   d9c8c:	928000e2 	mov	x2, #0xfffffffffffffff8    	// #-8
   d9c90:	8b20cc40 	add	x0, x2, w0, sxtw #3
   d9c94:	f9444021 	ldr	x1, [x1, #2176]
   d9c98:	f8606834 	ldr	x20, [x1, x0]
   d9c9c:	f9400680 	ldr	x0, [x20, #8]
   d9ca0:	b4000040 	cbz	x0, d9ca8 <add_history_time@@Base+0x48>
   d9ca4:	97fd5553 	bl	2f1f0 <free@plt>
   d9ca8:	aa1303e0 	mov	x0, x19
   d9cac:	97fd5345 	bl	2e9c0 <strlen@plt>
   d9cb0:	91000400 	add	x0, x0, #0x1
   d9cb4:	97fedda3 	bl	91340 <xmalloc@@Base>
   d9cb8:	aa1303e1 	mov	x1, x19
[31m   d9cbc:	97fd55a9 	bl	2f360 <strcpy@plt>[0m
   d9cc0:	f9000680 	str	x0, [x20, #8]
   d9cc4:	a94153f3 	ldp	x19, x20, [sp, #16]
--
   d9dd8:	54000940 	b.eq	d9f00 <add_history@@Base+0x1d0>  // b.none
   d9ddc:	11000454 	add	w20, w2, #0x1
   d9de0:	937d7e9a 	sbfiz	x26, x20, #3, #32
   d9de4:	d1002358 	sub	x24, x26, #0x8
   d9de8:	d2800000 	mov	x0, #0x0                   	// #0
   d9dec:	97fd53d5 	bl	2ed40 <time@plt>
   d9df0:	f00000e4 	adrp	x4, f8000 <is_basic_table@@Base+0x7f0>
   d9df4:	aa0003e5 	mov	x5, x0
   d9df8:	91394084 	add	x4, x4, #0xe50
   d9dfc:	d2800803 	mov	x3, #0x40                  	// #64
   d9e00:	52800022 	mov	w2, #0x1                   	// #1
   d9e04:	d28007e1 	mov	x1, #0x3f                  	// #63
   d9e08:	910163f9 	add	x25, sp, #0x58
   d9e0c:	aa1903e0 	mov	x0, x25
   d9e10:	97fd53ac 	bl	2ecc0 <__snprintf_chk@plt>
   d9e14:	aa1903e0 	mov	x0, x25
   d9e18:	97fd52ea 	bl	2e9c0 <strlen@plt>
   d9e1c:	91000400 	add	x0, x0, #0x1
   d9e20:	97fedd48 	bl	91340 <xmalloc@@Base>
   d9e24:	aa1903e1 	mov	x1, x25
[31m   d9e28:	97fd554e 	bl	2f360 <strcpy@plt>[0m
   d9e2c:	900002a2 	adrp	x2, 12d000 <o_options@@Base+0x2220>
   d9e30:	aa0003e1 	mov	x1, x0
--
   d9f38:	d503201f 	nop
   d9f3c:	d503201f 	nop

00000000000d9f40 <copy_history_entry@@Base>:
   d9f40:	a9be7bfd 	stp	x29, x30, [sp, #-32]!
   d9f44:	910003fd 	mov	x29, sp
   d9f48:	a90153f3 	stp	x19, x20, [sp, #16]
   d9f4c:	b40002a0 	cbz	x0, d9fa0 <copy_history_entry@@Base+0x60>
   d9f50:	aa0003f3 	mov	x19, x0
   d9f54:	d2800001 	mov	x1, #0x0                   	// #0
   d9f58:	f9400000 	ldr	x0, [x0]
   d9f5c:	97ffff09 	bl	d9b80 <alloc_history_entry@@Base>
   d9f60:	aa0003f4 	mov	x20, x0
   d9f64:	f9400661 	ldr	x1, [x19, #8]
   d9f68:	b4000101 	cbz	x1, d9f88 <copy_history_entry@@Base+0x48>
   d9f6c:	aa0103e0 	mov	x0, x1
   d9f70:	97fd5294 	bl	2e9c0 <strlen@plt>
   d9f74:	91000400 	add	x0, x0, #0x1
   d9f78:	97fedcf2 	bl	91340 <xmalloc@@Base>
   d9f7c:	f9400661 	ldr	x1, [x19, #8]
[31m   d9f80:	97fd54f8 	bl	2f360 <strcpy@plt>[0m
   d9f84:	aa0003e1 	mov	x1, x0
   d9f88:	f9400a60 	ldr	x0, [x19, #16]
--
   d9fd8:	900002a0 	adrp	x0, 12d000 <o_options@@Base+0x2220>
   d9fdc:	d2800016 	mov	x22, #0x0                   	// #0
   d9fe0:	f943a000 	ldr	x0, [x0, #1856]
   d9fe4:	b9400000 	ldr	w0, [x0]
   d9fe8:	6b13001f 	cmp	w0, w19
   d9fec:	5400038d 	b.le	da05c <replace_history_entry@@Base+0x9c>
   d9ff0:	aa0103f5 	mov	x21, x1
   d9ff4:	d2800300 	mov	x0, #0x18                  	// #24
   d9ff8:	a90363f7 	stp	x23, x24, [sp, #48]
   d9ffc:	aa0203f7 	mov	x23, x2
   da000:	97fedcd0 	bl	91340 <xmalloc@@Base>
   da004:	90000318 	adrp	x24, 13a000 <_rl_caught_signal@@Base+0x340>
   da008:	f9444301 	ldr	x1, [x24, #2176]
   da00c:	aa0003f4 	mov	x20, x0
   da010:	aa1503e0 	mov	x0, x21
   da014:	f8737836 	ldr	x22, [x1, x19, lsl #3]
   da018:	97fd526a 	bl	2e9c0 <strlen@plt>
   da01c:	91000400 	add	x0, x0, #0x1
   da020:	97fedcc8 	bl	91340 <xmalloc@@Base>
   da024:	aa1503e1 	mov	x1, x21
[31m   da028:	97fd54ce 	bl	2f360 <strcpy@plt>[0m
   da02c:	f9000280 	str	x0, [x20]
   da030:	f94006c0 	ldr	x0, [x22, #8]
   da034:	f9000a97 	str	x23, [x20, #16]
   da038:	97fd5262 	bl	2e9c0 <strlen@plt>
   da03c:	91000400 	add	x0, x0, #0x1
   da040:	97fedcc0 	bl	91340 <xmalloc@@Base>
   da044:	f94006c1 	ldr	x1, [x22, #8]
[31m   da048:	97fd54c6 	bl	2f360 <strcpy@plt>[0m
   da04c:	f9444301 	ldr	x1, [x24, #2176]
   da050:	a94363f7 	ldp	x23, x24, [sp, #48]
--
   da650:	d00000f4 	adrp	x20, f8000 <is_basic_table@@Base+0x7f0>
   da654:	913b0294 	add	x20, x20, #0xec0
   da658:	52800263 	mov	w3, #0x13                  	// #19
   da65c:	0b160063 	add	w3, w3, w22
   da660:	93407ed5 	sxtw	x21, w22
   da664:	11000c63 	add	w3, w3, #0x3
   da668:	93407c60 	sxtw	x0, w3
   da66c:	97fedb35 	bl	91340 <xmalloc@@Base>
   da670:	8b37c261 	add	x1, x19, w23, sxtw
   da674:	aa1503e2 	mov	x2, x21
   da678:	aa0003f3 	mov	x19, x0
   da67c:	97fd53b9 	bl	2f560 <strncpy@plt>
   da680:	8b150261 	add	x1, x19, x21
   da684:	52800740 	mov	w0, #0x3a                  	// #58
   da688:	52800402 	mov	w2, #0x20                  	// #32
   da68c:	3836ca60 	strb	w0, [x19, w22, sxtw]
   da690:	91000aa0 	add	x0, x21, #0x2
   da694:	39000422 	strb	w2, [x1, #1]
   da698:	8b000260 	add	x0, x19, x0
   da69c:	aa1403e1 	mov	x1, x20
[31m   da6a0:	97fd5330 	bl	2f360 <strcpy@plt>[0m
   da6a4:	aa1303e0 	mov	x0, x19
   da6a8:	a94153f3 	ldp	x19, x20, [sp, #16]
--
   db120:	3900035f 	strb	wzr, [x26]
   db124:	394002a0 	ldrb	w0, [x21]
   db128:	7100fc1f 	cmp	w0, #0x3f
   db12c:	f9403be0 	ldr	x0, [sp, #112]
   db130:	1a9c179c 	cinc	w28, w28, eq  // eq = none
   db134:	b900001c 	str	w28, [x0]
   db138:	39400340 	ldrb	w0, [x26]
   db13c:	350012c0 	cbnz	w0, db394 <get_history_event@@Base+0x4f4>
   db140:	f00002f3 	adrp	x19, 13a000 <_rl_caught_signal@@Base+0x340>
   db144:	91224273 	add	x19, x19, #0x890
   db148:	f9400675 	ldr	x21, [x19, #8]
   db14c:	b4001515 	cbz	x21, db3ec <get_history_event@@Base+0x54c>
   db150:	aa1a03e0 	mov	x0, x26
   db154:	97fed8ab 	bl	91400 <xfree@@Base>
   db158:	f9400660 	ldr	x0, [x19, #8]
   db15c:	d0000295 	adrp	x21, 12d000 <o_options@@Base+0x2220>
   db160:	97fd4e18 	bl	2e9c0 <strlen@plt>
   db164:	91000400 	add	x0, x0, #0x1
   db168:	97fed876 	bl	91340 <xmalloc@@Base>
   db16c:	f9400661 	ldr	x1, [x19, #8]
[31m   db170:	97fd507c 	bl	2f360 <strcpy@plt>[0m
   db174:	aa0003fa 	mov	x26, x0
   db178:	f943bab5 	ldr	x21, [x21, #1904]
--
   db560:	f90023f9 	str	x25, [sp, #64]
   db564:	d503201f 	nop
   db568:	f8787aa0 	ldr	x0, [x21, x24, lsl #3]
   db56c:	91000718 	add	x24, x24, #0x1
   db570:	110006f7 	add	w23, w23, #0x1
   db574:	97fd4d13 	bl	2e9c0 <strlen@plt>
   db578:	0b0002f7 	add	w23, w23, w0
   db57c:	51000701 	sub	w1, w24, #0x1
   db580:	6b0102df 	cmp	w22, w1
   db584:	54ffff2c 	b.gt	db568 <history_arg_extract@@Base+0x118>
   db588:	110006e0 	add	w0, w23, #0x1
   db58c:	52800419 	mov	w25, #0x20                  	// #32
   db590:	52800017 	mov	w23, #0x0                   	// #0
   db594:	93407c00 	sxtw	x0, w0
   db598:	97fed76a 	bl	91340 <xmalloc@@Base>
   db59c:	aa0003f8 	mov	x24, x0
   db5a0:	3900001f 	strb	wzr, [x0]
   db5a4:	d503201f 	nop
   db5a8:	f8737aa1 	ldr	x1, [x21, x19, lsl #3]
   db5ac:	8b37c300 	add	x0, x24, w23, sxtw
[31m   db5b0:	97fd4f6c 	bl	2f360 <strcpy@plt>[0m
   db5b4:	f8737aa0 	ldr	x0, [x21, x19, lsl #3]
   db5b8:	97fd4d02 	bl	2e9c0 <strlen@plt>
--
   db7a4:	f94006c0 	ldr	x0, [x22, #8]
   db7a8:	2a1303e1 	mov	w1, w19
   db7ac:	97fd4eb1 	bl	2f270 <strchr@plt>
   db7b0:	b4000340 	cbz	x0, db818 <history_expand@@Base+0x1e8>
   db7b4:	11000723 	add	w3, w25, #0x1
   db7b8:	b900f7e3 	str	w3, [sp, #244]
   db7bc:	3863cae1 	ldrb	w1, [x23, w3, sxtw]
   db7c0:	35fffd01 	cbnz	w1, db760 <history_expand@@Base+0x130>
   db7c4:	f94043f3 	ldr	x19, [sp, #128]
   db7c8:	3979431c 	ldrb	w28, [x24, #3664]
   db7cc:	6b1c003f 	cmp	w1, w28
   db7d0:	aa1703fc 	mov	x28, x23
   db7d4:	54000460 	b.eq	db860 <history_expand@@Base+0x230>  // b.none
   db7d8:	aa1303e0 	mov	x0, x19
   db7dc:	97fed709 	bl	91400 <xfree@@Base>
   db7e0:	aa1703e0 	mov	x0, x23
   db7e4:	97fd4c77 	bl	2e9c0 <strlen@plt>
   db7e8:	91000400 	add	x0, x0, #0x1
   db7ec:	97fed6d5 	bl	91340 <xmalloc@@Base>
   db7f0:	aa1703e1 	mov	x1, x23
[31m   db7f4:	97fd4edb 	bl	2f360 <strcpy@plt>[0m
   db7f8:	f9403fe1 	ldr	x1, [sp, #120]
   db7fc:	52800013 	mov	w19, #0x0                   	// #0
--
   dbae4:	d00002c0 	adrp	x0, 135000 <emacs_standard_keymap@@Base+0x310>
   dbae8:	f9472c00 	ldr	x0, [x0, #3672]
   dbaec:	97fd4de1 	bl	2f270 <strchr@plt>
   dbaf0:	b4fffc40 	cbz	x0, dba78 <history_expand@@Base+0x448>
   dbaf4:	4b160280 	sub	w0, w20, w22
   dbaf8:	11000400 	add	w0, w0, #0x1
   dbafc:	93407c00 	sxtw	x0, w0
   dbb00:	97fed610 	bl	91340 <xmalloc@@Base>
   dbb04:	b980f7e1 	ldrsw	x1, [sp, #244]
   dbb08:	f90043e0 	str	x0, [sp, #128]
   dbb0c:	8b010381 	add	x1, x28, x1
   dbb10:	97fd4c5c 	bl	2ec80 <stpcpy@plt>
   dbb14:	f94043e2 	ldr	x2, [sp, #128]
   dbb18:	cb02001a 	sub	x26, x0, x2
   dbb1c:	0b1a02fa 	add	w26, w23, w26
   dbb20:	6b1b035f 	cmp	w26, w27
   dbb24:	5400414a 	b.ge	dc34c <history_expand@@Base+0xd1c>  // b.tcont
   dbb28:	aa0203e1 	mov	x1, x2
   dbb2c:	8b37c260 	add	x0, x19, w23, sxtw
   dbb30:	f90043e2 	str	x2, [sp, #128]
[31m   dbb34:	97fd4e0b 	bl	2f360 <strcpy@plt>[0m
   dbb38:	f94043e2 	ldr	x2, [sp, #128]
   dbb3c:	2a1403f6 	mov	w22, w20
--
   dbc60:	54000101 	b.ne	dbc80 <history_expand@@Base+0x650>  // b.any
   dbc64:	b940f7e0 	ldr	w0, [sp, #244]
   dbc68:	91000673 	add	x19, x19, #0x1
   dbc6c:	eb1302bf 	cmp	x21, x19
   dbc70:	11000400 	add	w0, w0, #0x1
   dbc74:	b900f7e0 	str	w0, [sp, #244]
   dbc78:	3860cb83 	ldrb	w3, [x28, w0, sxtw]
   dbc7c:	54fffe61 	b.ne	dbc48 <history_expand@@Base+0x618>  // b.any
   dbc80:	aa1603e0 	mov	x0, x22
   dbc84:	97fd4b4f 	bl	2e9c0 <strlen@plt>
   dbc88:	b94083f4 	ldr	w20, [sp, #128]
   dbc8c:	f100041f 	cmp	x0, #0x1
   dbc90:	f94053f3 	ldr	x19, [sp, #160]
   dbc94:	54ffe429 	b.ls	db918 <history_expand@@Base+0x2e8>  // b.plast
   dbc98:	0b0002f5 	add	w21, w23, w0
   dbc9c:	6b1b02bf 	cmp	w21, w27
   dbca0:	5400550a 	b.ge	dc740 <history_expand@@Base+0x1110>  // b.tcont
   dbca4:	aa1603e1 	mov	x1, x22
   dbca8:	8b37c260 	add	x0, x19, w23, sxtw
   dbcac:	52800019 	mov	w25, #0x0                   	// #0
[31m   dbcb0:	97fd4dac 	bl	2f360 <strcpy@plt>[0m
   dbcb4:	2a1503f7 	mov	w23, w21
   dbcb8:	b940f7f6 	ldr	w22, [sp, #244]
   dbcbc:	17ffff0a 	b	db8e4 <history_expand@@Base+0x2b4>
   dbcc0:	7100033f 	cmp	w25, #0x0
   dbcc4:	52800002 	mov	w2, #0x0                   	// #0
   dbcc8:	5400008d 	b.le	dbcd8 <history_expand@@Base+0x6a8>
   dbccc:	385ff360 	ldurb	w0, [x27, #-1]
   dbcd0:	7100901f 	cmp	w0, #0x24
   dbcd4:	1a9f17e2 	cset	w2, eq  // eq = none
   dbcd8:	f94047e1 	ldr	x1, [sp, #136]
   dbcdc:	aa1703e0 	mov	x0, x23
   dbce0:	b900f7e3 	str	w3, [sp, #244]
   dbce4:	97fffa27 	bl	da580 <clear_history@@Base+0x90>
   dbce8:	b940f7e3 	ldr	w3, [sp, #244]
   dbcec:	11000463 	add	w3, w3, #0x1
   dbcf0:	17fffe99 	b	db754 <history_expand@@Base+0x124>
   dbcf4:	97fd4b33 	bl	2e9c0 <strlen@plt>
   dbcf8:	91000400 	add	x0, x0, #0x1
   dbcfc:	97fed591 	bl	91340 <xmalloc@@Base>
   dbd00:	52800013 	mov	w19, #0x0                   	// #0
   dbd04:	aa1703e1 	mov	x1, x23
[31m   dbd08:	97fd4d96 	bl	2f360 <strcpy@plt>[0m
   dbd0c:	f9403fe1 	ldr	x1, [sp, #120]
   dbd10:	a94363f7 	ldp	x23, x24, [sp, #48]
--
   dbd68:	b940f7f6 	ldr	w22, [sp, #244]
   dbd6c:	4b0702d6 	sub	w22, w22, w7
   dbd70:	11000ad6 	add	w22, w22, #0x2
   dbd74:	93407ed6 	sxtw	x22, w22
   dbd78:	aa1603e0 	mov	x0, x22
   dbd7c:	97fed571 	bl	91340 <xmalloc@@Base>
   dbd80:	aa1903e1 	mov	x1, x25
   dbd84:	aa0003f9 	mov	x25, x0
   dbd88:	aa1603e2 	mov	x2, x22
   dbd8c:	8b160336 	add	x22, x25, x22
   dbd90:	97fd4df4 	bl	2f560 <strncpy@plt>
   dbd94:	aa1903e0 	mov	x0, x25
   dbd98:	381ff2df 	sturb	wzr, [x22, #-1]
   dbd9c:	97fd4b09 	bl	2e9c0 <strlen@plt>
   dbda0:	0b0002f6 	add	w22, w23, w0
   dbda4:	6b1b02df 	cmp	w22, w27
   dbda8:	5400608a 	b.ge	dc9b8 <history_expand@@Base+0x1388>  // b.tcont
   dbdac:	aa1903e1 	mov	x1, x25
   dbdb0:	8b37c260 	add	x0, x19, w23, sxtw
   dbdb4:	b9008bff 	str	wzr, [sp, #136]
[31m   dbdb8:	97fd4d6a 	bl	2f360 <strcpy@plt>[0m
   dbdbc:	aa1903e0 	mov	x0, x25
   dbdc0:	2a1603f7 	mov	w23, w22
   dbdc4:	97fed58f 	bl	91400 <xfree@@Base>
   dbdc8:	52800019 	mov	w25, #0x0                   	// #0
   dbdcc:	b940f7f6 	ldr	w22, [sp, #244]
   dbdd0:	17fffec5 	b	db8e4 <history_expand@@Base+0x2b4>
   dbdd4:	11001401 	add	w1, w0, #0x5
   dbdd8:	11001000 	add	w0, w0, #0x4
   dbddc:	b9006be0 	str	w0, [sp, #104]
   dbde0:	f00002f4 	adrp	x20, 13a000 <_rl_caught_signal@@Base+0x340>
   dbde4:	93407c20 	sxtw	x0, w1
   dbde8:	97fed556 	bl	91340 <xmalloc@@Base>
   dbdec:	aa0003fc 	mov	x28, x0
   dbdf0:	39794302 	ldrb	w2, [x24, #3664]
   dbdf4:	528e6743 	mov	w3, #0x733a                	// #29498
   dbdf8:	aa1703e1 	mov	x1, x23
   dbdfc:	91001000 	add	x0, x0, #0x4
   dbe00:	39000382 	strb	w2, [x28]
   dbe04:	39000782 	strb	w2, [x28, #1]
   dbe08:	79000783 	strh	w3, [x28, #2]
[31m   dbe0c:	97fd4d55 	bl	2f360 <strcpy@plt>[0m
   dbe10:	b900f7ff 	str	wzr, [sp, #244]
   dbe14:	91224281 	add	x1, x20, #0x890
--
   dc044:	54005421 	b.ne	dcac8 <history_expand@@Base+0x1498>  // b.any
   dc048:	7101783f 	cmp	w1, #0x5e
   dc04c:	54005b00 	b.eq	dcbac <history_expand@@Base+0x157c>  // b.none
   dc050:	11000484 	add	w4, w4, #0x1
   dc054:	52800481 	mov	w1, #0x24                  	// #36
   dc058:	b900fbe4 	str	w4, [sp, #248]
   dc05c:	aa1a03e2 	mov	x2, x26
   dc060:	97fffcfc 	bl	db450 <history_arg_extract@@Base>
   dc064:	aa0003e1 	mov	x1, x0
   dc068:	b4005ac0 	cbz	x0, dcbc0 <history_expand@@Base+0x1590>
   dc06c:	f94037e0 	ldr	x0, [sp, #104]
   dc070:	91008000 	add	x0, x0, #0x20
   dc074:	eb00003f 	cmp	x1, x0
   dc078:	54005a40 	b.eq	dcbc0 <history_expand@@Base+0x1590>  // b.none
   dc07c:	aa0103e0 	mov	x0, x1
   dc080:	f90053e1 	str	x1, [sp, #160]
   dc084:	97fd4a4f 	bl	2e9c0 <strlen@plt>
   dc088:	91000400 	add	x0, x0, #0x1
   dc08c:	97fed4ad 	bl	91340 <xmalloc@@Base>
   dc090:	f94053e1 	ldr	x1, [sp, #160]
[31m   dc094:	97fd4cb3 	bl	2f360 <strcpy@plt>[0m
   dc098:	aa0003f6 	mov	x22, x0
   dc09c:	f94053e1 	ldr	x1, [sp, #160]
--
   dc180:	b900fbfa 	str	w26, [sp, #248]
   dc184:	7100041f 	cmp	w0, #0x1
   dc188:	b9409be0 	ldr	w0, [sp, #152]
   dc18c:	aa1903f6 	mov	x22, x25
   dc190:	1a801400 	cinc	w0, w0, eq  // eq = none
   dc194:	b9009be0 	str	w0, [sp, #152]
   dc198:	b940abe0 	ldr	w0, [sp, #168]
   dc19c:	2959d3f7 	ldp	w23, w20, [sp, #204]
   dc1a0:	295aeff9 	ldp	w25, w27, [sp, #212]
   dc1a4:	34000200 	cbz	w0, dc1e4 <history_expand@@Base+0xbb4>
   dc1a8:	7101c41f 	cmp	w0, #0x71
   dc1ac:	54006020 	b.eq	dcdb0 <history_expand@@Base+0x1780>  // b.none
   dc1b0:	b940abe0 	ldr	w0, [sp, #168]
   dc1b4:	7101e01f 	cmp	w0, #0x78
   dc1b8:	540055c0 	b.eq	dcc70 <history_expand@@Base+0x1640>  // b.none
   dc1bc:	aa1603e0 	mov	x0, x22
   dc1c0:	97fd4a00 	bl	2e9c0 <strlen@plt>
   dc1c4:	91000400 	add	x0, x0, #0x1
   dc1c8:	97fed45e 	bl	91340 <xmalloc@@Base>
   dc1cc:	aa1603e1 	mov	x1, x22
[31m   dc1d0:	97fd4c64 	bl	2f360 <strcpy@plt>[0m
   dc1d4:	aa0003e1 	mov	x1, x0
   dc1d8:	aa1603e0 	mov	x0, x22
   dc1dc:	aa0103f6 	mov	x22, x1
   dc1e0:	97fed488 	bl	91400 <xfree@@Base>
   dc1e4:	aa1603e0 	mov	x0, x22
   dc1e8:	97fd49f6 	bl	2e9c0 <strlen@plt>
   dc1ec:	7101fc1f 	cmp	w0, #0x7f
   dc1f0:	5400518c 	b.gt	dcc20 <history_expand@@Base+0x15f0>
   dc1f4:	f94043f5 	ldr	x21, [sp, #128]
   dc1f8:	aa1603e1 	mov	x1, x22
   dc1fc:	aa1503e0 	mov	x0, x21
[31m   dc200:	97fd4c58 	bl	2f360 <strcpy@plt>[0m
   dc204:	b9409fe1 	ldr	w1, [sp, #156]
   dc208:	aa1603e0 	mov	x0, x22
   dc20c:	11000421 	add	w1, w1, #0x1
   dc210:	b9009fe1 	str	w1, [sp, #156]
   dc214:	97fed47b 	bl	91400 <xfree@@Base>
   dc218:	b940fbf6 	ldr	w22, [sp, #248]
   dc21c:	394002a0 	ldrb	w0, [x21]
   dc220:	34000140 	cbz	w0, dc248 <history_expand@@Base+0xc18>
   dc224:	f94043e0 	ldr	x0, [sp, #128]
   dc228:	97fd49e6 	bl	2e9c0 <strlen@plt>
   dc22c:	0b0002fa 	add	w26, w23, w0
   dc230:	6b1b035f 	cmp	w26, w27
   dc234:	54004aaa 	b.ge	dcb88 <history_expand@@Base+0x1558>  // b.tcont
   dc238:	f94043e1 	ldr	x1, [sp, #128]
   dc23c:	8b37c260 	add	x0, x19, w23, sxtw
   dc240:	2a1a03f7 	mov	w23, w26
[31m   dc244:	97fd4c47 	bl	2f360 <strcpy@plt>[0m
   dc248:	f94043e0 	ldr	x0, [sp, #128]
   dc24c:	97fed46d 	bl	91400 <xfree@@Base>
--
   dc454:	93407c00 	sxtw	x0, w0
   dc458:	2a0003e2 	mov	w2, w0
   dc45c:	91000400 	add	x0, x0, #0x1
   dc460:	38606861 	ldrb	w1, [x3, x0]
   dc464:	35ffffa1 	cbnz	w1, dc458 <history_expand@@Base+0xe28>
   dc468:	b900f7e2 	str	w2, [sp, #244]
   dc46c:	17fffcfa 	b	db854 <history_expand@@Base+0x224>
   dc470:	7100981f 	cmp	w0, #0x26
   dc474:	540029a0 	b.eq	dc9a8 <history_expand@@Base+0x1378>  // b.none
   dc478:	7101941f 	cmp	w0, #0x65
   dc47c:	540010e1 	b.ne	dc698 <history_expand@@Base+0x1068>  // b.any
   dc480:	aa1903e0 	mov	x0, x25
   dc484:	528005c1 	mov	w1, #0x2e                  	// #46
   dc488:	97fd4af6 	bl	2f060 <strrchr@plt>
   dc48c:	aa0003f7 	mov	x23, x0
   dc490:	b40003a0 	cbz	x0, dc504 <history_expand@@Base+0xed4>
   dc494:	97fd494b 	bl	2e9c0 <strlen@plt>
   dc498:	91000400 	add	x0, x0, #0x1
   dc49c:	97fed3a9 	bl	91340 <xmalloc@@Base>
   dc4a0:	aa1703e1 	mov	x1, x23
[31m   dc4a4:	97fd4baf 	bl	2f360 <strcpy@plt>[0m
   dc4a8:	aa0003fa 	mov	x26, x0
   dc4ac:	aa1903e0 	mov	x0, x25
--
   dc60c:	54002ead 	b.le	dcbe0 <history_expand@@Base+0x15b0>
   dc610:	38636841 	ldrb	w1, [x2, x3]
   dc614:	2a1503e0 	mov	w0, w21
   dc618:	383acae1 	strb	w1, [x23, w26, sxtw]
   dc61c:	1100075a 	add	w26, w26, #0x1
   dc620:	b9403ac1 	ldr	w1, [x22, #56]
   dc624:	6b15003f 	cmp	w1, w21
   dc628:	54000aad 	b.le	dc77c <history_expand@@Base+0x114c>
   dc62c:	3860c841 	ldrb	w1, [x2, w0, sxtw]
   dc630:	93407c03 	sxtw	x3, w0
   dc634:	11000415 	add	w21, w0, #0x1
   dc638:	7100983f 	cmp	w1, #0x26
   dc63c:	54fffe21 	b.ne	dc600 <history_expand@@Base+0xfd0>  // b.any
   dc640:	b94026c0 	ldr	w0, [x22, #36]
   dc644:	0b1a0001 	add	w1, w0, w26
   dc648:	6b1b003f 	cmp	w1, w27
   dc64c:	54002f6a 	b.ge	dcc38 <history_expand@@Base+0x1608>  // b.tcont
   dc650:	f94016c1 	ldr	x1, [x22, #40]
   dc654:	8b3ac2e0 	add	x0, x23, w26, sxtw
   dc658:	f9005be2 	str	x2, [sp, #176]
[31m   dc65c:	97fd4b41 	bl	2f360 <strcpy@plt>[0m
   dc660:	b94026c1 	ldr	w1, [x22, #36]
   dc664:	2a1503e0 	mov	w0, w21
--
   dc934:	aa1c03e0 	mov	x0, x28
   dc938:	b9009fff 	str	wzr, [sp, #156]
   dc93c:	97fed2b1 	bl	91400 <xfree@@Base>
   dc940:	17fffc1b 	b	db9ac <history_expand@@Base+0x37c>
   dc944:	11000484 	add	w4, w4, #0x1
   dc948:	aa1a03e2 	mov	x2, x26
   dc94c:	2a0103e0 	mov	w0, w1
   dc950:	b900fbe4 	str	w4, [sp, #248]
   dc954:	97fffabf 	bl	db450 <history_arg_extract@@Base>
   dc958:	f94037e1 	ldr	x1, [sp, #104]
   dc95c:	91008022 	add	x2, x1, #0x20
   dc960:	aa0003e1 	mov	x1, x0
   dc964:	eb02001f 	cmp	x0, x2
   dc968:	540012c0 	b.eq	dcbc0 <history_expand@@Base+0x1590>  // b.none
   dc96c:	b5ffb880 	cbnz	x0, dc07c <history_expand@@Base+0xa4c>
   dc970:	aa1a03e0 	mov	x0, x26
   dc974:	97fd4813 	bl	2e9c0 <strlen@plt>
   dc978:	91000400 	add	x0, x0, #0x1
   dc97c:	97fed271 	bl	91340 <xmalloc@@Base>
   dc980:	aa1a03e1 	mov	x1, x26
[31m   dc984:	97fd4a77 	bl	2f360 <strcpy@plt>[0m
   dc988:	aa0003f6 	mov	x22, x0
   dc98c:	17fffdc7 	b	dc0a8 <history_expand@@Base+0xa78>
--
   dca6c:	f9404bf7 	ldr	x23, [sp, #144]
   dca70:	2a1603f4 	mov	w20, w22
   dca74:	2a0403e2 	mov	w2, w4
   dca78:	2a1403e1 	mov	w1, w20
   dca7c:	52800023 	mov	w3, #0x1                   	// #1
   dca80:	aa1c03e0 	mov	x0, x28
   dca84:	97fff6e3 	bl	da610 <clear_history@@Base+0x120>
   dca88:	aa0003f4 	mov	x20, x0
   dca8c:	f94043e0 	ldr	x0, [sp, #128]
   dca90:	97fed25c 	bl	91400 <xfree@@Base>
   dca94:	17ffff11 	b	dc6d8 <history_expand@@Base+0x10a8>
   dca98:	f94037f5 	ldr	x21, [sp, #104]
   dca9c:	11000484 	add	w4, w4, #0x1
   dcaa0:	b900fbe4 	str	w4, [sp, #248]
   dcaa4:	f9400aa0 	ldr	x0, [x21, #16]
   dcaa8:	b4000660 	cbz	x0, dcb74 <history_expand@@Base+0x1544>
   dcaac:	97fd47c5 	bl	2e9c0 <strlen@plt>
   dcab0:	91000400 	add	x0, x0, #0x1
   dcab4:	97fed223 	bl	91340 <xmalloc@@Base>
   dcab8:	f9400aa1 	ldr	x1, [x21, #16]
[31m   dcabc:	97fd4a29 	bl	2f360 <strcpy@plt>[0m
   dcac0:	aa0003e1 	mov	x1, x0
   dcac4:	17fffd6a 	b	dc06c <history_expand@@Base+0xa3c>
--
   dce18:	a9046bf9 	stp	x25, x26, [sp, #64]
   dce1c:	a90573fb 	stp	x27, x28, [sp, #80]
   dce20:	97fd4884 	bl	2f030 <__stack_chk_fail@plt>
   dce24:	b940dfe0 	ldr	w0, [sp, #220]
   dce28:	34ff99a0 	cbz	w0, dc15c <history_expand@@Base+0xb2c>
   dce2c:	aa1c03e0 	mov	x0, x28
   dce30:	2a1703e2 	mov	w2, w23
   dce34:	aa1303fc 	mov	x28, x19
   dce38:	aa1903f6 	mov	x22, x25
   dce3c:	aa0003f3 	mov	x19, x0
   dce40:	f9404bf7 	ldr	x23, [sp, #144]
   dce44:	17ffffe5 	b	dcdd8 <history_expand@@Base+0x17a8>
   dce48:	d2800000 	mov	x0, #0x0                   	// #0
   dce4c:	17fffe4f 	b	dc788 <history_expand@@Base+0x1158>
   dce50:	39400081 	ldrb	w1, [x4]
   dce54:	17ffff33 	b	dcb20 <history_expand@@Base+0x14f0>
   dce58:	97fd46da 	bl	2e9c0 <strlen@plt>
   dce5c:	91000400 	add	x0, x0, #0x1
   dce60:	97fed138 	bl	91340 <xmalloc@@Base>
   dce64:	f94006a1 	ldr	x1, [x21, #8]
[31m   dce68:	97fd493e 	bl	2f360 <strcpy@plt>[0m
   dce6c:	f90016a0 	str	x0, [x21, #40]
   dce70:	97fd46d4 	bl	2e9c0 <strlen@plt>
--
   dcebc:	9100c3f4 	add	x20, sp, #0x30
   dcec0:	f9432a63 	ldr	x3, [x19, #1616]
   dcec4:	aa1403e1 	mov	x1, x20
   dcec8:	a9025bf5 	stp	x21, x22, [sp, #32]
   dcecc:	aa0003f6 	mov	x22, x0
   dced0:	f9400064 	ldr	x4, [x3]
   dced4:	f9081fe4 	str	x4, [sp, #4152]
   dced8:	d2800004 	mov	x4, #0x0                   	// #0
   dcedc:	97fd4705 	bl	2eaf0 <readlink@plt>
   dcee0:	f100001f 	cmp	x0, #0x0
   dcee4:	5400006d 	b.le	dcef0 <history_tokenize@@Base+0x60>
   dcee8:	aa1403f6 	mov	x22, x20
   dceec:	38206a9f 	strb	wzr, [x20, x0]
   dcef0:	aa1603e0 	mov	x0, x22
   dcef4:	97fd46b3 	bl	2e9c0 <strlen@plt>
   dcef8:	aa0003f5 	mov	x21, x0
   dcefc:	91002c00 	add	x0, x0, #0xb
   dcf00:	97fed110 	bl	91340 <xmalloc@@Base>
   dcf04:	aa0003f4 	mov	x20, x0
   dcf08:	aa1603e1 	mov	x1, x22
[31m   dcf0c:	97fd4915 	bl	2f360 <strcpy@plt>[0m
   dcf10:	97fd477c 	bl	2ed00 <getpid@plt>
   dcf14:	131f7c09 	asr	w9, w0, #31
--
   dd104:	97fd462f 	bl	2e9c0 <strlen@plt>
   dd108:	91000400 	add	x0, x0, #0x1
   dd10c:	97fed08d 	bl	91340 <xmalloc@@Base>
   dd110:	aa1303e1 	mov	x1, x19
   dd114:	a94153f3 	ldp	x19, x20, [sp, #16]
   dd118:	a8c27bfd 	ldp	x29, x30, [sp], #32
[31m   dd11c:	17fd4891 	b	2f360 <strcpy@plt>[0m
   dd120:	f0000000 	adrp	x0, e0000 <rl_insert_close@@Base+0x290>
   dd124:	91278000 	add	x0, x0, #0x9e0
   dd128:	97fdcaba 	bl	4fc10 <sh_get_env_value@@Base>
   dd12c:	aa0003f4 	mov	x20, x0
   dd130:	b4000300 	cbz	x0, dd190 <history_tokenize@@Base+0x300>
   dd134:	97fd4623 	bl	2e9c0 <strlen@plt>
   dd138:	aa0003f3 	mov	x19, x0
   dd13c:	11002800 	add	w0, w0, #0xa
   dd140:	93407e73 	sxtw	x19, w19
   dd144:	93407c00 	sxtw	x0, w0
   dd148:	97fed07e 	bl	91340 <xmalloc@@Base>
   dd14c:	aa1403e1 	mov	x1, x20
   dd150:	aa0003f4 	mov	x20, x0
[31m   dd154:	97fd4883 	bl	2f360 <strcpy@plt>[0m
   dd158:	f00000c0 	adrp	x0, f8000 <is_basic_table@@Base+0x7f0>
   dd15c:	913cc000 	add	x0, x0, #0xf30
--
   dd2b4:	93407e60 	sxtw	x0, w19
   dd2b8:	f90037e0 	str	x0, [sp, #104]
   dd2bc:	f94037e0 	ldr	x0, [sp, #104]
   dd2c0:	97fd46a8 	bl	2ed60 <malloc@plt>
   dd2c4:	aa0003f3 	mov	x19, x0
   dd2c8:	b40014c0 	cbz	x0, dd560 <history_tokenize@@Base+0x6d0>
   dd2cc:	f943a2d6 	ldr	x22, [x22, #1856]
   dd2d0:	b9407be0 	ldr	w0, [sp, #120]
   dd2d4:	b94002d6 	ldr	w22, [x22]
   dd2d8:	4b0002c2 	sub	w2, w22, w0
   dd2dc:	b00002e0 	adrp	x0, 13a000 <_rl_caught_signal@@Base+0x340>
   dd2e0:	f9003be0 	str	x0, [sp, #112]
   dd2e4:	6b0202df 	cmp	w22, w2
   dd2e8:	5400058d 	b.le	dd398 <history_tokenize@@Base+0x508>
   dd2ec:	b948cc19 	ldr	w25, [x0, #2252]
   dd2f0:	93407c5b 	sxtw	x27, w2
   dd2f4:	52800001 	mov	w1, #0x0                   	// #0
   dd2f8:	52800157 	mov	w23, #0xa                   	// #10
   dd2fc:	1400000c 	b	dd32c <history_tokenize@@Base+0x49c>
   dd300:	f94000a1 	ldr	x1, [x5]
[31m   dd304:	97fd4817 	bl	2f360 <strcpy@plt>[0m
   dd308:	f87b7a80 	ldr	x0, [x20, x27, lsl #3]
   dd30c:	9100077b 	add	x27, x27, #0x1
   dd310:	f9400000 	ldr	x0, [x0]
   dd314:	97fd45ab 	bl	2e9c0 <strlen@plt>
   dd318:	0b000303 	add	w3, w24, w0
   dd31c:	6b1b02df 	cmp	w22, w27
   dd320:	11000461 	add	w1, w3, #0x1
   dd324:	3823ca77 	strb	w23, [x19, w3, sxtw]
   dd328:	5400038d 	b.le	dd398 <history_tokenize@@Base+0x508>
   dd32c:	8b21c260 	add	x0, x19, w1, sxtw
   dd330:	2a0103f8 	mov	w24, w1
   dd334:	f87b7a85 	ldr	x5, [x20, x27, lsl #3]
   dd338:	34fffe59 	cbz	w25, dd300 <history_tokenize@@Base+0x470>
   dd33c:	f94004a1 	ldr	x1, [x5, #8]
   dd340:	b4fffe01 	cbz	x1, dd300 <history_tokenize@@Base+0x470>
   dd344:	39400026 	ldrb	w6, [x1]
   dd348:	34fffdc6 	cbz	w6, dd300 <history_tokenize@@Base+0x470>
[31m   dd34c:	97fd4805 	bl	2f360 <strcpy@plt>[0m
   dd350:	f87b7a80 	ldr	x0, [x20, x27, lsl #3]
   dd354:	f9400400 	ldr	x0, [x0, #8]
--
   de274:	910003fd 	mov	x29, sp
   de278:	a90153f3 	stp	x19, x20, [sp, #16]
   de27c:	a9025bf5 	stp	x21, x22, [sp, #32]
   de280:	aa0003f5 	mov	x21, x0
   de284:	2a0203f6 	mov	w22, w2
   de288:	a90363f7 	stp	x23, x24, [sp, #48]
   de28c:	2a0103f7 	mov	w23, w1
   de290:	97fd41cc 	bl	2e9c0 <strlen@plt>
   de294:	aa0003f4 	mov	x20, x0
   de298:	51000400 	sub	w0, w0, #0x1
   de29c:	3860caa1 	ldrb	w1, [x21, w0, sxtw]
   de2a0:	7101703f 	cmp	w1, #0x5c
   de2a4:	54000500 	b.eq	de344 <_hs_history_patsearch@@Base+0xd4>  // b.none
   de2a8:	91000e80 	add	x0, x20, #0x3
   de2ac:	97fecc25 	bl	91340 <xmalloc@@Base>
   de2b0:	aa0003f3 	mov	x19, x0
   de2b4:	36000376 	tbz	w22, #0, de320 <_hs_history_patsearch@@Base+0xb0>
   de2b8:	d1000698 	sub	x24, x20, #0x1
   de2bc:	aa1303e0 	mov	x0, x19
   de2c0:	aa1503e1 	mov	x1, x21
[31m   de2c4:	97fd4427 	bl	2f360 <strcpy@plt>[0m
   de2c8:	38786a60 	ldrb	w0, [x19, x24]
   de2cc:	7100a81f 	cmp	w0, #0x2a
--
   dec20:	a90153f3 	stp	x19, x20, [sp, #16]
   dec24:	aa0003f4 	mov	x20, x0
   dec28:	aa1503e0 	mov	x0, x21
   dec2c:	97fd3f65 	bl	2e9c0 <strlen@plt>
   dec30:	aa0003f3 	mov	x19, x0
   dec34:	b4000334 	cbz	x20, dec98 <_rl_find_prev_mbchar@@Base+0x98>
   dec38:	39400280 	ldrb	w0, [x20]
   dec3c:	340002e0 	cbz	w0, dec98 <_rl_find_prev_mbchar@@Base+0x98>
   dec40:	aa1403e0 	mov	x0, x20
   dec44:	f9001bf7 	str	x23, [sp, #48]
   dec48:	97fd3f5e 	bl	2e9c0 <strlen@plt>
   dec4c:	0b000273 	add	w19, w19, w0
   dec50:	11000673 	add	w19, w19, #0x1
   dec54:	aa0003f7 	mov	x23, x0
   dec58:	93407c16 	sxtw	x22, w0
   dec5c:	93407e60 	sxtw	x0, w19
   dec60:	97fec9b8 	bl	91340 <xmalloc@@Base>
   dec64:	aa0003f3 	mov	x19, x0
   dec68:	340002f7 	cbz	w23, decc4 <_rl_find_prev_mbchar@@Base+0xc4>
   dec6c:	aa1403e1 	mov	x1, x20
[31m   dec70:	97fd41bc 	bl	2f360 <strcpy@plt>[0m
   dec74:	8b160260 	add	x0, x19, x22
   dec78:	aa1503e1 	mov	x1, x21
   dec7c:	f9401bf7 	ldr	x23, [sp, #48]
[31m   dec80:	97fd41b8 	bl	2f360 <strcpy@plt>[0m
   dec84:	aa1303e0 	mov	x0, x19
   dec88:	a94153f3 	ldp	x19, x20, [sp, #16]
   dec8c:	a9425bf5 	ldp	x21, x22, [sp, #32]
   dec90:	a8c47bfd 	ldp	x29, x30, [sp], #64
   dec94:	d65f03c0 	ret
   dec98:	11000660 	add	w0, w19, #0x1
   dec9c:	93407c00 	sxtw	x0, w0
   deca0:	97fec9a8 	bl	91340 <xmalloc@@Base>
   deca4:	aa0003f3 	mov	x19, x0
   deca8:	aa1503e1 	mov	x1, x21
[31m   decac:	97fd41ad 	bl	2f360 <strcpy@plt>[0m
   decb0:	aa1303e0 	mov	x0, x19
   decb4:	a94153f3 	ldp	x19, x20, [sp, #16]
--
   dedfc:	9123c2f7 	add	x23, x23, #0x8f0
   dee00:	f94006e1 	ldr	x1, [x23, #8]
   dee04:	b40001a1 	cbz	x1, dee38 <tilde_expand_word@@Base+0x168>
   dee08:	aa1403e0 	mov	x0, x20
   dee0c:	d63f0020 	blr	x1
   dee10:	aa0003f6 	mov	x22, x0
   dee14:	b4000120 	cbz	x0, dee38 <tilde_expand_word@@Base+0x168>
   dee18:	2a1503e2 	mov	w2, w21
   dee1c:	aa1303e1 	mov	x1, x19
   dee20:	97ffff7c 	bl	dec10 <_rl_find_prev_mbchar@@Base+0x10>
   dee24:	aa0003f5 	mov	x21, x0
   dee28:	aa1603e0 	mov	x0, x22
   dee2c:	97fec975 	bl	91400 <xfree@@Base>
   dee30:	b5fffb55 	cbnz	x21, ded98 <tilde_expand_word@@Base+0xc8>
   dee34:	d503201f 	nop
   dee38:	aa1303e0 	mov	x0, x19
   dee3c:	97fd3ee1 	bl	2e9c0 <strlen@plt>
   dee40:	91000400 	add	x0, x0, #0x1
   dee44:	97fec93f 	bl	91340 <xmalloc@@Base>
   dee48:	aa1303e1 	mov	x1, x19
[31m   dee4c:	97fd4145 	bl	2f360 <strcpy@plt>[0m
   dee50:	aa0003f5 	mov	x21, x0
   dee54:	17ffffd1 	b	ded98 <tilde_expand_word@@Base+0xc8>
--
   df048:	97fec8be 	bl	91340 <xmalloc@@Base>
   df04c:	aa1303e1 	mov	x1, x19
   df050:	aa0003f3 	mov	x19, x0
   df054:	aa1a03e2 	mov	x2, x26
   df058:	97fd4142 	bl	2f560 <strncpy@plt>
   df05c:	aa1303e0 	mov	x0, x19
   df060:	383a6a7f 	strb	wzr, [x19, x26]
   df064:	97ffff1b 	bl	decd0 <tilde_expand_word@@Base>
   df068:	aa0003e1 	mov	x1, x0
   df06c:	b4000080 	cbz	x0, df07c <tilde_expand@@Base+0x1cc>
   df070:	aa1303e0 	mov	x0, x19
   df074:	aa0103f3 	mov	x19, x1
   df078:	97fec8e2 	bl	91400 <xfree@@Base>
   df07c:	aa1303e0 	mov	x0, x19
   df080:	97fd3e50 	bl	2e9c0 <strlen@plt>
   df084:	0b0002fa 	add	w26, w23, w0
   df088:	6b16035f 	cmp	w26, w22
   df08c:	5400056a 	b.ge	df138 <tilde_expand@@Base+0x288>  // b.tcont
   df090:	aa1303e1 	mov	x1, x19
   df094:	8b37c2a0 	add	x0, x21, w23, sxtw
[31m   df098:	97fd40b2 	bl	2f360 <strcpy@plt>[0m
   df09c:	aa1303e0 	mov	x0, x19
   df0a0:	97fec8d8 	bl	91400 <xfree@@Base>
--
   df360:	a9ab7bfd 	stp	x29, x30, [sp, #-336]!
   df364:	910003fd 	mov	x29, sp
   df368:	a90153f3 	stp	x19, x20, [sp, #16]
   df36c:	d0000273 	adrp	x19, 12d000 <o_options@@Base+0x2220>
   df370:	aa0003f4 	mov	x20, x0
   df374:	f9467a73 	ldr	x19, [x19, #3312]
   df378:	a9025bf5 	stp	x21, x22, [sp, #32]
   df37c:	d0000275 	adrp	x21, 12d000 <o_options@@Base+0x2220>
   df380:	f90023ff 	str	xzr, [sp, #64]
   df384:	f9432aa2 	ldr	x2, [x21, #1616]
   df388:	f9400261 	ldr	x1, [x19]
   df38c:	f9400043 	ldr	x3, [x2]
   df390:	f900a7e3 	str	x3, [sp, #328]
   df394:	d2800003 	mov	x3, #0x0                   	// #0
   df398:	f9001bf7 	str	x23, [sp, #48]
   df39c:	b4000161 	cbz	x1, df3c8 <_rl_print_color_indicator@@Base+0x68>
   df3a0:	97fd3d88 	bl	2e9c0 <strlen@plt>
   df3a4:	91000400 	add	x0, x0, #0x1
   df3a8:	97fec7e6 	bl	91340 <xmalloc@@Base>
   df3ac:	aa1403e1 	mov	x1, x20
[31m   df3b0:	97fd3fec 	bl	2f360 <strcpy@plt>[0m
   df3b4:	f9400261 	ldr	x1, [x19]
   df3b8:	f90023e0 	str	x0, [sp, #64]
--
   dfae0:	a8c77bfd 	ldp	x29, x30, [sp], #112
   dfae4:	d65f03c0 	ret
   dfae8:	90000021 	adrp	x1, e3000 <_IO_stdin_used@@Base+0x2db8>
   dfaec:	913fa021 	add	x1, x1, #0xfe8
   dfaf0:	a90153f3 	stp	x19, x20, [sp, #16]
   dfaf4:	b00000d6 	adrp	x22, f8000 <is_basic_table@@Base+0x7f0>
   dfaf8:	913d62d6 	add	x22, x22, #0xf58
   dfafc:	79400022 	ldrh	w2, [x1]
   dfb00:	39400821 	ldrb	w1, [x1, #2]
   dfb04:	a90363f7 	stp	x23, x24, [sp, #48]
   dfb08:	f00002d7 	adrp	x23, 13a000 <_rl_caught_signal@@Base+0x340>
   dfb0c:	a9046bf9 	stp	x25, x26, [sp, #64]
   dfb10:	f0000259 	adrp	x25, 12a000 <case_doc@@Base+0x8>
   dfb14:	912b2339 	add	x25, x25, #0xac8
   dfb18:	7900c3e2 	strh	w2, [sp, #96]
   dfb1c:	39018be1 	strb	w1, [sp, #98]
   dfb20:	97fd3ba8 	bl	2e9c0 <strlen@plt>
   dfb24:	91000400 	add	x0, x0, #0x1
   dfb28:	97fec606 	bl	91340 <xmalloc@@Base>
   dfb2c:	f9402be1 	ldr	x1, [sp, #80]
[31m   dfb30:	97fd3e0c 	bl	2f360 <strcpy@plt>[0m
   dfb34:	f90486e0 	str	x0, [x23, #2312]
   dfb38:	f9402be1 	ldr	x1, [sp, #80]

[[0;33m*[0m] Function [0;33mstrcpy[0m used [0;33m461[0m times [0;33mbash.bash[0m

