Certificate:
    Data:
        Version: 3 (0x2)
        Serial Number:
            14:be:e2:c1:86:00:7c:06:ab:34:5c:36:0b:44:35:cc:48:c2:e3:25
        Signature Algorithm: sha256WithRSAEncryption
        Issuer: CN = localhost
        Validity
            Not Before: Jul  8 11:30:07 2021 GMT
            Not After : Jun 14 11:30:07 2121 GMT
        Subject: CN = localhost
        Subject Public Key Info:
            Public Key Algorithm: rsaEncryption
                RSA Public-Key: (4096 bit)
                Modulus:
                    00:b6:bf:e4:d5:db:2c:7d:0c:ae:fc:2d:60:8b:84:
                    12:a5:d6:0d:00:71:d5:a2:e0:7f:4b:21:b7:37:d1:
                    16:ce:e4:b3:a7:84:bf:85:c4:f1:3d:bd:15:35:9c:
                    3e:59:d3:5a:3b:ce:0a:89:af:c6:e8:36:a5:35:a0:
                    ec:61:38:0c:94:66:44:99:c1:de:92:78:91:d0:bc:
                    b4:59:40:34:48:a2:fd:d0:08:be:27:61:be:77:4f:
                    7b:ac:4a:55:f0:e4:cb:b1:52:a9:7f:3b:0b:cb:72:
                    f3:ce:ff:c1:41:5c:a9:88:06:97:ce:1c:7c:5f:03:
                    00:3b:f8:15:3c:7f:c6:45:68:30:74:da:c3:67:2e:
                    50:17:65:cf:71:07:51:64:0c:d0:19:9c:cf:5f:8d:
                    60:00:25:bb:5f:45:c2:4e:d2:5e:f3:ab:c0:10:fc:
                    47:4e:e9:85:4a:ea:f8:52:71:ff:c8:a2:f2:9c:31:
                    b0:d5:dc:63:ed:f1:85:12:96:a2:c0:b8:8b:f7:ac:
                    53:dc:94:3b:e9:0d:da:7e:73:de:8e:5c:0d:f0:2b:
                    a6:21:b0:50:6f:62:6c:e0:46:7a:15:7d:7f:15:15:
                    07:69:e2:f9:5c:5e:ca:84:87:db:4f:86:f0:e6:5a:
                    f7:d4:db:19:5d:6d:7e:74:23:54:bd:fd:32:2e:70:
                    8c:6b:92:c6:3b:5b:de:fc:ee:9e:25:18:48:c9:4d:
                    f9:05:99:fa:3f:8d:d3:5c:63:b1:84:fe:c1:e3:ed:
                    a5:5b:6c:ae:f9:dd:91:16:57:78:fb:65:b3:b5:96:
                    5c:1e:23:99:ba:42:4e:27:3f:07:7f:1f:60:87:20:
                    aa:91:6e:2b:59:42:0e:f2:98:60:00:a0:29:9b:6d:
                    79:eb:28:8e:14:52:b3:32:b1:08:2d:b8:56:14:30:
                    ab:2d:20:c6:0e:f1:b2:c0:17:99:e9:56:85:6e:32:
                    0d:74:5f:13:4a:80:16:02:a3:4f:83:fd:15:1a:4c:
                    cd:ab:41:1b:5f:73:05:de:20:55:cd:c4:3b:a1:bd:
                    b9:70:4d:3a:d6:db:11:be:67:6c:55:10:d7:85:54:
                    50:23:82:a1:1a:e1:83:dd:8e:dc:4e:03:79:a5:95:
                    db:6b:33:99:4b:0a:5b:c2:2e:f7:2e:b3:0e:fd:44:
                    c6:12:84:2d:cd:c0:c3:66:55:33:7d:c1:d5:f5:56:
                    09:9c:7f:8d:35:76:55:cd:e0:b0:aa:22:3e:75:c8:
                    87:e1:07:b2:c3:ea:59:77:78:03:3f:a8:ae:60:c0:
                    f3:ef:87:3d:f7:d3:37:d6:6b:1f:1f:d2:5c:cb:45:
                    0d:6b:ee:5f:48:63:f6:3d:d6:7e:ca:15:12:c3:cb:
                    d7:03:21
                Exponent: 65537 (0x10001)
        X509v3 extensions:
            X509v3 Subject Key Identifier: 
                19:29:93:41:F1:CB:77:D9:B0:BE:D7:CD:B4:22:72:90:3F:05:E6:39
            X509v3 Authority Key Identifier: 
                keyid:19:29:93:41:F1:CB:77:D9:B0:BE:D7:CD:B4:22:72:90:3F:05:E6:39

            X509v3 Basic Constraints: critical
                CA:TRUE
    Signature Algorithm: sha256WithRSAEncryption
         99:e2:9c:6f:00:f3:4a:76:61:2f:d1:f8:a0:f1:33:3a:c9:53:
         11:ac:e7:d6:f4:46:35:39:03:69:b1:b3:1e:53:b5:6f:9e:8c:
         c3:7e:9f:38:a5:bd:70:f4:92:f4:1c:b5:1e:20:77:89:08:a9:
         51:9e:80:43:da:48:20:1b:fb:e5:9d:32:34:fc:6c:22:a8:53:
         a4:30:02:58:4c:7c:8e:4f:e4:ae:1c:c2:20:c2:28:c5:44:5f:
         04:02:90:dc:e9:a5:ed:4f:be:11:a8:32:05:98:10:00:78:c6:
         11:13:ae:44:4f:be:91:40:de:13:2d:12:c0:85:a2:5e:61:17:
         d4:e6:78:b4:16:da:5b:e4:3b:19:cf:82:3c:75:68:b8:e6:54:
         ab:c3:a0:b7:dc:c8:f7:ca:c8:89:3e:55:14:f9:b6:84:16:6b:
         72:0b:a8:aa:6a:92:37:9d:f7:1c:94:c9:56:29:a2:bc:20:6d:
         91:12:b7:61:fb:0c:b1:96:0e:d2:39:a3:f1:35:ac:4c:06:65:
         cb:7c:30:80:c9:23:57:88:39:84:bb:6b:60:e1:d4:ea:c9:bc:
         1f:7d:90:8c:37:1b:6a:12:c6:ec:90:a0:41:1e:56:0a:07:ec:
         fe:ed:91:1c:5c:ac:37:05:11:7f:f1:ea:fb:d8:9e:08:4b:52:
         42:b9:38:bb:5f:58:be:4c:29:67:15:43:f7:15:0e:35:a1:8d:
         66:f3:d1:a2:db:5c:89:92:a8:e2:91:92:84:90:03:b5:44:e7:
         90:a2:44:39:82:d3:82:0d:e3:49:42:4f:43:9e:40:cd:5c:00:
         25:3b:9d:2c:4c:94:18:fc:09:2f:59:49:e2:71:6e:58:34:92:
         89:95:ea:a0:06:83:d6:3d:82:34:68:64:cd:60:53:d6:62:44:
         72:f3:d3:b8:ac:43:37:06:33:84:5e:38:07:42:90:49:e4:b7:
         bc:9b:4c:89:b1:0b:08:e6:7c:6b:85:ae:47:8c:45:7b:a7:e5:
         78:be:1f:a8:76:29:8c:8e:48:59:85:03:7c:54:42:f2:5a:af:
         59:d2:65:e2:80:92:30:7f:ac:d0:1f:e6:fc:55:a6:7b:79:6d:
         fb:bf:ca:67:4b:ce:93:7b:af:8b:4f:4e:2d:06:53:4e:e1:a0:
         71:25:4f:a0:ef:b3:cc:93:ae:84:bc:d3:74:ef:85:ce:56:c1:
         1e:56:5a:c7:f8:8d:65:0d:46:61:9d:20:93:ac:18:f7:e8:31:
         a9:d5:59:41:7c:b8:50:88:63:1d:5d:93:6d:6f:0e:96:15:72:
         44:2d:4e:f9:83:79:a6:3c:83:f3:ce:1a:60:b0:fe:26:bc:59:
         5d:0b:52:94:d9:6e:ad:cc
-----BEGIN CERTIFICATE-----
MIIFCzCCAvOgAwIBAgIUFL7iwYYAfAarNFw2C0Q1zEjC4yUwDQYJKoZIhvcNAQEL
BQAwFDESMBAGA1UEAwwJbG9jYWxob3N0MCAXDTIxMDcwODExMzAwN1oYDzIxMjEw
NjE0MTEzMDA3WjAUMRIwEAYDVQQDDAlsb2NhbGhvc3QwggIiMA0GCSqGSIb3DQEB
AQUAA4ICDwAwggIKAoICAQC2v+TV2yx9DK78LWCLhBKl1g0AcdWi4H9LIbc30RbO
5LOnhL+FxPE9vRU1nD5Z01o7zgqJr8boNqU1oOxhOAyUZkSZwd6SeJHQvLRZQDRI
ov3QCL4nYb53T3usSlXw5MuxUql/OwvLcvPO/8FBXKmIBpfOHHxfAwA7+BU8f8ZF
aDB02sNnLlAXZc9xB1FkDNAZnM9fjWAAJbtfRcJO0l7zq8AQ/EdO6YVK6vhScf/I
ovKcMbDV3GPt8YUSlqLAuIv3rFPclDvpDdp+c96OXA3wK6YhsFBvYmzgRnoVfX8V
FQdp4vlcXsqEh9tPhvDmWvfU2xldbX50I1S9/TIucIxrksY7W9787p4lGEjJTfkF
mfo/jdNcY7GE/sHj7aVbbK753ZEWV3j7ZbO1llweI5m6Qk4nPwd/H2CHIKqRbitZ
Qg7ymGAAoCmbbXnrKI4UUrMysQgtuFYUMKstIMYO8bLAF5npVoVuMg10XxNKgBYC
o0+D/RUaTM2rQRtfcwXeIFXNxDuhvblwTTrW2xG+Z2xVENeFVFAjgqEa4YPdjtxO
A3mlldtrM5lLClvCLvcusw79RMYShC3NwMNmVTN9wdX1Vgmcf401dlXN4LCqIj51
yIfhB7LD6ll3eAM/qK5gwPPvhz330zfWax8f0lzLRQ1r7l9IY/Y91n7KFRLDy9cD
IQIDAQABo1MwUTAdBgNVHQ4EFgQUGSmTQfHLd9mwvtfNtCJykD8F5jkwHwYDVR0j
BBgwFoAUGSmTQfHLd9mwvtfNtCJykD8F5jkwDwYDVR0TAQH/BAUwAwEB/zANBgkq
hkiG9w0BAQsFAAOCAgEAmeKcbwDzSnZhL9H4oPEzOslTEazn1vRGNTkDabGzHlO1
b56Mw36fOKW9cPSS9By1HiB3iQipUZ6AQ9pIIBv75Z0yNPxsIqhTpDACWEx8jk/k
rhzCIMIoxURfBAKQ3Oml7U++EagyBZgQAHjGEROuRE++kUDeEy0SwIWiXmEX1OZ4
tBbaW+Q7Gc+CPHVouOZUq8Ogt9zI98rIiT5VFPm2hBZrcguoqmqSN533HJTJVimi
vCBtkRK3YfsMsZYO0jmj8TWsTAZly3wwgMkjV4g5hLtrYOHU6sm8H32QjDcbahLG
7JCgQR5WCgfs/u2RHFysNwURf/Hq+9ieCEtSQrk4u19YvkwpZxVD9xUONaGNZvPR
ottciZKo4pGShJADtUTnkKJEOYLTgg3jSUJPQ55AzVwAJTudLEyUGPwJL1lJ4nFu
WDSSiZXqoAaD1j2CNGhkzWBT1mJEcvPTuKxDNwYzhF44B0KQSeS3vJtMibELCOZ8
a4WuR4xFe6fleL4fqHYpjI5IWYUDfFRC8lqvWdJl4oCSMH+s0B/m/FWme3lt+7/K
Z0vOk3uvi09OLQZTTuGgcSVPoO+zzJOuhLzTdO+FzlbBHlZax/iNZQ1GYZ0gk6wY
9+gxqdVZQXy4UIhjHV2TbW8OlhVyRC1O+YN5pjyD884aYLD+JrxZXQtSlNlurcw=
-----END CERTIFICATE-----
